(lp0
(dp1
S'poster'
p2
(lp3
Vhttps://img3.doubanio.com/view/movie_poster_cover/ipst/public/p480747492.jpg
p4
asS'movie_url'
p5
Vhttps://movie.douban.com/subject/1292052/
p6
sa(dp7
g2
(lp8
Vhttps://img3.doubanio.com/view/movie_poster_cover/ipst/public/p511118051.jpg
p9
asg5
Vhttps://movie.douban.com/subject/1295644/
p10
sa(dp11
g2
(lp12
Vhttps://img3.doubanio.com/view/movie_poster_cover/ipst/public/p1910813120.jpg
p13
asg5
Vhttps://movie.douban.com/subject/1291546/
p14
sa(dp15
g2
(lp16
Vhttps://img1.doubanio.com/view/movie_poster_cover/ipst/public/p510876377.jpg
p17
asg5
Vhttps://movie.douban.com/subject/1292720/
p18
sa(dp19
g2
(lp20
Vhttps://img3.doubanio.com/view/movie_poster_cover/ipst/public/p510861873.jpg
p21
asg5
Vhttps://movie.douban.com/subject/1292063/
p22
sa(dp23
g2
(lp24
Vhttps://img3.doubanio.com/view/movie_poster_cover/ipst/public/p1910830216.jpg
p25
asg5
Vhttps://movie.douban.com/subject/1291561/
p26
sa(dp27
g2
(lp28
Vhttps://img3.doubanio.com/view/movie_poster_cover/ipst/public/p492406163.jpg
p29
asg5
Vhttps://movie.douban.com/subject/1295124/
p30
sa(dp31
g2
(lp32
Vhttps://img1.doubanio.com/view/movie_poster_cover/ipst/public/p511146957.jpg
p33
asg5
Vhttps://movie.douban.com/subject/1292001/
p34
sa(dp35
g2
(lp36
Vhttps://img3.doubanio.com/view/movie_poster_cover/ipst/public/p449665982.jpg
p37
asg5
Vhttps://movie.douban.com/subject/2131459/
p38
sa(dp39
g2
(lp40
Vhttps://img3.doubanio.com/view/movie_poster_cover/ipst/public/p513344864.jpg
p41
asg5
Vhttps://movie.douban.com/subject/3541415/
p42
sa(dp43
g2
(lp44
Vhttps://img3.doubanio.com/view/movie_poster_cover/ipst/public/p457760035.jpg
p45
asg5
Vhttps://movie.douban.com/subject/1292722/
p46
sa(dp47
g2
(lp48
Vhttps://img3.doubanio.com/view/movie_poster_cover/ipst/public/p579729551.jpg
p49
asg5
Vhttps://movie.douban.com/subject/3793023/
p50
sa(dp51
g2
(lp52
Vhttps://img3.doubanio.com/view/movie_poster_cover/ipst/public/p1910824951.jpg
p53
asg5
Vhttps://movie.douban.com/subject/1291549/
p54
sa(dp55
g2
(lp56
Vhttps://img3.doubanio.com/view/movie_poster_cover/ipst/public/p524964016.jpg
p57
asg5
Vhttps://movie.douban.com/subject/3011091/
p58
sa(dp59
g2
(lp60
Vhttps://img3.doubanio.com/view/movie_poster_cover/ipst/public/p648365452.jpg
p61
asg5
Vhttps://movie.douban.com/subject/1292213/
p62
sa(dp63
g2
(lp64
Vhttps://img1.doubanio.com/view/movie_poster_cover/ipst/public/p1910829638.jpg
p65
asg5
Vhttps://movie.douban.com/subject/1291560/
p66
sa(dp67
g2
(lp68
Vhttps://img3.doubanio.com/view/movie_poster_cover/ipst/public/p1910907404.jpg
p69
asg5
Vhttps://movie.douban.com/subject/1291841/
p70
sa(dp71
g2
(lp72
Vhttps://img3.doubanio.com/view/movie_poster_cover/ipst/public/p1963126880.jpg
p73
asg5
Vhttps://movie.douban.com/subject/1300267/
p74
sa(dp75
g2
(lp76
Vhttps://img3.doubanio.com/view/movie_poster_cover/ipst/public/p1910901025.jpg
p77
asg5
Vhttps://movie.douban.com/subject/1291828/
p78
sa(dp79
g2
(lp80
Vhttps://img3.doubanio.com/view/movie_poster_cover/ipst/public/p480420695.jpg
p81
asg5
Vhttps://movie.douban.com/subject/1292064/
p82
sa(dp83
g2
(lp84
Vhttps://img1.doubanio.com/view/movie_poster_cover/ipst/public/p1312700628.jpg
p85
asg5
Vhttps://movie.douban.com/subject/1849031/
p86
sa(dp87
g2
(lp88
Vhttps://img1.doubanio.com/view/movie_poster_cover/ipst/public/p1910926158.jpg
p89
asg5
Vhttps://movie.douban.com/subject/1292000/
p90
sa(dp91
g2
(lp92
Vhttps://img3.doubanio.com/view/movie_poster_cover/ipst/public/p1454261925.jpg
p93
asg5
Vhttps://movie.douban.com/subject/6786002/
p94
sa(dp95
g2
(lp96
Vhttps://img3.doubanio.com/view/movie_poster_cover/ipst/public/p1910825503.jpg
p97
asg5
Vhttps://movie.douban.com/subject/1291552/
p98
sa(dp99
g2
(lp100
Vhttps://img3.doubanio.com/view/movie_poster_cover/ipst/public/p2173577632.jpg
p101
asg5
Vhttps://movie.douban.com/subject/1293182/
p102
sa(dp103
g2
(lp104
Vhttps://img3.doubanio.com/view/movie_poster_cover/ipst/public/p2173398296.jpg
p105
asg5
Vhttps://movie.douban.com/subject/1293839/
p106
sa(dp107
g2
(lp108
Vhttps://img3.doubanio.com/view/movie_poster_cover/ipst/public/p663036666.jpg
p109
asg5
Vhttps://movie.douban.com/subject/3319755/
p110
sa(dp111
g2
(lp112
Vhttps://img1.doubanio.com/view/movie_poster_cover/ipst/public/p1446261379.jpg
p113
asg5
Vhttps://movie.douban.com/subject/1291583/
p114
sa(dp115
g2
(lp116
Vhttps://img3.doubanio.com/view/movie_poster_cover/ipst/public/p2233971046.jpg
p117
asg5
Vhttps://movie.douban.com/subject/1307914/
p118
sa(dp119
g2
(lp120
Vhttps://img1.doubanio.com/view/movie_poster_cover/ipst/public/p792443418.jpg
p121
asg5
Vhttps://movie.douban.com/subject/1293350/
p122
sa(dp123
g2
(lp124
Vhttps://img3.doubanio.com/view/movie_poster_cover/ipst/public/p465583562.jpg
p125
asg5
Vhttps://movie.douban.com/subject/2129039/
p126
sa(dp127
g2
(lp128
Vhttps://img3.doubanio.com/view/movie_poster_cover/ipst/public/p1280323646.jpg
p129
asg5
Vhttps://movie.douban.com/subject/1299398/
p130
sa(dp131
g2
(lp132
Vhttps://img3.doubanio.com/view/movie_poster_cover/ipst/public/p1784592701.jpg
p133
asg5
Vhttps://movie.douban.com/subject/1929463/
p134
sa(dp135
g2
(lp136
Vhttps://img3.doubanio.com/view/movie_poster_cover/ipst/public/p1363250216.jpg
p137
asg5
Vhttps://movie.douban.com/subject/5912992/
p138
sa(dp139
g2
(lp140
Vhttps://img1.doubanio.com/view/movie_poster_cover/ipst/public/p792238287.jpg
p141
asg5
Vhttps://movie.douban.com/subject/1292224/
p142
sa(dp143
g2
(lp144
Vhttps://img3.doubanio.com/view/movie_poster_cover/ipst/public/p1181775734.jpg
p145
asg5
Vhttps://movie.douban.com/subject/1291858/
p146
sa(dp147
g2
(lp148
Vhttps://img3.doubanio.com/view/movie_poster_cover/ipst/public/p455222172.jpg
p149
asg5
Vhttps://movie.douban.com/subject/3442220/
p150
sa(dp151
g2
(lp152
Vhttps://img3.doubanio.com/view/movie_poster_cover/ipst/public/p462657443.jpg
p153
asg5
Vhttps://movie.douban.com/subject/1851857/
p154
sa(dp155
g2
(lp156
Vhttps://img1.doubanio.com/view/movie_poster_cover/ipst/public/p1808872109.jpg
p157
asg5
Vhttps://movie.douban.com/subject/1900841/
p158
sa(dp159
g2
(lp160
Vhttps://img3.doubanio.com/view/movie_poster_cover/ipst/public/p2173575484.jpg
p161
asg5
Vhttps://movie.douban.com/subject/1292365/
p162
sa(dp163
g2
(lp164
Vhttps://img3.doubanio.com/view/movie_poster_cover/ipst/public/p1465235231.jpg
p165
asg5
Vhttps://movie.douban.com/subject/1309046/
p166
sa(dp167
g2
(lp168
Vhttps://img1.doubanio.com/view/movie_poster_cover/ipst/public/p925123037.jpg
p169
asg5
Vhttps://movie.douban.com/subject/1298624/
p170
sa(dp171
g2
(lp172
Vhttps://img3.doubanio.com/view/movie_poster_cover/ipst/public/p803896904.jpg
p173
asg5
Vhttps://movie.douban.com/subject/1292215/
p174
sa(dp175
g2
(lp176
Vhttps://img3.doubanio.com/view/movie_poster_cover/ipst/public/p1665997400.jpg
p177
asg5
Vhttps://movie.douban.com/subject/1306029/
p178
sa(dp179
g2
(lp180
Vhttps://img3.doubanio.com/view/movie_poster_cover/ipst/public/p909265336.jpg
p181
asg5
Vhttps://movie.douban.com/subject/1291572/
p182
sa(dp183
g2
(lp184
Vhttps://img3.doubanio.com/view/movie_poster_cover/ipst/public/p1354436051.jpg
p185
asg5
Vhttps://movie.douban.com/subject/1291571/
p186
sa(dp187
g2
(lp188
Vhttps://img3.doubanio.com/view/movie_poster_cover/ipst/public/p616779231.jpg
p189
asg5
Vhttps://movie.douban.com/subject/1299131/
p190
sa(dp191
g2
(lp192
Vhttps://img3.doubanio.com/view/movie_poster_cover/ipst/public/p2206088801.jpg
p193
asg5
Vhttps://movie.douban.com/subject/1889243/
p194
sa(dp195
g2
(lp196
Vhttps://img3.doubanio.com/view/movie_poster_cover/ipst/public/p2174346180.jpg
p197
asg5
Vhttps://movie.douban.com/subject/1308807/
p198
sa(dp199
g2
(lp200
Vhttps://img3.doubanio.com/view/movie_poster_cover/ipst/public/p457631605.jpg
p201
asg5
Vhttps://movie.douban.com/subject/1292223/
p202
sa(dp203
g2
(lp204
Vhttps://img1.doubanio.com/view/movie_poster_cover/ipst/public/p449897379.jpg
p205
asg5
Vhttps://movie.douban.com/subject/1292220/
p206
sa(dp207
g2
(lp208
Vhttps://img3.doubanio.com/view/movie_poster_cover/ipst/public/p1910824340.jpg
p209
asg5
Vhttps://movie.douban.com/subject/1291548/
p210
sa(dp211
g2
(lp212
Vhttps://img1.doubanio.com/view/movie_poster_cover/ipst/public/p477229647.jpg
p213
asg5
Vhttps://movie.douban.com/subject/1292262/
p214
sa(dp215
g2
(lp216
Vhttps://img3.doubanio.com/view/movie_poster_cover/ipst/public/p1374546770.jpg
p217
asg5
Vhttps://movie.douban.com/subject/1294639/
p218
sa(dp219
g2
(lp220
Vhttps://img1.doubanio.com/view/movie_poster_cover/ipst/public/p480956937.jpg
p221
asg5
Vhttps://movie.douban.com/subject/1292370/
p222
sa(dp223
g2
(lp224
Vhttps://img3.doubanio.com/view/movie_poster_cover/ipst/public/p792484461.jpg
p225
asg5
Vhttps://movie.douban.com/subject/1296736/
p226
sa(dp227
g2
(lp228
Vhttps://img3.doubanio.com/view/movie_poster_cover/ipst/public/p480383375.jpg
p229
asg5
Vhttps://movie.douban.com/subject/1780330/
p230
sa(dp231
g2
(lp232
Vhttps://img1.doubanio.com/view/movie_poster_cover/ipst/public/p722758217.jpg
p233
asg5
Vhttps://movie.douban.com/subject/1301753/
p234
sa(dp235
g2
(lp236
Vhttps://img1.doubanio.com/view/movie_poster_cover/ipst/public/p453723669.jpg
p237
asg5
Vhttps://movie.douban.com/subject/1787291/
p238
sa(dp239
g2
(lp240
Vhttps://img1.doubanio.com/view/movie_poster_cover/ipst/public/p453788577.jpg
p241
asg5
Vhttps://movie.douban.com/subject/1294408/
p242
sa(dp243
g2
(lp244
Vhttps://img3.doubanio.com/view/movie_poster_cover/ipst/public/p2173580603.jpg
p245
asg5
Vhttps://movie.douban.com/subject/1303021/
p246
sa(dp247
g2
(lp248
Vhttps://img3.doubanio.com/view/movie_poster_cover/ipst/public/p1910902213.jpg
p249
asg5
Vhttps://movie.douban.com/subject/1291832/
p250
sa(dp251
g2
(lp252
Vhttps://img1.doubanio.com/view/movie_poster_cover/ipst/public/p594972928.jpg
p253
asg5
Vhttps://movie.douban.com/subject/2149806/
p254
sa(dp255
g2
(lp256
Vhttps://img1.doubanio.com/view/movie_poster_cover/ipst/public/p793653648.jpg
p257
asg5
Vhttps://movie.douban.com/subject/1292343/
p258
sa(dp259
g2
(lp260
Vhttps://img3.doubanio.com/view/movie_poster_cover/ipst/public/p2158166535.jpg
p261
asg5
Vhttps://movie.douban.com/subject/21937445/
p262
sa(dp263
g2
(lp264
Vhttps://img1.doubanio.com/view/movie_poster_cover/ipst/public/p1593414327.jpg
p265
asg5
Vhttps://movie.douban.com/subject/1293544/
p266
sa(dp267
g2
(lp268
Vhttps://img1.doubanio.com/view/movie_poster_cover/ipst/public/p1820615077.jpg
p269
asg5
Vhttps://movie.douban.com/subject/3072124/
p270
sa(dp271
g2
(lp272
Vhttps://img3.doubanio.com/view/movie_poster_cover/ipst/public/p2192535722.jpg
p273
asg5
Vhttps://movie.douban.com/subject/1485260/
p274
sa(dp275
g2
(lp276
Vhttps://img3.doubanio.com/view/movie_poster_cover/ipst/public/p1910899751.jpg
p277
asg5
Vhttps://movie.douban.com/subject/1291818/
p278
sa(dp279
g2
(lp280
Vhttps://img3.doubanio.com/view/movie_poster_cover/ipst/public/p1910908765.jpg
p281
asg5
Vhttps://movie.douban.com/subject/1291843/
p282
sa(dp283
g2
(lp284
Vhttps://img3.doubanio.com/view/movie_poster_cover/ipst/public/p1014542496.jpg
p285
asg5
Vhttps://movie.douban.com/subject/1292849/
p286
sa(dp287
g2
(lp288
Vhttps://img3.doubanio.com/view/movie_poster_cover/ipst/public/p792400696.jpg
p289
asg5
Vhttps://movie.douban.com/subject/1292402/
p290
sa(dp291
g2
(lp292
Vhttps://img1.doubanio.com/view/movie_poster_cover/ipst/public/p1505392928.jpg
p293
asg5
Vhttps://movie.douban.com/subject/1296141/
p294
sa(dp295
g2
(lp296
Vhttps://img3.doubanio.com/view/movie_poster_cover/ipst/public/p1613191025.jpg
p297
asg5
Vhttps://movie.douban.com/subject/1297359/
p298
sa(dp299
g2
(lp300
Vhttps://img3.doubanio.com/view/movie_poster_cover/ipst/public/p480965695.jpg
p301
asg5
Vhttps://movie.douban.com/subject/1292656/
p302
sa(dp303
g2
(lp304
Vhttps://img3.doubanio.com/view/movie_poster_cover/ipst/public/p2220184425.jpg
p305
asg5
Vhttps://movie.douban.com/subject/1297630/
p306
sa(dp307
g2
(lp308
Vhttps://img3.doubanio.com/view/movie_poster_cover/ipst/public/p692813374.jpg
p309
asg5
Vhttps://movie.douban.com/subject/1291545/
p310
sa(dp311
g2
(lp312
Vhttps://img1.doubanio.com/view/movie_poster_cover/ipst/public/p967457079.jpg
p313
asg5
Vhttps://movie.douban.com/subject/1291875/
p314
sa(dp315
g2
(lp316
Vhttps://img1.doubanio.com/view/movie_poster_cover/ipst/public/p1512562287.jpg
p317
asg5
Vhttps://movie.douban.com/subject/3742360/
p318
sa(dp319
g2
(lp320
Vhttps://img3.doubanio.com/view/movie_poster_cover/ipst/public/p1993903133.jpg
p321
asg5
Vhttps://movie.douban.com/subject/1316510/
p322
sa(dp323
g2
(lp324
Vhttps://img1.doubanio.com/view/movie_poster_cover/ipst/public/p1374786017.jpg
p325
asg5
Vhttps://movie.douban.com/subject/4917726/
p326
sa(dp327
g2
(lp328
Vhttps://img3.doubanio.com/view/movie_poster_cover/ipst/public/p455677490.jpg
p329
asg5
Vhttps://movie.douban.com/subject/1292208/
p330
sa(dp331
g2
(lp332
Vhttps://img3.doubanio.com/view/movie_poster_cover/ipst/public/p2118532944.jpg
p333
asg5
Vhttps://movie.douban.com/subject/21937452/
p334
sa(dp335
g2
(lp336
Vhttps://img1.doubanio.com/view/movie_poster_cover/ipst/public/p2184505167.jpg
p337
asg5
Vhttps://movie.douban.com/subject/1418019/
p338
sa(dp339
g2
(lp340
Vhttps://img3.doubanio.com/view/movie_poster_cover/ipst/public/p465939041.jpg
p341
asg5
Vhttps://movie.douban.com/subject/1292679/
p342
sa(dp343
g2
(lp344
Vhttps://img1.doubanio.com/view/movie_poster_cover/ipst/public/p2276728977.jpg
p345
asg5
Vhttps://movie.douban.com/subject/1291999/
p346
sa(dp347
g2
(lp348
Vhttps://img1.doubanio.com/view/movie_poster_cover/ipst/public/p1832875827.jpg
p349
asg5
Vhttps://movie.douban.com/subject/2334904/
p350
sa(dp351
g2
(lp352
Vhttps://img1.doubanio.com/view/movie_poster_cover/ipst/public/p1157334208.jpg
p353
asg5
Vhttps://movie.douban.com/subject/1293318/
p354
sa(dp355
g2
(lp356
Vhttps://img3.doubanio.com/view/movie_poster_cover/ipst/public/p453720880.jpg
p357
asg5
Vhttps://movie.douban.com/subject/1297192/
p358
sa(dp359
g2
(lp360
Vhttps://img3.doubanio.com/view/movie_poster_cover/ipst/public/p689520756.jpg
p361
asg5
Vhttps://movie.douban.com/subject/4268598/
p362
sa(dp363
g2
(lp364
Vhttps://img3.doubanio.com/view/movie_poster_cover/ipst/public/p2223011274.jpg
p365
asg5
Vhttps://movie.douban.com/subject/1305164/
p366
sa(dp367
g2
(lp368
Vhttps://img1.doubanio.com/view/movie_poster_cover/ipst/public/p2119675128.jpg
p369
asg5
Vhttps://movie.douban.com/subject/1292434/
p370
sa(dp371
g2
(lp372
Vhttps://img3.doubanio.com/view/movie_poster_cover/ipst/public/p1486234122.jpg
p373
asg5
Vhttps://movie.douban.com/subject/1296339/
p374
sa(dp375
g2
(lp376
Vhttps://img3.doubanio.com/view/movie_poster_cover/ipst/public/p1596085504.jpg
p377
asg5
Vhttps://movie.douban.com/subject/1298070/
p378
sa(dp379
g2
(lp380
Vhttps://img3.doubanio.com/view/movie_poster_cover/ipst/public/p1204213484.jpg
p381
asg5
Vhttps://movie.douban.com/subject/1652587/
p382
sa(dp383
g2
(lp384
Vhttps://img3.doubanio.com/view/movie_poster_cover/ipst/public/p1917567652.jpg
p385
asg5
Vhttps://movie.douban.com/subject/1291585/
p386
sa(dp387
g2
(lp388
Vhttps://img3.doubanio.com/view/movie_poster_cover/ipst/public/p1910924055.jpg
p389
asg5
Vhttps://movie.douban.com/subject/1291990/
p390
sa(dp391
g2
(lp392
Vhttps://img3.doubanio.com/view/movie_poster_cover/ipst/public/p456692072.jpg
p393
asg5
Vhttps://movie.douban.com/subject/1297052/
p394
sa(dp395
g2
(lp396
Vhttps://img1.doubanio.com/view/movie_poster_cover/ipst/public/p450042258.jpg
p397
asg5
Vhttps://movie.douban.com/subject/2353023/
p398
sa(dp399
g2
(lp400
Vhttps://img3.doubanio.com/view/movie_poster_cover/ipst/public/p497010372.jpg
p401
asg5
Vhttps://movie.douban.com/subject/3443389/
p402
sa(dp403
g2
(lp404
Vhttps://img1.doubanio.com/view/movie_poster_cover/ipst/public/p1023654037.jpg
p405
asg5
Vhttps://movie.douban.com/subject/1295865/
p406
sa(dp407
g2
(lp408
Vhttps://img3.doubanio.com/view/movie_poster_cover/ipst/public/p2178872593.jpg
p409
asg5
Vhttps://movie.douban.com/subject/11525673/
p410
sa(dp411
g2
(lp412
Vhttps://img1.doubanio.com/view/movie_poster_cover/ipst/public/p513535588.jpg
p413
asg5
Vhttps://movie.douban.com/subject/1418834/
p414
sa(dp415
g2
(lp416
Vhttps://img3.doubanio.com/view/movie_poster_cover/ipst/public/p453924541.jpg
p417
asg5
Vhttps://movie.douban.com/subject/1305487/
p418
sa(dp419
g2
(lp420
Vhttps://img3.doubanio.com/view/movie_poster_cover/ipst/public/p1305562621.jpg
p421
asg5
Vhttps://movie.douban.com/subject/5322596/
p422
sa(dp423
g2
(lp424
Vhttps://img3.doubanio.com/view/movie_poster_cover/ipst/public/p2173707976.jpg
p425
asg5
Vhttps://movie.douban.com/subject/1294371/
p426
sa(dp427
g2
(lp428
Vhttps://img1.doubanio.com/view/movie_poster_cover/ipst/public/p1546987967.jpg
p429
asg5
Vhttps://movie.douban.com/subject/6985810/
p430
sa(dp431
g2
(lp432
Vhttps://img1.doubanio.com/view/movie_poster_cover/ipst/public/p854757687.jpg
p433
asg5
Vhttps://movie.douban.com/subject/1292274/
p434
sa(dp435
g2
(lp436
Vhttps://img3.doubanio.com/view/movie_poster_cover/ipst/public/p2163771304.jpg
p437
asg5
Vhttps://movie.douban.com/subject/1417598/
p438
sa(dp439
g2
(lp440
Vhttps://img1.doubanio.com/view/movie_poster_cover/ipst/public/p792776858.jpg
p441
asg5
Vhttps://movie.douban.com/subject/3287562/
p442
sa(dp443
g2
(lp444
Vhttps://img1.doubanio.com/view/movie_poster_cover/ipst/public/p2173634628.jpg
p445
asg5
Vhttps://movie.douban.com/subject/1296909/
p446
sa(dp447
g2
(lp448
Vhttps://img3.doubanio.com/view/movie_poster_cover/ipst/public/p751835224.jpg
p449
asg5
Vhttps://movie.douban.com/subject/1293359/
p450
sa(dp451
g2
(lp452
Vhttps://img1.doubanio.com/view/movie_poster_cover/ipst/public/p792223507.jpg
p453
asg5
Vhttps://movie.douban.com/subject/1578507/
p454
sa(dp455
g2
(lp456
Vhttps://img3.doubanio.com/view/movie_poster_cover/ipst/public/p475600770.jpg
p457
asg5
Vhttps://movie.douban.com/subject/1292401/
p458
sa(dp459
g2
(lp460
Vhttps://img3.doubanio.com/view/movie_poster_cover/ipst/public/p617533616.jpg
p461
asg5
Vhttps://movie.douban.com/subject/4202302/
p462
sa(dp463
g2
(lp464
Vhttps://img3.doubanio.com/view/movie_poster_cover/ipst/public/p942376281.jpg
p465
asg5
Vhttps://movie.douban.com/subject/1291870/
p466
sa(dp467
g2
(lp468
Vhttps://img1.doubanio.com/view/movie_poster_cover/ipst/public/p470476887.jpg
p469
asg5
Vhttps://movie.douban.com/subject/2209573/
p470
sa(dp471
g2
(lp472
Vhttps://img3.doubanio.com/view/movie_poster_cover/ipst/public/p517829051.jpg
p473
asg5
Vhttps://movie.douban.com/subject/3792799/
p474
sa(dp475
g2
(lp476
Vhttps://img1.doubanio.com/view/movie_poster_cover/ipst/public/p1867084027.jpg
p477
asg5
Vhttps://movie.douban.com/subject/1907966/
p478
sa(dp479
g2
(lp480
Vhttps://img3.doubanio.com/view/movie_poster_cover/ipst/public/p641688453.jpg
p481
asg5
Vhttps://movie.douban.com/subject/1304447/
p482
sa(dp483
g2
(lp484
Vhttps://img3.doubanio.com/view/movie_poster_cover/ipst/public/p1982176012.jpg
p485
asg5
Vhttps://movie.douban.com/subject/1292328/
p486
sa(dp487
g2
(lp488
Vhttps://img3.doubanio.com/view/movie_poster_cover/ipst/public/p647099823.jpg
p489
asg5
Vhttps://movie.douban.com/subject/1295399/
p490
sa(dp491
g2
(lp492
Vhttps://img3.doubanio.com/view/movie_poster_cover/ipst/public/p2270088353.jpg
p493
asg5
Vhttps://movie.douban.com/subject/1297447/
p494
sa(dp495
g2
(lp496
Vhttps://img3.doubanio.com/view/movie_poster_cover/ipst/public/p804947166.jpg
p497
asg5
Vhttps://movie.douban.com/subject/1295038/
p498
sa(dp499
g2
(lp500
Vhttps://img3.doubanio.com/view/movie_poster_cover/ipst/public/p1473670352.jpg
p501
asg5
Vhttps://movie.douban.com/subject/3008247/
p502
sa(dp503
g2
(lp504
Vhttps://img3.doubanio.com/view/movie_poster_cover/ipst/public/p2079334286.jpg
p505
asg5
Vhttps://movie.douban.com/subject/1937946/
p506
sa(dp507
g2
(lp508
Vhttps://img3.doubanio.com/view/movie_poster_cover/ipst/public/p452088641.jpg
p509
asg5
Vhttps://movie.douban.com/subject/1293172/
p510
sa(dp511
g2
(lp512
Vhttps://img1.doubanio.com/view/movie_poster_cover/ipst/public/p1805127697.jpg
p513
asg5
Vhttps://movie.douban.com/subject/1291579/
p514
sa(dp515
g2
(lp516
Vhttps://img1.doubanio.com/view/movie_poster_cover/ipst/public/p2351134499.jpg
p517
asg5
Vhttps://movie.douban.com/subject/1293964/
p518
sa(dp519
g2
(lp520
Vhttps://img3.doubanio.com/view/movie_poster_cover/ipst/public/p483604864.jpg
p521
asg5
Vhttps://movie.douban.com/subject/1309163/
p522
sa(dp523
g2
(lp524
Vhttps://img1.doubanio.com/view/movie_poster_cover/ipst/public/p453198997.jpg
p525
asg5
Vhttps://movie.douban.com/subject/1292528/
p526
sa(dp527
g2
(lp528
Vhttps://img3.doubanio.com/view/movie_poster_cover/ipst/public/p2159368352.jpg
p529
asg5
Vhttps://movie.douban.com/subject/1291822/
p530
sa(dp531
g2
(lp532
Vhttps://img1.doubanio.com/view/movie_poster_cover/ipst/public/p480225538.jpg
p533
asg5
Vhttps://movie.douban.com/subject/1300299/
p534
sa(dp535
g2
(lp536
Vhttps://img3.doubanio.com/view/movie_poster_cover/ipst/public/p719282906.jpg
p537
asg5
Vhttps://movie.douban.com/subject/1978709/
p538
sa(dp539
g2
(lp540
Vhttps://img3.doubanio.com/view/movie_poster_cover/ipst/public/p2221768894.jpg
p541
asg5
Vhttps://movie.douban.com/subject/21318488/
p542
sa(dp543
g2
(lp544
Vhttps://img3.doubanio.com/view/movie_poster_cover/ipst/public/p2016930906.jpg
p545
asg5
Vhttps://movie.douban.com/subject/21360417/
p546
sa(dp547
g2
(lp548
Vhttps://img3.doubanio.com/view/movie_poster_cover/ipst/public/p452005185.jpg
p549
asg5
Vhttps://movie.douban.com/subject/1418200/
p550
sa(dp551
g2
(lp552
Vhttps://img3.doubanio.com/view/movie_poster_cover/ipst/public/p792403691.jpg
p553
asg5
Vhttps://movie.douban.com/subject/1300992/
p554
sa(dp555
g2
(lp556
Vhttps://img3.doubanio.com/view/movie_poster_cover/ipst/public/p2169664351.jpg
p557
asg5
Vhttps://movie.douban.com/subject/1294240/
p558
sa(dp559
g2
(lp560
Vhttps://img3.doubanio.com/view/movie_poster_cover/ipst/public/p982896012.jpg
p561
asg5
Vhttps://movie.douban.com/subject/2043546/
p562
sa(dp563
g2
(lp564
Vhttps://img1.doubanio.com/view/movie_poster_cover/ipst/public/p1283675359.jpg
p565
asg5
Vhttps://movie.douban.com/subject/1858711/
p566
sa(dp567
g2
(lp568
Vhttps://img3.doubanio.com/view/movie_poster_cover/ipst/public/p672363704.jpg
p569
asg5
Vhttps://movie.douban.com/subject/1865703/
p570
sa(dp571
g2
(lp572
Vhttps://img3.doubanio.com/view/movie_poster_cover/ipst/public/p2157672975.jpg
p573
asg5
Vhttps://movie.douban.com/subject/1297574/
p574
sa(dp575
g2
(lp576
Vhttps://img3.doubanio.com/view/movie_poster_cover/ipst/public/p652417775.jpg
p577
asg5
Vhttps://movie.douban.com/subject/1306861/
p578
sa(dp579
g2
(lp580
Vhttps://img1.doubanio.com/view/movie_poster_cover/ipst/public/p792257137.jpg
p581
asg5
Vhttps://movie.douban.com/subject/1302827/
p582
sa(dp583
g2
(lp584
Vhttps://img3.doubanio.com/view/movie_poster_cover/ipst/public/p1612355875.jpg
p585
asg5
Vhttps://movie.douban.com/subject/1293460/
p586
sa(dp587
g2
(lp588
Vhttps://img1.doubanio.com/view/movie_poster_cover/ipst/public/p933122297.jpg
p589
asg5
Vhttps://movie.douban.com/subject/1295409/
p590
sa(dp591
g2
(lp592
Vhttps://img1.doubanio.com/view/movie_poster_cover/ipst/public/p470006658.jpg
p593
asg5
Vhttps://movie.douban.com/subject/1760622/
p594
sa(dp595
g2
(lp596
Vhttps://img1.doubanio.com/view/movie_poster_cover/ipst/public/p1910895719.jpg
p597
asg5
Vhttps://movie.douban.com/subject/1291578/
p598
sa(dp599
g2
(lp600
Vhttps://img3.doubanio.com/view/movie_poster_cover/ipst/public/p2075132390.jpg
p601
asg5
Vhttps://movie.douban.com/subject/1388216/
p602
sa(dp603
g2
(lp604
Vhttps://img1.doubanio.com/view/movie_poster_cover/ipst/public/p1272904657.jpg
p605
asg5
Vhttps://movie.douban.com/subject/5989818/
p606
sa(dp607
g2
(lp608
Vhttps://img3.doubanio.com/view/movie_poster_cover/ipst/public/p1344888983.jpg
p609
asg5
Vhttps://movie.douban.com/subject/2297265/
p610
sa(dp611
g2
(lp612
Vhttps://img3.doubanio.com/view/movie_poster_cover/ipst/public/p2173713676.jpg
p613
asg5
Vhttps://movie.douban.com/subject/1303037/
p614
sa(dp615
g2
(lp616
Vhttps://img1.doubanio.com/view/movie_poster_cover/ipst/public/p455724599.jpg
p617
asg5
Vhttps://movie.douban.com/subject/1300960/
p618
sa(dp619
g2
(lp620
Vhttps://img1.doubanio.com/view/movie_poster_cover/ipst/public/p1140984198.jpg
p621
asg5
Vhttps://movie.douban.com/subject/2213597/
p622
sa(dp623
g2
(lp624
Vhttps://img3.doubanio.com/view/movie_poster_cover/ipst/public/p2074443514.jpg
p625
asg5
Vhttps://movie.douban.com/subject/1397546/
p626
sa(dp627
g2
(lp628
Vhttps://img3.doubanio.com/view/movie_poster_cover/ipst/public/p769608791.jpg
p629
asg5
Vhttps://movie.douban.com/subject/3007773/
p630
sa(dp631
g2
(lp632
Vhttps://img3.doubanio.com/view/movie_poster_cover/ipst/public/p1159398311.jpg
p633
asg5
Vhttps://movie.douban.com/subject/1308857/
p634
sa(dp635
g2
(lp636
Vhttps://img3.doubanio.com/view/movie_poster_cover/ipst/public/p2221319641.jpg
p637
asg5
Vhttps://movie.douban.com/subject/25814705/
p638
sa(dp639
g2
(lp640
Vhttps://img3.doubanio.com/view/movie_poster_cover/ipst/public/p884936202.jpg
p641
asg5
Vhttps://movie.douban.com/subject/1292270/
p642
sa(dp643
g2
(lp644
Vhttps://img3.doubanio.com/view/movie_poster_cover/ipst/public/p453719066.jpg
p645
asg5
Vhttps://movie.douban.com/subject/1419936/
p646
sa(dp647
g2
(lp648
Vhttps://img3.doubanio.com/view/movie_poster_cover/ipst/public/p917846733.jpg
p649
asg5
Vhttps://movie.douban.com/subject/3011235/
p650
sa(dp651
g2
(lp652
Vhttps://img1.doubanio.com/view/movie_poster_cover/ipst/public/p1864872647.jpg
p653
asg5
Vhttps://movie.douban.com/subject/1291879/
p654
sa(dp655
g2
(lp656
Vhttps://img3.doubanio.com/view/movie_poster_cover/ipst/public/p1816276065.jpg
p657
asg5
Vhttps://movie.douban.com/subject/10777687/
p658
sa(dp659
g2
(lp660
Vhttps://img3.doubanio.com/view/movie_poster_cover/ipst/public/p1043597424.jpg
p661
asg5
Vhttps://movie.douban.com/subject/1302425/
p662
sa(dp663
g2
(lp664
Vhttps://img1.doubanio.com/view/movie_poster_cover/ipst/public/p2238274168.jpg
p665
asg5
Vhttps://movie.douban.com/subject/1292281/
p666
sa(dp667
g2
(lp668
Vhttps://img1.doubanio.com/view/movie_poster_cover/ipst/public/p465687407.jpg
p669
asg5
Vhttps://movie.douban.com/subject/1905462/
p670
sa(dp671
g2
(lp672
Vhttps://img3.doubanio.com/view/movie_poster_cover/ipst/public/p2189835254.jpg
p673
asg5
Vhttps://movie.douban.com/subject/5964718/
p674
sa(dp675
g2
(lp676
Vhttps://img3.doubanio.com/view/movie_poster_cover/ipst/public/p1910828286.jpg
p677
asg5
Vhttps://movie.douban.com/subject/1291557/
p678
sa(dp679
g2
(lp680
Vhttps://img3.doubanio.com/view/movie_poster_cover/ipst/public/p1597183981.jpg
p681
asg5
Vhttps://movie.douban.com/subject/1304102/
p682
sa(dp683
g2
(lp684
Vhttps://img3.doubanio.com/view/movie_poster_cover/ipst/public/p667644866.jpg
p685
asg5
Vhttps://movie.douban.com/subject/1308767/
p686
sa(dp687
g2
(lp688
Vhttps://img3.doubanio.com/view/movie_poster_cover/ipst/public/p636048104.jpg
p689
asg5
Vhttps://movie.douban.com/subject/1292728/
p690
sa(dp691
g2
(lp692
Vhttps://img3.doubanio.com/view/movie_poster_cover/ipst/public/p2070153774.jpg
p693
asg5
Vhttps://movie.douban.com/subject/10577869/
p694
sa(dp695
g2
(lp696
Vhttps://img3.doubanio.com/view/movie_poster_cover/ipst/public/p767586451.jpg
p697
asg5
Vhttps://movie.douban.com/subject/1300374/
p698
sa(dp699
g2
(lp700
Vhttps://img3.doubanio.com/view/movie_poster_cover/ipst/public/p532195562.jpg
p701
asg5
Vhttps://movie.douban.com/subject/1307793/
p702
sa(dp703
g2
(lp704
Vhttps://img3.doubanio.com/view/movie_poster_cover/ipst/public/p1973489335.jpg
p705
asg5
Vhttps://movie.douban.com/subject/2363506/
p706
sa(dp707
g2
(lp708
Vhttps://img3.doubanio.com/view/movie_poster_cover/ipst/public/p1244791866.jpg
p709
asg5
Vhttps://movie.douban.com/subject/1296753/
p710
sa(dp711
g2
(lp712
Vhttps://img3.doubanio.com/view/movie_poster_cover/ipst/public/p2275298525.jpg
p713
asg5
Vhttps://movie.douban.com/subject/25917973/
p714
sa(dp715
g2
(lp716
Vhttps://img3.doubanio.com/view/movie_poster_cover/ipst/public/p1946455272.jpg
p717
asg5
Vhttps://movie.douban.com/subject/1306249/
p718
sa(dp719
g2
(lp720
Vhttps://img3.doubanio.com/view/movie_poster_cover/ipst/public/p453791074.jpg
p721
asg5
Vhttps://movie.douban.com/subject/1291853/
p722
sa(dp723
g2
(lp724
Vhttps://img3.doubanio.com/view/movie_poster_cover/ipst/public/p924558512.jpg
p725
asg5
Vhttps://movie.douban.com/subject/1305690/
p726
sa(dp727
g2
(lp728
Vhttps://img1.doubanio.com/view/movie_poster_cover/ipst/public/p628364149.jpg
p729
asg5
Vhttps://movie.douban.com/subject/4798888/
p730
sa(dp731
g2
(lp732
Vhttps://img3.doubanio.com/view/movie_poster_cover/ipst/public/p2173855883.jpg
p733
asg5
Vhttps://movie.douban.com/subject/1292659/
p734
sa(dp735
g2
(lp736
Vhttps://img1.doubanio.com/view/movie_poster_cover/ipst/public/p2224568669.jpg
p737
asg5
Vhttps://movie.douban.com/subject/11026735/
p738
sa(dp739
g2
(lp740
Vhttps://img3.doubanio.com/view/movie_poster_cover/ipst/public/p1021883305.jpg
p741
asg5
Vhttps://movie.douban.com/subject/1293181/
p742
sa(dp743
g2
(lp744
Vhttps://img3.doubanio.com/view/movie_poster_cover/ipst/public/p513303986.jpg
p745
asg5
Vhttps://movie.douban.com/subject/2300586/
p746
sa(dp747
g2
(lp748
Vhttps://img3.doubanio.com/view/movie_poster_cover/ipst/public/p1706428744.jpg
p749
asg5
Vhttps://movie.douban.com/subject/3395373/
p750
sa(dp751
g2
(lp752
Vhttps://img3.doubanio.com/view/movie_poster_cover/ipst/public/p462470694.jpg
p753
asg5
Vhttps://movie.douban.com/subject/3011051/
p754
sa(dp755
g2
(lp756
Vhttps://img3.doubanio.com/view/movie_poster_cover/ipst/public/p456676352.jpg
p757
asg5
Vhttps://movie.douban.com/subject/1307811/
p758
sa(dp759
g2
(lp760
Vhttps://img3.doubanio.com/view/movie_poster_cover/ipst/public/p792248233.jpg
p761
asg5
Vhttps://movie.douban.com/subject/1292217/
p762
sa(dp763
g2
(lp764
Vhttps://img3.doubanio.com/view/movie_poster_cover/ipst/public/p984732992.jpg
p765
asg5
Vhttps://movie.douban.com/subject/1294638/
p766
sa(dp767
g2
(lp768
Vhttps://img3.doubanio.com/view/movie_poster_cover/ipst/public/p2250287733.jpg
p769
asg5
Vhttps://movie.douban.com/subject/6874403/
p770
sa(dp771
g2
(lp772
Vhttps://img3.doubanio.com/view/movie_poster_cover/ipst/public/p1910909085.jpg
p773
asg5
Vhttps://movie.douban.com/subject/1291844/
p774
sa(dp775
g2
(lp776
Vhttps://img3.doubanio.com/view/movie_poster_cover/ipst/public/p529908155.jpg
p777
asg5
Vhttps://movie.douban.com/subject/1292233/
p778
sa(dp779
g2
(lp780
Vhttps://img3.doubanio.com/view/movie_poster_cover/ipst/public/p470383576.jpg
p781
asg5
Vhttps://movie.douban.com/subject/1292214/
p782
sa(dp783
g2
(lp784
Vhttps://img3.doubanio.com/view/movie_poster_cover/ipst/public/p1910832390.jpg
p785
asg5
Vhttps://movie.douban.com/subject/1291568/
p786
sa(dp787
g2
(lp788
Vhttps://img1.doubanio.com/view/movie_poster_cover/ipst/public/p2163636038.jpg
p789
asg5
Vhttps://movie.douban.com/subject/1307315/
p790
sa(dp791
g2
(lp792
Vhttps://img1.doubanio.com/view/movie_poster_cover/ipst/public/p2173719647.jpg
p793
asg5
Vhttps://movie.douban.com/subject/1297478/
p794
sa(dp795
g2
(lp796
Vhttps://img3.doubanio.com/view/movie_poster_cover/ipst/public/p2173720203.jpg
p797
asg5
Vhttps://movie.douban.com/subject/2053515/
p798
sa(dp799
g2
(lp800
Vhttps://img1.doubanio.com/view/movie_poster_cover/ipst/public/p2166160837.jpg
p801
asg5
Vhttps://movie.douban.com/subject/1793929/
p802
sa(dp803
g2
(lp804
Vhttps://img3.doubanio.com/view/movie_poster_cover/ipst/public/p794583044.jpg
p805
asg5
Vhttps://movie.douban.com/subject/1291992/
p806
sa(dp807
g2
(lp808
Vhttps://img3.doubanio.com/view/movie_poster_cover/ipst/public/p988260245.jpg
p809
asg5
Vhttps://movie.douban.com/subject/3075287/
p810
sa(dp811
g2
(lp812
Vhttps://img3.doubanio.com/view/movie_poster_cover/ipst/public/p2107418134.jpg
p813
asg5
Vhttps://movie.douban.com/subject/1299361/
p814
sa(dp815
g2
(lp816
Vhttps://img3.doubanio.com/view/movie_poster_cover/ipst/public/p571671715.jpg
p817
asg5
Vhttps://movie.douban.com/subject/1292062/
p818
sa(dp819
g2
(lp820
Vhttps://img1.doubanio.com/view/movie_poster_cover/ipst/public/p1959232369.jpg
p821
asg5
Vhttps://movie.douban.com/subject/6307447/
p822
sa(dp823
g2
(lp824
Vhttps://img3.doubanio.com/view/movie_poster_cover/ipst/public/p1576418852.jpg
p825
asg5
Vhttps://movie.douban.com/subject/1959195/
p826
sa(dp827
g2
(lp828
Vhttps://img3.doubanio.com/view/movie_poster_cover/ipst/public/p2192834364.jpg
p829
asg5
Vhttps://movie.douban.com/subject/24750126/
p830
sa(dp831
g2
(lp832
Vhttps://img3.doubanio.com/view/movie_poster_cover/ipst/public/p584822570.jpg
p833
asg5
Vhttps://movie.douban.com/subject/1308575/
p834
sa(dp835
g2
(lp836
Vhttps://img3.doubanio.com/view/movie_poster_cover/ipst/public/p455472580.jpg
p837
asg5
Vhttps://movie.douban.com/subject/1308817/
p838
sa(dp839
g2
(lp840
Vhttps://img1.doubanio.com/view/movie_poster_cover/ipst/public/p443461818.jpg
p841
asg5
Vhttps://movie.douban.com/subject/1302467/
p842
sa(dp843
g2
(lp844
Vhttps://img1.doubanio.com/view/movie_poster_cover/ipst/public/p1421018669.jpg
p845
asg5
Vhttps://movie.douban.com/subject/1292287/
p846
sa(dp847
g2
(lp848
Vhttps://img1.doubanio.com/view/movie_poster_cover/ipst/public/p2101693489.jpg
p849
asg5
Vhttps://movie.douban.com/subject/1401118/
p850
sa(dp851
g2
(lp852
Vhttps://img3.doubanio.com/view/movie_poster_cover/ipst/public/p848381236.jpg
p853
asg5
Vhttps://movie.douban.com/subject/1292329/
p854
sa(dp855
g2
(lp856
Vhttps://img3.doubanio.com/view/movie_poster_cover/ipst/public/p1505312273.jpg
p857
asg5
Vhttps://movie.douban.com/subject/4739952/
p858
sa(dp859
g2
(lp860
Vhttps://img3.doubanio.com/view/movie_poster_cover/ipst/public/p1145536386.jpg
p861
asg5
Vhttps://movie.douban.com/subject/3217169/
p862
sa(dp863
g2
(lp864
Vhttps://img3.doubanio.com/view/movie_poster_cover/ipst/public/p584021784.jpg
p865
asg5
Vhttps://movie.douban.com/subject/1303394/
p866
sa(dp867
g2
(lp868
Vhttps://img3.doubanio.com/view/movie_poster_cover/ipst/public/p1451436171.jpg
p869
asg5
Vhttps://movie.douban.com/subject/1292056/
p870
sa(dp871
g2
(lp872
Vhttps://img3.doubanio.com/view/movie_poster_cover/ipst/public/p770734475.jpg
p873
asg5
Vhttps://movie.douban.com/subject/1438652/
p874
sa(dp875
g2
(lp876
Vhttps://img3.doubanio.com/view/movie_poster_cover/ipst/public/p479565065.jpg
p877
asg5
Vhttps://movie.douban.com/subject/1308777/
p878
sa(dp879
g2
(lp880
Vhttps://img1.doubanio.com/view/movie_poster_cover/ipst/public/p465446537.jpg
p881
asg5
Vhttps://movie.douban.com/subject/3157605/
p882
sa(dp883
g2
(lp884
Vhttps://img3.doubanio.com/view/movie_poster_cover/ipst/public/p804938713.jpg
p885
asg5
Vhttps://movie.douban.com/subject/1302476/
p886
sa(dp887
g2
(lp888
Vhttps://img1.doubanio.com/view/movie_poster_cover/ipst/public/p1024585648.jpg
p889
asg5
Vhttps://movie.douban.com/subject/2365260/
p890
sa(dp891
g2
(lp892
Vhttps://img1.doubanio.com/view/movie_poster_cover/ipst/public/p499158228.jpg
p893
asg5
Vhttps://movie.douban.com/subject/1293764/
p894
sa(dp895
g2
(lp896
Vhttps://img3.doubanio.com/view/movie_poster_cover/ipst/public/p1351050722.jpg
p897
asg5
Vhttps://movie.douban.com/subject/1395091/
p898
sa(dp899
g2
(lp900
Vhttps://img3.doubanio.com/view/movie_poster_cover/ipst/public/p2099815842.jpg
p901
asg5
Vhttps://movie.douban.com/subject/1293908/
p902
sa(dp903
g2
(lp904
Vhttps://img3.doubanio.com/view/movie_poster_cover/ipst/public/p1353910572.jpg
p905
asg5
Vhttps://movie.douban.com/subject/1299327/
p906
sa(dp907
g2
(lp908
Vhttps://img3.doubanio.com/view/movie_poster_cover/ipst/public/p1735642656.jpg
p909
asg5
Vhttps://movie.douban.com/subject/6534248/
p910
sa(dp911
g2
(lp912
Vhttps://img3.doubanio.com/view/movie_poster_cover/ipst/public/p2239441575.jpg
p913
asg5
Vhttps://movie.douban.com/subject/1292218/
p914
sa(dp915
g2
(lp916
Vhttps://img3.doubanio.com/view/movie_poster_cover/ipst/public/p708613284.jpg
p917
asg5
Vhttps://movie.douban.com/subject/1867345/
p918
sa(dp919
g2
(lp920
Vhttps://img1.doubanio.com/view/movie_poster_cover/ipst/public/p616753227.jpg
p921
asg5
Vhttps://movie.douban.com/subject/1301171/
p922
sa(dp923
g2
(lp924
Vhttps://img1.doubanio.com/view/movie_poster_cover/ipst/public/p2186861098.jpg
p925
asg5
Vhttps://movie.douban.com/subject/1305725/
p926
sa(dp927
g2
(lp928
Vhttps://img1.doubanio.com/view/movie_poster_cover/ipst/public/p2173716829.jpg
p929
asg5
Vhttps://movie.douban.com/subject/1309027/
p930
sa(dp931
g2
(lp932
Vhttps://img1.doubanio.com/view/movie_poster_cover/ipst/public/p768879237.jpg
p933
asg5
Vhttps://movie.douban.com/subject/4023638/
p934
sa(dp935
g2
(lp936
Vhttps://img3.doubanio.com/view/movie_poster_cover/ipst/public/p2220776342.jpg
p937
asg5
Vhttps://movie.douban.com/subject/25773932/
p938
sa(dp939
g2
(lp940
Vhttps://img1.doubanio.com/view/movie_poster_cover/ipst/public/p554741987.jpg
p941
asg5
Vhttps://movie.douban.com/subject/1428175/
p942
sa(dp943
g2
(lp944
Vhttps://img1.doubanio.com/view/movie_poster_cover/ipst/public/p1341248319.jpg
p945
asg5
Vhttps://movie.douban.com/subject/1298653/
p946
sa(dp947
g2
(lp948
Vhttps://img3.doubanio.com/view/movie_poster_cover/ipst/public/p449399746.jpg
p949
asg5
Vhttps://movie.douban.com/subject/3073124/
p950
sa(dp951
g2
(lp952
Vhttps://img3.doubanio.com/view/movie_poster_cover/ipst/public/p1528763106.jpg
p953
asg5
Vhttps://movie.douban.com/subject/6146955/
p954
sa(dp955
g2
(lp956
Vhttps://img1.doubanio.com/view/movie_poster_cover/ipst/public/p2215147728.jpg
p957
asg5
Vhttps://movie.douban.com/subject/25814707/
p958
sa(dp959
g2
(lp960
Vhttps://img3.doubanio.com/view/movie_poster_cover/ipst/public/p2195672555.jpg
p961
asg5
Vhttps://movie.douban.com/subject/1300117/
p962
sa(dp963
g2
(lp964
Vhttps://img1.doubanio.com/view/movie_poster_cover/ipst/public/p1075591188.jpg
p965
asg5
Vhttps://movie.douban.com/subject/5908478/
p966
sa(dp967
g2
(lp968
Vhttps://img3.doubanio.com/view/movie_poster_cover/ipst/public/p1538646661.jpg
p969
asg5
Vhttps://movie.douban.com/subject/1300741/
p970
sa(dp971
g2
(lp972
Vhttps://img3.doubanio.com/view/movie_poster_cover/ipst/public/p1601948450.jpg
p973
asg5
Vhttps://movie.douban.com/subject/1293530/
p974
sa(dp975
g2
(lp976
Vhttps://img3.doubanio.com/view/movie_poster_cover/ipst/public/p616768086.jpg
p977
asg5
Vhttps://movie.douban.com/subject/1293929/
p978
sa(dp979
g2
(lp980
Vhttps://img3.doubanio.com/view/movie_poster_cover/ipst/public/p1233612794.jpg
p981
asg5
Vhttps://movie.douban.com/subject/1316572/
p982
sa(dp983
g2
(lp984
Vhttps://img3.doubanio.com/view/movie_poster_cover/ipst/public/p712241453.jpg
p985
asg5
Vhttps://movie.douban.com/subject/1862151/
p986
sa(dp987
g2
(lp988
Vhttps://img3.doubanio.com/view/movie_poster_cover/ipst/public/p2175712032.jpg
p989
asg5
Vhttps://movie.douban.com/subject/1301617/
p990
sa(dp991
g2
(lp992
Vhttps://img3.doubanio.com/view/movie_poster_cover/ipst/public/p479746811.jpg
p993
asg5
Vhttps://movie.douban.com/subject/1304073/
p994
sa(dp995
g2
(lp996
Vhttps://img3.doubanio.com/view/movie_poster_cover/ipst/public/p2173725381.jpg
p997
asg5
Vhttps://movie.douban.com/subject/1756073/
p998
sa(dp999
g2
(lp1000
Vhttps://img3.doubanio.com/view/movie_poster_cover/ipst/public/p898634801.jpg
p1001
asg5
Vhttps://movie.douban.com/subject/4286017/
p1002
sa.