(dp0
Vloveirina
p1
(dp2
S'num_collect'
p3
I2139
sS'wish_link'
p4
Vhttps://movie.douban.com/people/loveirina/wish
p5
sS'num_wish'
p6
I134
sS'collect_link'
p7
Vhttps://movie.douban.com/people/loveirina/collect
p8
ssVvivianflower
p9
(dp10
S'num_collect'
p11
I1975
sS'wish_link'
p12
Vhttps://movie.douban.com/people/vivianflower/wish
p13
sS'num_wish'
p14
I505
sS'collect_link'
p15
Vhttps://movie.douban.com/people/vivianflower/collect
p16
ssVbianshajia
p17
(dp18
g11
I1800
sg12
Vhttps://movie.douban.com/people/bianshajia/wish
p19
sg14
I394
sg15
Vhttps://movie.douban.com/people/bianshajia/collect
p20
ssVwanderingizzie
p21
(dp22
g11
I943
sg12
Vhttps://movie.douban.com/people/wanderingizzie/wish
p23
sg14
I104
sg15
Vhttps://movie.douban.com/people/wanderingizzie/collect
p24
ssVdou_1223
p25
(dp26
g3
I591
sg4
Vhttps://movie.douban.com/people/dou_1223/wish
p27
sg6
I60
sg7
Vhttps://movie.douban.com/people/dou_1223/collect
p28
ssVqfox
p29
(dp30
g11
I1251
sg12
Vhttps://movie.douban.com/people/qfox/wish
p31
sg14
I209
sg15
Vhttps://movie.douban.com/people/qfox/collect
p32
ssVlovekym
p33
(dp34
g11
I562
sg12
Vhttps://movie.douban.com/people/lovekym/wish
p35
sg14
I85
sg15
Vhttps://movie.douban.com/people/lovekym/collect
p36
ssViriSheen
p37
(dp38
g11
I822
sg12
Vhttps://movie.douban.com/people/iriSheen/wish
p39
sg14
I77
sg15
Vhttps://movie.douban.com/people/iriSheen/collect
p40
ssVodette7
p41
(dp42
g11
I825
sg12
Vhttps://movie.douban.com/people/odette7/wish
p43
sg14
I294
sg15
Vhttps://movie.douban.com/people/odette7/collect
p44
ssVyiyi0806
p45
(dp46
g11
I510
sg12
Vhttps://movie.douban.com/people/yiyi0806/wish
p47
sg14
I159
sg15
Vhttps://movie.douban.com/people/yiyi0806/collect
p48
ssVyezhan
p49
(dp50
g11
I663
sg12
Vhttps://movie.douban.com/people/yezhan/wish
p51
sg14
I152
sg15
Vhttps://movie.douban.com/people/yezhan/collect
p52
ssVyounor
p53
(dp54
g11
I683
sg12
Vhttps://movie.douban.com/people/younor/wish
p55
sg14
I101
sg15
Vhttps://movie.douban.com/people/younor/collect
p56
ssVyummieyang
p57
(dp58
g11
I689
sg12
Vhttps://movie.douban.com/people/yummieyang/wish
p59
sg14
I134
sg15
Vhttps://movie.douban.com/people/yummieyang/collect
p60
ssVmint_pegasus
p61
(dp62
g3
I1129
sg4
Vhttps://movie.douban.com/people/mint_pegasus/wish
p63
sg6
I67
sg7
Vhttps://movie.douban.com/people/mint_pegasus/collect
p64
ssVdelmar
p65
(dp66
g11
I1870
sg12
Vhttps://movie.douban.com/people/delmar/wish
p67
sg14
I90
sg15
Vhttps://movie.douban.com/people/delmar/collect
p68
ssVkunfish
p69
(dp70
g3
I598
sg4
Vhttps://movie.douban.com/people/kunfish/wish
p71
sg6
I389
sg7
Vhttps://movie.douban.com/people/kunfish/collect
p72
ssV49898350
p73
(dp74
g11
I692
sg12
Vhttps://movie.douban.com/people/49898350/wish
p75
sg14
I458
sg15
Vhttps://movie.douban.com/people/49898350/collect
p76
ssVtassadar
p77
(dp78
g3
I784
sg4
Vhttps://movie.douban.com/people/tassadar/wish
p79
sg6
I60
sg7
Vhttps://movie.douban.com/people/tassadar/collect
p80
ssV78862155
p81
(dp82
g11
I575
sg12
Vhttps://movie.douban.com/people/78862155/wish
p83
sg14
I282
sg15
Vhttps://movie.douban.com/people/78862155/collect
p84
ssVedogawaconan
p85
(dp86
g11
I525
sg12
Vhttps://movie.douban.com/people/edogawaconan/wish
p87
sg14
I469
sg15
Vhttps://movie.douban.com/people/edogawaconan/collect
p88
ssVdd770523
p89
(dp90
g11
I1351
sg12
Vhttps://movie.douban.com/people/dd770523/wish
p91
sg14
I334
sg15
Vhttps://movie.douban.com/people/dd770523/collect
p92
ssViguazuuuuu
p93
(dp94
g11
I1050
sg12
Vhttps://movie.douban.com/people/iguazuuuuu/wish
p95
sg14
I328
sg15
Vhttps://movie.douban.com/people/iguazuuuuu/collect
p96
ssV56274081
p97
(dp98
g11
I1050
sg12
Vhttps://movie.douban.com/people/56274081/wish
p99
sg14
I111
sg15
Vhttps://movie.douban.com/people/56274081/collect
p100
ssVstememory
p101
(dp102
g11
I655
sg12
Vhttps://movie.douban.com/people/stememory/wish
p103
sg14
I483
sg15
Vhttps://movie.douban.com/people/stememory/collect
p104
ssVvilentina
p105
(dp106
g11
I836
sg12
Vhttps://movie.douban.com/people/vilentina/wish
p107
sg14
I557
sg15
Vhttps://movie.douban.com/people/vilentina/collect
p108
ssVcookiecutter
p109
(dp110
g11
I501
sg12
Vhttps://movie.douban.com/people/cookiecutter/wish
p111
sg14
I161
sg15
Vhttps://movie.douban.com/people/cookiecutter/collect
p112
ssVmydear1011
p113
(dp114
g11
I4306
sg12
Vhttps://movie.douban.com/people/mydear1011/wish
p115
sg14
I4062
sg15
Vhttps://movie.douban.com/people/mydear1011/collect
p116
ssValualu
p117
(dp118
g11
I529
sg12
Vhttps://movie.douban.com/people/alualu/wish
p119
sg14
I170
sg15
Vhttps://movie.douban.com/people/alualu/collect
p120
ssVst0mach
p121
(dp122
g3
I640
sg4
Vhttps://movie.douban.com/people/st0mach/wish
p123
sg6
I191
sg7
Vhttps://movie.douban.com/people/st0mach/collect
p124
ssVLodgerly
p125
(dp126
g11
I629
sg12
Vhttps://movie.douban.com/people/Lodgerly/wish
p127
sg14
I141
sg15
Vhttps://movie.douban.com/people/Lodgerly/collect
p128
ssVwuhaoyu
p129
(dp130
g11
I559
sg12
Vhttps://movie.douban.com/people/wuhaoyu/wish
p131
sg14
I241
sg15
Vhttps://movie.douban.com/people/wuhaoyu/collect
p132
ssVsodaorchid
p133
(dp134
g11
I1654
sg12
Vhttps://movie.douban.com/people/sodaorchid/wish
p135
sg14
I323
sg15
Vhttps://movie.douban.com/people/sodaorchid/collect
p136
ssVnqhp
p137
(dp138
g11
I894
sg12
Vhttps://movie.douban.com/people/nqhp/wish
p139
sg14
I226
sg15
Vhttps://movie.douban.com/people/nqhp/collect
p140
ssVasiapan
p141
(dp142
g11
I538
sg12
Vhttps://movie.douban.com/people/asiapan/wish
p143
sg14
I96
sg15
Vhttps://movie.douban.com/people/asiapan/collect
p144
ssV3558557
p145
(dp146
g11
I1055
sg12
Vhttps://movie.douban.com/people/3558557/wish
p147
sg14
I75
sg15
Vhttps://movie.douban.com/people/3558557/collect
p148
ssVLHK
p149
(dp150
g11
I763
sg12
Vhttps://movie.douban.com/people/LHK/wish
p151
sg14
I77
sg15
Vhttps://movie.douban.com/people/LHK/collect
p152
ssVNo5fish
p153
(dp154
g11
I959
sg12
Vhttps://movie.douban.com/people/No5fish/wish
p155
sg14
I143
sg15
Vhttps://movie.douban.com/people/No5fish/collect
p156
ssV2780985
p157
(dp158
g11
I564
sg12
Vhttps://movie.douban.com/people/2780985/wish
p159
sg14
I251
sg15
Vhttps://movie.douban.com/people/2780985/collect
p160
ssV37051802
p161
(dp162
g11
I1111
sg12
Vhttps://movie.douban.com/people/37051802/wish
p163
sg14
I1092
sg15
Vhttps://movie.douban.com/people/37051802/collect
p164
ssVhotowl
p165
(dp166
g3
I647
sg4
Vhttps://movie.douban.com/people/hotowl/wish
p167
sg6
I302
sg7
Vhttps://movie.douban.com/people/hotowl/collect
p168
ssVkleinesonne
p169
(dp170
g11
I512
sg12
Vhttps://movie.douban.com/people/kleinesonne/wish
p171
sg14
I238
sg15
Vhttps://movie.douban.com/people/kleinesonne/collect
p172
ssV48781656
p173
(dp174
g11
I570
sg12
Vhttps://movie.douban.com/people/48781656/wish
p175
sg14
I214
sg15
Vhttps://movie.douban.com/people/48781656/collect
p176
ssValexfagn
p177
(dp178
g3
I846
sg4
Vhttps://movie.douban.com/people/alexfagn/wish
p179
sg6
I76
sg7
Vhttps://movie.douban.com/people/alexfagn/collect
p180
ssV59504522
p181
(dp182
g3
I1122
sg4
Vhttps://movie.douban.com/people/59504522/wish
p183
sg6
I243
sg7
Vhttps://movie.douban.com/people/59504522/collect
p184
ssVSydneyCarton
p185
(dp186
g3
I2911
sg4
Vhttps://movie.douban.com/people/SydneyCarton/wish
p187
sg6
I424
sg7
Vhttps://movie.douban.com/people/SydneyCarton/collect
p188
ssV2961295
p189
(dp190
g11
I520
sg12
Vhttps://movie.douban.com/people/2961295/wish
p191
sg14
I129
sg15
Vhttps://movie.douban.com/people/2961295/collect
p192
ssVdemi.rabbit
p193
(dp194
g11
I790
sg12
Vhttps://movie.douban.com/people/demi.rabbit/wish
p195
sg14
I87
sg15
Vhttps://movie.douban.com/people/demi.rabbit/collect
p196
ssVFEL_Murasakiiro
p197
(dp198
g11
I2184
sg12
Vhttps://movie.douban.com/people/FEL_Murasakiiro/wish
p199
sg14
I4494
sg15
Vhttps://movie.douban.com/people/FEL_Murasakiiro/collect
p200
ssVyuchimuku
p201
(dp202
g11
I1609
sg12
Vhttps://movie.douban.com/people/yuchimuku/wish
p203
sg14
I1351
sg15
Vhttps://movie.douban.com/people/yuchimuku/collect
p204
ssV3949776
p205
(dp206
g11
I1391
sg12
Vhttps://movie.douban.com/people/3949776/wish
p207
sg14
I73
sg15
Vhttps://movie.douban.com/people/3949776/collect
p208
ssVxiaoyaozizai
p209
(dp210
g11
I1076
sg12
Vhttps://movie.douban.com/people/xiaoyaozizai/wish
p211
sg14
I225
sg15
Vhttps://movie.douban.com/people/xiaoyaozizai/collect
p212
ssVzdm
p213
(dp214
g3
I1300
sg4
Vhttps://movie.douban.com/people/zdm/wish
p215
sg6
I444
sg7
Vhttps://movie.douban.com/people/zdm/collect
p216
ssVwishdan
p217
(dp218
g11
I1323
sg12
Vhttps://movie.douban.com/people/wishdan/wish
p219
sg14
I508
sg15
Vhttps://movie.douban.com/people/wishdan/collect
p220
ssV45660032
p221
(dp222
g11
I588
sg12
Vhttps://movie.douban.com/people/45660032/wish
p223
sg14
I159
sg15
Vhttps://movie.douban.com/people/45660032/collect
p224
ssVsummer11007
p225
(dp226
g11
I810
sg12
Vhttps://movie.douban.com/people/summer11007/wish
p227
sg14
I201
sg15
Vhttps://movie.douban.com/people/summer11007/collect
p228
ssVwhiteloveswhite
p229
(dp230
g11
I1596
sg12
Vhttps://movie.douban.com/people/whiteloveswhite/wish
p231
sg14
I233
sg15
Vhttps://movie.douban.com/people/whiteloveswhite/collect
p232
ssVshuang1230
p233
(dp234
g3
I527
sg4
Vhttps://movie.douban.com/people/shuang1230/wish
p235
sg6
I359
sg7
Vhttps://movie.douban.com/people/shuang1230/collect
p236
ssVdreammakers
p237
(dp238
g11
I786
sg12
Vhttps://movie.douban.com/people/dreammakers/wish
p239
sg14
I100
sg15
Vhttps://movie.douban.com/people/dreammakers/collect
p240
ssVLunaSnape
p241
(dp242
g11
I738
sg12
Vhttps://movie.douban.com/people/LunaSnape/wish
p243
sg14
I701
sg15
Vhttps://movie.douban.com/people/LunaSnape/collect
p244
ssV55835124
p245
(dp246
g11
I562
sg12
Vhttps://movie.douban.com/people/55835124/wish
p247
sg14
I211
sg15
Vhttps://movie.douban.com/people/55835124/collect
p248
ssVbupt_shine
p249
(dp250
g11
I579
sg12
Vhttps://movie.douban.com/people/bupt_shine/wish
p251
sg14
I184
sg15
Vhttps://movie.douban.com/people/bupt_shine/collect
p252
ssValoneCAT
p253
(dp254
g11
I1835
sg12
Vhttps://movie.douban.com/people/aloneCAT/wish
p255
sg14
I536
sg15
Vhttps://movie.douban.com/people/aloneCAT/collect
p256
ssVyeyijane
p257
(dp258
g11
I1262
sg12
Vhttps://movie.douban.com/people/yeyijane/wish
p259
sg14
I65
sg15
Vhttps://movie.douban.com/people/yeyijane/collect
p260
ssV4034626
p261
(dp262
g11
I544
sg12
Vhttps://movie.douban.com/people/4034626/wish
p263
sg14
I51
sg15
Vhttps://movie.douban.com/people/4034626/collect
p264
ssVgalugalu
p265
(dp266
g11
I1380
sg12
Vhttps://movie.douban.com/people/galugalu/wish
p267
sg14
I400
sg15
Vhttps://movie.douban.com/people/galugalu/collect
p268
ssVkid007spy
p269
(dp270
g11
I1615
sg12
Vhttps://movie.douban.com/people/kid007spy/wish
p271
sg14
I188
sg15
Vhttps://movie.douban.com/people/kid007spy/collect
p272
ssVid2001xiaoyu
p273
(dp274
g11
I3392
sg12
Vhttps://movie.douban.com/people/id2001xiaoyu/wish
p275
sg14
I497
sg15
Vhttps://movie.douban.com/people/id2001xiaoyu/collect
p276
ssVsensitivebastar
p277
(dp278
g11
I1869
sg12
Vhttps://movie.douban.com/people/sensitivebastar/wish
p279
sg14
I188
sg15
Vhttps://movie.douban.com/people/sensitivebastar/collect
p280
ssV3069457
p281
(dp282
g11
I1475
sg12
Vhttps://movie.douban.com/people/3069457/wish
p283
sg14
I614
sg15
Vhttps://movie.douban.com/people/3069457/collect
p284
ssV4365580
p285
(dp286
g11
I1774
sg12
Vhttps://movie.douban.com/people/4365580/wish
p287
sg14
I163
sg15
Vhttps://movie.douban.com/people/4365580/collect
p288
ssVwaking
p289
(dp290
g3
I832
sg4
Vhttps://movie.douban.com/people/waking/wish
p291
sg6
I476
sg7
Vhttps://movie.douban.com/people/waking/collect
p292
ssVvertusd
p293
(dp294
g11
I591
sg12
Vhttps://movie.douban.com/people/vertusd/wish
p295
sg14
I212
sg15
Vhttps://movie.douban.com/people/vertusd/collect
p296
ssVfish_Ponds315
p297
(dp298
g11
I1758
sg12
Vhttps://movie.douban.com/people/fish_Ponds315/wish
p299
sg14
I84
sg15
Vhttps://movie.douban.com/people/fish_Ponds315/collect
p300
ssVwoaijianghu
p301
(dp302
g11
I1432
sg12
Vhttps://movie.douban.com/people/woaijianghu/wish
p303
sg14
I998
sg15
Vhttps://movie.douban.com/people/woaijianghu/collect
p304
ssVfreedom_puss
p305
(dp306
g11
I1180
sg12
Vhttps://movie.douban.com/people/freedom_puss/wish
p307
sg14
I337
sg15
Vhttps://movie.douban.com/people/freedom_puss/collect
p308
ssVicebefore
p309
(dp310
g11
I715
sg12
Vhttps://movie.douban.com/people/icebefore/wish
p311
sg14
I79
sg15
Vhttps://movie.douban.com/people/icebefore/collect
p312
ssVsusantang
p313
(dp314
g11
I663
sg12
Vhttps://movie.douban.com/people/susantang/wish
p315
sg14
I1040
sg15
Vhttps://movie.douban.com/people/susantang/collect
p316
ssVfancyfree
p317
(dp318
g11
I711
sg12
Vhttps://movie.douban.com/people/fancyfree/wish
p319
sg14
I79
sg15
Vhttps://movie.douban.com/people/fancyfree/collect
p320
ssVmaoxiaomao
p321
(dp322
g11
I2392
sg12
Vhttps://movie.douban.com/people/maoxiaomao/wish
p323
sg14
I263
sg15
Vhttps://movie.douban.com/people/maoxiaomao/collect
p324
ssVmumulyl
p325
(dp326
g11
I885
sg12
Vhttps://movie.douban.com/people/mumulyl/wish
p327
sg14
I321
sg15
Vhttps://movie.douban.com/people/mumulyl/collect
p328
ssVdiaoduoxi
p329
(dp330
g11
I2848
sg12
Vhttps://movie.douban.com/people/diaoduoxi/wish
p331
sg14
I722
sg15
Vhttps://movie.douban.com/people/diaoduoxi/collect
p332
ssVYear0201
p333
(dp334
g11
I964
sg12
Vhttps://movie.douban.com/people/Year0201/wish
p335
sg14
I240
sg15
Vhttps://movie.douban.com/people/Year0201/collect
p336
ssVdeartintin
p337
(dp338
g11
I7727
sg12
Vhttps://movie.douban.com/people/deartintin/wish
p339
sg14
I407
sg15
Vhttps://movie.douban.com/people/deartintin/collect
p340
ssVddragon
p341
(dp342
g11
I527
sg12
Vhttps://movie.douban.com/people/ddragon/wish
p343
sg14
I333
sg15
Vhttps://movie.douban.com/people/ddragon/collect
p344
ssVidealistic
p345
(dp346
g11
I739
sg12
Vhttps://movie.douban.com/people/idealistic/wish
p347
sg14
I245
sg15
Vhttps://movie.douban.com/people/idealistic/collect
p348
ssV3266143
p349
(dp350
g11
I1108
sg12
Vhttps://movie.douban.com/people/3266143/wish
p351
sg14
I133
sg15
Vhttps://movie.douban.com/people/3266143/collect
p352
ssVsosoJean
p353
(dp354
g11
I1359
sg12
Vhttps://movie.douban.com/people/sosoJean/wish
p355
sg14
I77
sg15
Vhttps://movie.douban.com/people/sosoJean/collect
p356
ssVdukeyunz
p357
(dp358
g3
I517
sg4
Vhttps://movie.douban.com/people/dukeyunz/wish
p359
sg6
I208
sg7
Vhttps://movie.douban.com/people/dukeyunz/collect
p360
ssVvincente
p361
(dp362
g11
I1704
sg12
Vhttps://movie.douban.com/people/vincente/wish
p363
sg14
I71
sg15
Vhttps://movie.douban.com/people/vincente/collect
p364
ssVgfameko
p365
(dp366
g11
I557
sg12
Vhttps://movie.douban.com/people/gfameko/wish
p367
sg14
I812
sg15
Vhttps://movie.douban.com/people/gfameko/collect
p368
ssVbloodlove
p369
(dp370
g11
I1312
sg12
Vhttps://movie.douban.com/people/bloodlove/wish
p371
sg14
I769
sg15
Vhttps://movie.douban.com/people/bloodlove/collect
p372
ssVWanda.
p373
(dp374
g3
I719
sg4
Vhttps://movie.douban.com/people/Wanda./wish
p375
sg6
I449
sg7
Vhttps://movie.douban.com/people/Wanda./collect
p376
ssVabc1985
p377
(dp378
g11
I5004
sg12
Vhttps://movie.douban.com/people/abc1985/wish
p379
sg14
I1576
sg15
Vhttps://movie.douban.com/people/abc1985/collect
p380
ssVskyto77
p381
(dp382
g11
I1100
sg12
Vhttps://movie.douban.com/people/skyto77/wish
p383
sg14
I234
sg15
Vhttps://movie.douban.com/people/skyto77/collect
p384
ssV44835375
p385
(dp386
g11
I926
sg12
Vhttps://movie.douban.com/people/44835375/wish
p387
sg14
I233
sg15
Vhttps://movie.douban.com/people/44835375/collect
p388
ssVvolantisff
p389
(dp390
g11
I2243
sg12
Vhttps://movie.douban.com/people/volantisff/wish
p391
sg14
I464
sg15
Vhttps://movie.douban.com/people/volantisff/collect
p392
ssVmoguyou
p393
(dp394
g11
I591
sg12
Vhttps://movie.douban.com/people/moguyou/wish
p395
sg14
I75
sg15
Vhttps://movie.douban.com/people/moguyou/collect
p396
ssVzc0306
p397
(dp398
g11
I990
sg12
Vhttps://movie.douban.com/people/zc0306/wish
p399
sg14
I568
sg15
Vhttps://movie.douban.com/people/zc0306/collect
p400
ssVoldtime
p401
(dp402
g11
I1023
sg12
Vhttps://movie.douban.com/people/oldtime/wish
p403
sg14
I474
sg15
Vhttps://movie.douban.com/people/oldtime/collect
p404
ssVyangerflo
p405
(dp406
g11
I514
sg12
Vhttps://movie.douban.com/people/yangerflo/wish
p407
sg14
I95
sg15
Vhttps://movie.douban.com/people/yangerflo/collect
p408
ssVlukayl
p409
(dp410
g11
I740
sg12
Vhttps://movie.douban.com/people/lukayl/wish
p411
sg14
I582
sg15
Vhttps://movie.douban.com/people/lukayl/collect
p412
ssV3427693
p413
(dp414
g11
I636
sg12
Vhttps://movie.douban.com/people/3427693/wish
p415
sg14
I121
sg15
Vhttps://movie.douban.com/people/3427693/collect
p416
ssVwildold
p417
(dp418
g3
I1927
sg4
Vhttps://movie.douban.com/people/wildold/wish
p419
sg6
I452
sg7
Vhttps://movie.douban.com/people/wildold/collect
p420
ssV2275641
p421
(dp422
g3
I1243
sg4
Vhttps://movie.douban.com/people/2275641/wish
p423
sg6
I166
sg7
Vhttps://movie.douban.com/people/2275641/collect
p424
ssVfishchild
p425
(dp426
g3
I1432
sg4
Vhttps://movie.douban.com/people/fishchild/wish
p427
sg6
I92
sg7
Vhttps://movie.douban.com/people/fishchild/collect
p428
ssV124812731
p429
(dp430
g3
I1970
sg4
Vhttps://movie.douban.com/people/124812731/wish
p431
sg6
I158
sg7
Vhttps://movie.douban.com/people/124812731/collect
p432
ssVvera0902
p433
(dp434
g11
I613
sg12
Vhttps://movie.douban.com/people/vera0902/wish
p435
sg14
I210
sg15
Vhttps://movie.douban.com/people/vera0902/collect
p436
ssVyouhebi
p437
(dp438
g3
I615
sg4
Vhttps://movie.douban.com/people/youhebi/wish
p439
sg6
I138
sg7
Vhttps://movie.douban.com/people/youhebi/collect
p440
ssVyuwai
p441
(dp442
g11
I1080
sg12
Vhttps://movie.douban.com/people/yuwai/wish
p443
sg14
I2011
sg15
Vhttps://movie.douban.com/people/yuwai/collect
p444
ssVJane_1-29
p445
(dp446
g3
I1487
sg4
Vhttps://movie.douban.com/people/Jane_1-29/wish
p447
sg6
I92
sg7
Vhttps://movie.douban.com/people/Jane_1-29/collect
p448
ssVmito
p449
(dp450
g11
I981
sg12
Vhttps://movie.douban.com/people/mito/wish
p451
sg14
I253
sg15
Vhttps://movie.douban.com/people/mito/collect
p452
ssVyongjian
p453
(dp454
g11
I923
sg12
Vhttps://movie.douban.com/people/yongjian/wish
p455
sg14
I77
sg15
Vhttps://movie.douban.com/people/yongjian/collect
p456
ssValpha5un
p457
(dp458
g11
I2556
sg12
Vhttps://movie.douban.com/people/alpha5un/wish
p459
sg14
I198
sg15
Vhttps://movie.douban.com/people/alpha5un/collect
p460
ssV47730670
p461
(dp462
g11
I511
sg12
Vhttps://movie.douban.com/people/47730670/wish
p463
sg14
I399
sg15
Vhttps://movie.douban.com/people/47730670/collect
p464
ssVseanwangxiao
p465
(dp466
g11
I2205
sg12
Vhttps://movie.douban.com/people/seanwangxiao/wish
p467
sg14
I436
sg15
Vhttps://movie.douban.com/people/seanwangxiao/collect
p468
ssVmiserwei
p469
(dp470
g3
I1388
sg4
Vhttps://movie.douban.com/people/miserwei/wish
p471
sg6
I1355
sg7
Vhttps://movie.douban.com/people/miserwei/collect
p472
ssV1303272
p473
(dp474
g11
I599
sg12
Vhttps://movie.douban.com/people/1303272/wish
p475
sg14
I317
sg15
Vhttps://movie.douban.com/people/1303272/collect
p476
ssVduchamp
p477
(dp478
g11
I2656
sg12
Vhttps://movie.douban.com/people/duchamp/wish
p479
sg14
I57
sg15
Vhttps://movie.douban.com/people/duchamp/collect
p480
ssV3087252
p481
(dp482
g11
I3787
sg12
Vhttps://movie.douban.com/people/3087252/wish
p483
sg14
I122
sg15
Vhttps://movie.douban.com/people/3087252/collect
p484
ssVtreeman
p485
(dp486
g3
I1121
sg4
Vhttps://movie.douban.com/people/treeman/wish
p487
sg6
I173
sg7
Vhttps://movie.douban.com/people/treeman/collect
p488
ssVsmart5808
p489
(dp490
g3
I1576
sg4
Vhttps://movie.douban.com/people/smart5808/wish
p491
sg6
I86
sg7
Vhttps://movie.douban.com/people/smart5808/collect
p492
ssVrainadore
p493
(dp494
g11
I1190
sg12
Vhttps://movie.douban.com/people/rainadore/wish
p495
sg14
I471
sg15
Vhttps://movie.douban.com/people/rainadore/collect
p496
ssVlibrajash
p497
(dp498
g11
I1702
sg12
Vhttps://movie.douban.com/people/librajash/wish
p499
sg14
I77
sg15
Vhttps://movie.douban.com/people/librajash/collect
p500
ssVshoyan
p501
(dp502
g11
I1579
sg12
Vhttps://movie.douban.com/people/shoyan/wish
p503
sg14
I735
sg15
Vhttps://movie.douban.com/people/shoyan/collect
p504
ssV1835877
p505
(dp506
g3
I1510
sg4
Vhttps://movie.douban.com/people/1835877/wish
p507
sg6
I832
sg7
Vhttps://movie.douban.com/people/1835877/collect
p508
ssV48236624
p509
(dp510
g11
I1827
sg12
Vhttps://movie.douban.com/people/48236624/wish
p511
sg14
I1585
sg15
Vhttps://movie.douban.com/people/48236624/collect
p512
ssVlfive
p513
(dp514
g11
I830
sg12
Vhttps://movie.douban.com/people/lfive/wish
p515
sg14
I137
sg15
Vhttps://movie.douban.com/people/lfive/collect
p516
ssV4164100
p517
(dp518
g11
I886
sg12
Vhttps://movie.douban.com/people/4164100/wish
p519
sg14
I279
sg15
Vhttps://movie.douban.com/people/4164100/collect
p520
ssVruxiaoguo
p521
(dp522
g11
I1535
sg12
Vhttps://movie.douban.com/people/ruxiaoguo/wish
p523
sg14
I332
sg15
Vhttps://movie.douban.com/people/ruxiaoguo/collect
p524
ssVCao-Wei
p525
(dp526
g11
I1227
sg12
Vhttps://movie.douban.com/people/Cao-Wei/wish
p527
sg14
I96
sg15
Vhttps://movie.douban.com/people/Cao-Wei/collect
p528
ssV43393007
p529
(dp530
g11
I1250
sg12
Vhttps://movie.douban.com/people/43393007/wish
p531
sg14
I335
sg15
Vhttps://movie.douban.com/people/43393007/collect
p532
ssVxwxc
p533
(dp534
g3
I893
sg4
Vhttps://movie.douban.com/people/xwxc/wish
p535
sg6
I93
sg7
Vhttps://movie.douban.com/people/xwxc/collect
p536
ssV1500643
p537
(dp538
g11
I1027
sg12
Vhttps://movie.douban.com/people/1500643/wish
p539
sg14
I262
sg15
Vhttps://movie.douban.com/people/1500643/collect
p540
ssVBig_Rice
p541
(dp542
g3
I679
sg4
Vhttps://movie.douban.com/people/Big_Rice/wish
p543
sg6
I105
sg7
Vhttps://movie.douban.com/people/Big_Rice/collect
p544
ssV2290548
p545
(dp546
g11
I616
sg12
Vhttps://movie.douban.com/people/2290548/wish
p547
sg14
I327
sg15
Vhttps://movie.douban.com/people/2290548/collect
p548
ssVJunous
p549
(dp550
g11
I822
sg12
Vhttps://movie.douban.com/people/Junous/wish
p551
sg14
I405
sg15
Vhttps://movie.douban.com/people/Junous/collect
p552
ssVliuweicq
p553
(dp554
g11
I539
sg12
Vhttps://movie.douban.com/people/liuweicq/wish
p555
sg14
I444
sg15
Vhttps://movie.douban.com/people/liuweicq/collect
p556
ssVxzfd
p557
(dp558
g11
I2039
sg12
Vhttps://movie.douban.com/people/xzfd/wish
p559
sg14
I67
sg15
Vhttps://movie.douban.com/people/xzfd/collect
p560
ssVdeutsch1934
p561
(dp562
g11
I1455
sg12
Vhttps://movie.douban.com/people/deutsch1934/wish
p563
sg14
I1119
sg15
Vhttps://movie.douban.com/people/deutsch1934/collect
p564
ssVhellomartin
p565
(dp566
g11
I1865
sg12
Vhttps://movie.douban.com/people/hellomartin/wish
p567
sg14
I795
sg15
Vhttps://movie.douban.com/people/hellomartin/collect
p568
ssVpetitespot
p569
(dp570
g3
I1522
sg4
Vhttps://movie.douban.com/people/petitespot/wish
p571
sg6
I76
sg7
Vhttps://movie.douban.com/people/petitespot/collect
p572
ssVlucyblues
p573
(dp574
g3
I1351
sg4
Vhttps://movie.douban.com/people/lucyblues/wish
p575
sg6
I1205
sg7
Vhttps://movie.douban.com/people/lucyblues/collect
p576
ssVlidyc
p577
(dp578
g3
I548
sg4
Vhttps://movie.douban.com/people/lidyc/wish
p579
sg6
I479
sg7
Vhttps://movie.douban.com/people/lidyc/collect
p580
ssVasan
p581
(dp582
g11
I610
sg12
Vhttps://movie.douban.com/people/asan/wish
p583
sg14
I234
sg15
Vhttps://movie.douban.com/people/asan/collect
p584
ssVhelisn
p585
(dp586
g3
I644
sg4
Vhttps://movie.douban.com/people/helisn/wish
p587
sg6
I399
sg7
Vhttps://movie.douban.com/people/helisn/collect
p588
ssVoriginhuman
p589
(dp590
g3
I685
sg4
Vhttps://movie.douban.com/people/originhuman/wish
p591
sg6
I283
sg7
Vhttps://movie.douban.com/people/originhuman/collect
p592
ssVyangyi136
p593
(dp594
g11
I989
sg12
Vhttps://movie.douban.com/people/yangyi136/wish
p595
sg14
I52
sg15
Vhttps://movie.douban.com/people/yangyi136/collect
p596
ssVfingerchaos
p597
(dp598
g11
I1488
sg12
Vhttps://movie.douban.com/people/fingerchaos/wish
p599
sg14
I226
sg15
Vhttps://movie.douban.com/people/fingerchaos/collect
p600
ssVnonofuckoff
p601
(dp602
g11
I659
sg12
Vhttps://movie.douban.com/people/nonofuckoff/wish
p603
sg14
I839
sg15
Vhttps://movie.douban.com/people/nonofuckoff/collect
p604
ssVsayblack
p605
(dp606
g11
I799
sg12
Vhttps://movie.douban.com/people/sayblack/wish
p607
sg14
I627
sg15
Vhttps://movie.douban.com/people/sayblack/collect
p608
ssVdoublebao
p609
(dp610
g11
I861
sg12
Vhttps://movie.douban.com/people/doublebao/wish
p611
sg14
I165
sg15
Vhttps://movie.douban.com/people/doublebao/collect
p612
ssVfantuanjet
p613
(dp614
g11
I870
sg12
Vhttps://movie.douban.com/people/fantuanjet/wish
p615
sg14
I426
sg15
Vhttps://movie.douban.com/people/fantuanjet/collect
p616
ssVwonderfuldance
p617
(dp618
g11
I2136
sg12
Vhttps://movie.douban.com/people/wonderfuldance/wish
p619
sg14
I148
sg15
Vhttps://movie.douban.com/people/wonderfuldance/collect
p620
ssVlihebo
p621
(dp622
g11
I758
sg12
Vhttps://movie.douban.com/people/lihebo/wish
p623
sg14
I126
sg15
Vhttps://movie.douban.com/people/lihebo/collect
p624
ssVfabulouswhite
p625
(dp626
g11
I687
sg12
Vhttps://movie.douban.com/people/fabulouswhite/wish
p627
sg14
I82
sg15
Vhttps://movie.douban.com/people/fabulouswhite/collect
p628
ssVtracyprx
p629
(dp630
g11
I536
sg12
Vhttps://movie.douban.com/people/tracyprx/wish
p631
sg14
I206
sg15
Vhttps://movie.douban.com/people/tracyprx/collect
p632
ssV2641721
p633
(dp634
g11
I676
sg12
Vhttps://movie.douban.com/people/2641721/wish
p635
sg14
I188
sg15
Vhttps://movie.douban.com/people/2641721/collect
p636
ssVsby37
p637
(dp638
g11
I1138
sg12
Vhttps://movie.douban.com/people/sby37/wish
p639
sg14
I422
sg15
Vhttps://movie.douban.com/people/sby37/collect
p640
ssVedie.dandelion
p641
(dp642
g3
I2254
sg4
Vhttps://movie.douban.com/people/edie.dandelion/wish
p643
sg6
I694
sg7
Vhttps://movie.douban.com/people/edie.dandelion/collect
p644
ssVgreenrabbit
p645
(dp646
g3
I557
sg4
Vhttps://movie.douban.com/people/greenrabbit/wish
p647
sg6
I419
sg7
Vhttps://movie.douban.com/people/greenrabbit/collect
p648
ssVnerida8013
p649
(dp650
g11
I1308
sg12
Vhttps://movie.douban.com/people/nerida8013/wish
p651
sg14
I570
sg15
Vhttps://movie.douban.com/people/nerida8013/collect
p652
ssVinsidejudy
p653
(dp654
g11
I510
sg12
Vhttps://movie.douban.com/people/insidejudy/wish
p655
sg14
I163
sg15
Vhttps://movie.douban.com/people/insidejudy/collect
p656
ssVwildboy
p657
(dp658
g11
I4246
sg12
Vhttps://movie.douban.com/people/wildboy/wish
p659
sg14
I170
sg15
Vhttps://movie.douban.com/people/wildboy/collect
p660
ssVfuxiu
p661
(dp662
g11
I2712
sg12
Vhttps://movie.douban.com/people/fuxiu/wish
p663
sg14
I369
sg15
Vhttps://movie.douban.com/people/fuxiu/collect
p664
ssVChannaDisco
p665
(dp666
g11
I1715
sg12
Vhttps://movie.douban.com/people/ChannaDisco/wish
p667
sg14
I1195
sg15
Vhttps://movie.douban.com/people/ChannaDisco/collect
p668
ssVmacha
p669
(dp670
g11
I789
sg12
Vhttps://movie.douban.com/people/macha/wish
p671
sg14
I469
sg15
Vhttps://movie.douban.com/people/macha/collect
p672
ssV15729576
p673
(dp674
g11
I808
sg12
Vhttps://movie.douban.com/people/15729576/wish
p675
sg14
I320
sg15
Vhttps://movie.douban.com/people/15729576/collect
p676
ssVGayScript
p677
(dp678
g11
I1615
sg12
Vhttps://movie.douban.com/people/GayScript/wish
p679
sg14
I451
sg15
Vhttps://movie.douban.com/people/GayScript/collect
p680
ssVroger589
p681
(dp682
g11
I1348
sg12
Vhttps://movie.douban.com/people/roger589/wish
p683
sg14
I303
sg15
Vhttps://movie.douban.com/people/roger589/collect
p684
ssVseancheung
p685
(dp686
g3
I2021
sg4
Vhttps://movie.douban.com/people/seancheung/wish
p687
sg6
I69
sg7
Vhttps://movie.douban.com/people/seancheung/collect
p688
ssVluotang
p689
(dp690
g11
I1514
sg12
Vhttps://movie.douban.com/people/luotang/wish
p691
sg14
I182
sg15
Vhttps://movie.douban.com/people/luotang/collect
p692
ssVpanwenjing
p693
(dp694
g3
I1154
sg4
Vhttps://movie.douban.com/people/panwenjing/wish
p695
sg6
I253
sg7
Vhttps://movie.douban.com/people/panwenjing/collect
p696
ssVnvwawa
p697
(dp698
g11
I668
sg12
Vhttps://movie.douban.com/people/nvwawa/wish
p699
sg14
I298
sg15
Vhttps://movie.douban.com/people/nvwawa/collect
p700
ssVcaesarphoenix
p701
(dp702
g11
I2563
sg12
Vhttps://movie.douban.com/people/caesarphoenix/wish
p703
sg14
I1472
sg15
Vhttps://movie.douban.com/people/caesarphoenix/collect
p704
ssVhorsefaCe
p705
(dp706
g11
I1167
sg12
Vhttps://movie.douban.com/people/horsefaCe/wish
p707
sg14
I97
sg15
Vhttps://movie.douban.com/people/horsefaCe/collect
p708
ssVputengfei
p709
(dp710
g11
I1445
sg12
Vhttps://movie.douban.com/people/putengfei/wish
p711
sg14
I470
sg15
Vhttps://movie.douban.com/people/putengfei/collect
p712
ssVso_jiuye
p713
(dp714
g11
I986
sg12
Vhttps://movie.douban.com/people/so_jiuye/wish
p715
sg14
I76
sg15
Vhttps://movie.douban.com/people/so_jiuye/collect
p716
ssVzoe_lee
p717
(dp718
g11
I812
sg12
Vhttps://movie.douban.com/people/zoe_lee/wish
p719
sg14
I66
sg15
Vhttps://movie.douban.com/people/zoe_lee/collect
p720
ssV2244595
p721
(dp722
g11
I533
sg12
Vhttps://movie.douban.com/people/2244595/wish
p723
sg14
I257
sg15
Vhttps://movie.douban.com/people/2244595/collect
p724
ssVsabrina.zmy
p725
(dp726
g3
I532
sg4
Vhttps://movie.douban.com/people/sabrina.zmy/wish
p727
sg6
I104
sg7
Vhttps://movie.douban.com/people/sabrina.zmy/collect
p728
ssVtingconan
p729
(dp730
g11
I593
sg12
Vhttps://movie.douban.com/people/tingconan/wish
p731
sg14
I578
sg15
Vhttps://movie.douban.com/people/tingconan/collect
p732
ssV1238604
p733
(dp734
g11
I619
sg12
Vhttps://movie.douban.com/people/1238604/wish
p735
sg14
I319
sg15
Vhttps://movie.douban.com/people/1238604/collect
p736
ssVliudidi
p737
(dp738
g11
I994
sg12
Vhttps://movie.douban.com/people/liudidi/wish
p739
sg14
I297
sg15
Vhttps://movie.douban.com/people/liudidi/collect
p740
ssVballwen
p741
(dp742
g11
I759
sg12
Vhttps://movie.douban.com/people/ballwen/wish
p743
sg14
I287
sg15
Vhttps://movie.douban.com/people/ballwen/collect
p744
ssVk.s.
p745
(dp746
g11
I939
sg12
Vhttps://movie.douban.com/people/k.s./wish
p747
sg14
I535
sg15
Vhttps://movie.douban.com/people/k.s./collect
p748
ssV1332702
p749
(dp750
g11
I1048
sg12
Vhttps://movie.douban.com/people/1332702/wish
p751
sg14
I322
sg15
Vhttps://movie.douban.com/people/1332702/collect
p752
ssVperfectlee
p753
(dp754
g11
I1236
sg12
Vhttps://movie.douban.com/people/perfectlee/wish
p755
sg14
I539
sg15
Vhttps://movie.douban.com/people/perfectlee/collect
p756
ssVnever4u
p757
(dp758
g11
I1446
sg12
Vhttps://movie.douban.com/people/never4u/wish
p759
sg14
I187
sg15
Vhttps://movie.douban.com/people/never4u/collect
p760
ssVmingming21
p761
(dp762
g11
I833
sg12
Vhttps://movie.douban.com/people/mingming21/wish
p763
sg14
I283
sg15
Vhttps://movie.douban.com/people/mingming21/collect
p764
ssVvacual
p765
(dp766
g11
I1465
sg12
Vhttps://movie.douban.com/people/vacual/wish
p767
sg14
I3678
sg15
Vhttps://movie.douban.com/people/vacual/collect
p768
ssVaether55555
p769
(dp770
g3
I1340
sg4
Vhttps://movie.douban.com/people/aether55555/wish
p771
sg6
I575
sg7
Vhttps://movie.douban.com/people/aether55555/collect
p772
ssVLen.
p773
(dp774
g3
I4130
sg4
Vhttps://movie.douban.com/people/Len./wish
p775
sg6
I748
sg7
Vhttps://movie.douban.com/people/Len./collect
p776
ssVfikirui
p777
(dp778
g11
I1788
sg12
Vhttps://movie.douban.com/people/fikirui/wish
p779
sg14
I696
sg15
Vhttps://movie.douban.com/people/fikirui/collect
p780
ssVkingkongofkhan
p781
(dp782
g3
I4742
sg4
Vhttps://movie.douban.com/people/kingkongofkhan/wish
p783
sg6
I513
sg7
Vhttps://movie.douban.com/people/kingkongofkhan/collect
p784
ssVO____O
p785
(dp786
g11
I606
sg12
Vhttps://movie.douban.com/people/O____O/wish
p787
sg14
I509
sg15
Vhttps://movie.douban.com/people/O____O/collect
p788
ssVtenkappa
p789
(dp790
g3
I4324
sg4
Vhttps://movie.douban.com/people/tenkappa/wish
p791
sg6
I289
sg7
Vhttps://movie.douban.com/people/tenkappa/collect
p792
ssVcatuncle1988
p793
(dp794
g11
I3932
sg12
Vhttps://movie.douban.com/people/catuncle1988/wish
p795
sg14
I3994
sg15
Vhttps://movie.douban.com/people/catuncle1988/collect
p796
ssV3006833
p797
(dp798
g3
I584
sg4
Vhttps://movie.douban.com/people/3006833/wish
p799
sg6
I927
sg7
Vhttps://movie.douban.com/people/3006833/collect
p800
ssV73107883
p801
(dp802
g11
I839
sg12
Vhttps://movie.douban.com/people/73107883/wish
p803
sg14
I1710
sg15
Vhttps://movie.douban.com/people/73107883/collect
p804
ssVbaleite
p805
(dp806
g3
I1622
sg4
Vhttps://movie.douban.com/people/baleite/wish
p807
sg6
I371
sg7
Vhttps://movie.douban.com/people/baleite/collect
p808
ssVFRedLaw
p809
(dp810
g11
I2283
sg12
Vhttps://movie.douban.com/people/FRedLaw/wish
p811
sg14
I191
sg15
Vhttps://movie.douban.com/people/FRedLaw/collect
p812
ssVmusichellsing
p813
(dp814
g11
I1952
sg12
Vhttps://movie.douban.com/people/musichellsing/wish
p815
sg14
I736
sg15
Vhttps://movie.douban.com/people/musichellsing/collect
p816
ssVprincesspainter
p817
(dp818
g11
I876
sg12
Vhttps://movie.douban.com/people/princesspainter/wish
p819
sg14
I530
sg15
Vhttps://movie.douban.com/people/princesspainter/collect
p820
ssV2867845
p821
(dp822
g11
I1342
sg12
Vhttps://movie.douban.com/people/2867845/wish
p823
sg14
I412
sg15
Vhttps://movie.douban.com/people/2867845/collect
p824
ssV2335488
p825
(dp826
g3
I858
sg4
Vhttps://movie.douban.com/people/2335488/wish
p827
sg6
I455
sg7
Vhttps://movie.douban.com/people/2335488/collect
p828
ssV3742596
p829
(dp830
g11
I1343
sg12
Vhttps://movie.douban.com/people/3742596/wish
p831
sg14
I1292
sg15
Vhttps://movie.douban.com/people/3742596/collect
p832
ssVfeelinsly
p833
(dp834
g3
I825
sg4
Vhttps://movie.douban.com/people/feelinsly/wish
p835
sg6
I507
sg7
Vhttps://movie.douban.com/people/feelinsly/collect
p836
ssVbrandcopy
p837
(dp838
g11
I525
sg12
Vhttps://movie.douban.com/people/brandcopy/wish
p839
sg14
I55
sg15
Vhttps://movie.douban.com/people/brandcopy/collect
p840
ssV4394790
p841
(dp842
g11
I1100
sg12
Vhttps://movie.douban.com/people/4394790/wish
p843
sg14
I75
sg15
Vhttps://movie.douban.com/people/4394790/collect
p844
ssVAdelleYang
p845
(dp846
g3
I705
sg4
Vhttps://movie.douban.com/people/AdelleYang/wish
p847
sg6
I152
sg7
Vhttps://movie.douban.com/people/AdelleYang/collect
p848
ssV49595588
p849
(dp850
g3
I1858
sg4
Vhttps://movie.douban.com/people/49595588/wish
p851
sg6
I466
sg7
Vhttps://movie.douban.com/people/49595588/collect
p852
ssV59977768
p853
(dp854
g11
I765
sg12
Vhttps://movie.douban.com/people/59977768/wish
p855
sg14
I143
sg15
Vhttps://movie.douban.com/people/59977768/collect
p856
ssVpkbraveheart
p857
(dp858
g11
I2715
sg12
Vhttps://movie.douban.com/people/pkbraveheart/wish
p859
sg14
I112
sg15
Vhttps://movie.douban.com/people/pkbraveheart/collect
p860
ssV4191448
p861
(dp862
g11
I622
sg12
Vhttps://movie.douban.com/people/4191448/wish
p863
sg14
I570
sg15
Vhttps://movie.douban.com/people/4191448/collect
p864
ssVshanyuping
p865
(dp866
g3
I748
sg4
Vhttps://movie.douban.com/people/shanyuping/wish
p867
sg6
I487
sg7
Vhttps://movie.douban.com/people/shanyuping/collect
p868
ssVzhanlusword
p869
(dp870
g11
I1929
sg12
Vhttps://movie.douban.com/people/zhanlusword/wish
p871
sg14
I485
sg15
Vhttps://movie.douban.com/people/zhanlusword/collect
p872
ssVhuangsanjing
p873
(dp874
g11
I533
sg12
Vhttps://movie.douban.com/people/huangsanjing/wish
p875
sg14
I68
sg15
Vhttps://movie.douban.com/people/huangsanjing/collect
p876
ssV1891500
p877
(dp878
g11
I1266
sg12
Vhttps://movie.douban.com/people/1891500/wish
p879
sg14
I299
sg15
Vhttps://movie.douban.com/people/1891500/collect
p880
ssVparco
p881
(dp882
g11
I1212
sg12
Vhttps://movie.douban.com/people/parco/wish
p883
sg14
I217
sg15
Vhttps://movie.douban.com/people/parco/collect
p884
ssVzling--HE
p885
(dp886
g11
I863
sg12
Vhttps://movie.douban.com/people/zling--HE/wish
p887
sg14
I1002
sg15
Vhttps://movie.douban.com/people/zling--HE/collect
p888
ssVmaoyi0249
p889
(dp890
g11
I691
sg12
Vhttps://movie.douban.com/people/maoyi0249/wish
p891
sg14
I112
sg15
Vhttps://movie.douban.com/people/maoyi0249/collect
p892
ssVyuppiezak
p893
(dp894
g11
I760
sg12
Vhttps://movie.douban.com/people/yuppiezak/wish
p895
sg14
I511
sg15
Vhttps://movie.douban.com/people/yuppiezak/collect
p896
ssVveracin
p897
(dp898
g11
I1190
sg12
Vhttps://movie.douban.com/people/veracin/wish
p899
sg14
I117
sg15
Vhttps://movie.douban.com/people/veracin/collect
p900
ssVISRAFEL
p901
(dp902
g11
I2676
sg12
Vhttps://movie.douban.com/people/ISRAFEL/wish
p903
sg14
I2137
sg15
Vhttps://movie.douban.com/people/ISRAFEL/collect
p904
ssVdenisemasami31
p905
(dp906
g11
I900
sg12
Vhttps://movie.douban.com/people/denisemasami31/wish
p907
sg14
I77
sg15
Vhttps://movie.douban.com/people/denisemasami31/collect
p908
ssVwanger0619
p909
(dp910
g11
I3508
sg12
Vhttps://movie.douban.com/people/wanger0619/wish
p911
sg14
I94
sg15
Vhttps://movie.douban.com/people/wanger0619/collect
p912
ssVYourAva
p913
(dp914
g11
I2304
sg12
Vhttps://movie.douban.com/people/YourAva/wish
p915
sg14
I793
sg15
Vhttps://movie.douban.com/people/YourAva/collect
p916
ssVoxolin
p917
(dp918
g11
I677
sg12
Vhttps://movie.douban.com/people/oxolin/wish
p919
sg14
I550
sg15
Vhttps://movie.douban.com/people/oxolin/collect
p920
ssVkiddyzheng
p921
(dp922
g11
I619
sg12
Vhttps://movie.douban.com/people/kiddyzheng/wish
p923
sg14
I97
sg15
Vhttps://movie.douban.com/people/kiddyzheng/collect
p924
ssV50437623
p925
(dp926
g11
I642
sg12
Vhttps://movie.douban.com/people/50437623/wish
p927
sg14
I111
sg15
Vhttps://movie.douban.com/people/50437623/collect
p928
ssVnaocanqiang
p929
(dp930
g11
I828
sg12
Vhttps://movie.douban.com/people/naocanqiang/wish
p931
sg14
I867
sg15
Vhttps://movie.douban.com/people/naocanqiang/collect
p932
ssVvincent0715
p933
(dp934
g11
I1324
sg12
Vhttps://movie.douban.com/people/vincent0715/wish
p935
sg14
I72
sg15
Vhttps://movie.douban.com/people/vincent0715/collect
p936
ssVdarksound
p937
(dp938
g11
I1265
sg12
Vhttps://movie.douban.com/people/darksound/wish
p939
sg14
I193
sg15
Vhttps://movie.douban.com/people/darksound/collect
p940
ssVyuantwice
p941
(dp942
g11
I725
sg12
Vhttps://movie.douban.com/people/yuantwice/wish
p943
sg14
I303
sg15
Vhttps://movie.douban.com/people/yuantwice/collect
p944
ssVtrunksye
p945
(dp946
g11
I1629
sg12
Vhttps://movie.douban.com/people/trunksye/wish
p947
sg14
I59
sg15
Vhttps://movie.douban.com/people/trunksye/collect
p948
ssVyoki-club
p949
(dp950
g11
I621
sg12
Vhttps://movie.douban.com/people/yoki-club/wish
p951
sg14
I118
sg15
Vhttps://movie.douban.com/people/yoki-club/collect
p952
ssVjunmin
p953
(dp954
g11
I521
sg12
Vhttps://movie.douban.com/people/junmin/wish
p955
sg14
I374
sg15
Vhttps://movie.douban.com/people/junmin/collect
p956
ssVMunhokim
p957
(dp958
g11
I841
sg12
Vhttps://movie.douban.com/people/Munhokim/wish
p959
sg14
I615
sg15
Vhttps://movie.douban.com/people/Munhokim/collect
p960
ssV50040621
p961
(dp962
g11
I653
sg12
Vhttps://movie.douban.com/people/50040621/wish
p963
sg14
I282
sg15
Vhttps://movie.douban.com/people/50040621/collect
p964
ssVwaterfront
p965
(dp966
g11
I526
sg12
Vhttps://movie.douban.com/people/waterfront/wish
p967
sg14
I205
sg15
Vhttps://movie.douban.com/people/waterfront/collect
p968
ssVfengjiansun
p969
(dp970
g11
I2084
sg12
Vhttps://movie.douban.com/people/fengjiansun/wish
p971
sg14
I512
sg15
Vhttps://movie.douban.com/people/fengjiansun/collect
p972
ssVchahuzi
p973
(dp974
g3
I790
sg4
Vhttps://movie.douban.com/people/chahuzi/wish
p975
sg6
I611
sg7
Vhttps://movie.douban.com/people/chahuzi/collect
p976
ssVxiaoxingxing
p977
(dp978
g11
I1605
sg12
Vhttps://movie.douban.com/people/xiaoxingxing/wish
p979
sg14
I856
sg15
Vhttps://movie.douban.com/people/xiaoxingxing/collect
p980
ssVchenzhuo
p981
(dp982
g11
I747
sg12
Vhttps://movie.douban.com/people/chenzhuo/wish
p983
sg14
I148
sg15
Vhttps://movie.douban.com/people/chenzhuo/collect
p984
ssVleebing0327
p985
(dp986
g3
I2267
sg4
Vhttps://movie.douban.com/people/leebing0327/wish
p987
sg6
I622
sg7
Vhttps://movie.douban.com/people/leebing0327/collect
p988
ssVyalindongdong
p989
(dp990
g11
I3840
sg12
Vhttps://movie.douban.com/people/yalindongdong/wish
p991
sg14
I1378
sg15
Vhttps://movie.douban.com/people/yalindongdong/collect
p992
ssVisabel1106
p993
(dp994
g11
I1641
sg12
Vhttps://movie.douban.com/people/isabel1106/wish
p995
sg14
I442
sg15
Vhttps://movie.douban.com/people/isabel1106/collect
p996
ssVLuffy_masaomi
p997
(dp998
g11
I1749
sg12
Vhttps://movie.douban.com/people/Luffy_masaomi/wish
p999
sg14
I72
sg15
Vhttps://movie.douban.com/people/Luffy_masaomi/collect
p1000
ssVboboggqueen
p1001
(dp1002
g11
I1854
sg12
Vhttps://movie.douban.com/people/boboggqueen/wish
p1003
sg14
I319
sg15
Vhttps://movie.douban.com/people/boboggqueen/collect
p1004
ssVsanmu819
p1005
(dp1006
g11
I2238
sg12
Vhttps://movie.douban.com/people/sanmu819/wish
p1007
sg14
I210
sg15
Vhttps://movie.douban.com/people/sanmu819/collect
p1008
ssV63406200
p1009
(dp1010
g11
I1429
sg12
Vhttps://movie.douban.com/people/63406200/wish
p1011
sg14
I579
sg15
Vhttps://movie.douban.com/people/63406200/collect
p1012
ssV1175458
p1013
(dp1014
g11
I722
sg12
Vhttps://movie.douban.com/people/1175458/wish
p1015
sg14
I56
sg15
Vhttps://movie.douban.com/people/1175458/collect
p1016
ssVJewelyxy
p1017
(dp1018
g11
I1029
sg12
Vhttps://movie.douban.com/people/Jewelyxy/wish
p1019
sg14
I132
sg15
Vhttps://movie.douban.com/people/Jewelyxy/collect
p1020
ssVcolorwater
p1021
(dp1022
g11
I521
sg12
Vhttps://movie.douban.com/people/colorwater/wish
p1023
sg14
I69
sg15
Vhttps://movie.douban.com/people/colorwater/collect
p1024
ssVstevenzhaodl
p1025
(dp1026
g11
I955
sg12
Vhttps://movie.douban.com/people/stevenzhaodl/wish
p1027
sg14
I133
sg15
Vhttps://movie.douban.com/people/stevenzhaodl/collect
p1028
ssVyoucl-lunatic
p1029
(dp1030
g3
I606
sg4
Vhttps://movie.douban.com/people/youcl-lunatic/wish
p1031
sg6
I214
sg7
Vhttps://movie.douban.com/people/youcl-lunatic/collect
p1032
ssVsjdongbei
p1033
(dp1034
g3
I1471
sg4
Vhttps://movie.douban.com/people/sjdongbei/wish
p1035
sg6
I83
sg7
Vhttps://movie.douban.com/people/sjdongbei/collect
p1036
ssVwuluoyi
p1037
(dp1038
g11
I1350
sg12
Vhttps://movie.douban.com/people/wuluoyi/wish
p1039
sg14
I769
sg15
Vhttps://movie.douban.com/people/wuluoyi/collect
p1040
ssVreneeyang
p1041
(dp1042
g11
I643
sg12
Vhttps://movie.douban.com/people/reneeyang/wish
p1043
sg14
I129
sg15
Vhttps://movie.douban.com/people/reneeyang/collect
p1044
ssVlvhai
p1045
(dp1046
g11
I812
sg12
Vhttps://movie.douban.com/people/lvhai/wish
p1047
sg14
I230
sg15
Vhttps://movie.douban.com/people/lvhai/collect
p1048
ssValcudish
p1049
(dp1050
g11
I1791
sg12
Vhttps://movie.douban.com/people/alcudish/wish
p1051
sg14
I2559
sg15
Vhttps://movie.douban.com/people/alcudish/collect
p1052
ssV57280159
p1053
(dp1054
g3
I870
sg4
Vhttps://movie.douban.com/people/57280159/wish
p1055
sg6
I603
sg7
Vhttps://movie.douban.com/people/57280159/collect
p1056
ssV2778486
p1057
(dp1058
g11
I854
sg12
Vhttps://movie.douban.com/people/2778486/wish
p1059
sg14
I830
sg15
Vhttps://movie.douban.com/people/2778486/collect
p1060
ssVwhuizw
p1061
(dp1062
g3
I2331
sg4
Vhttps://movie.douban.com/people/whuizw/wish
p1063
sg6
I765
sg7
Vhttps://movie.douban.com/people/whuizw/collect
p1064
ssVcapsula
p1065
(dp1066
g11
I3124
sg12
Vhttps://movie.douban.com/people/capsula/wish
p1067
sg14
I88
sg15
Vhttps://movie.douban.com/people/capsula/collect
p1068
ssVpopomore
p1069
(dp1070
g11
I774
sg12
Vhttps://movie.douban.com/people/popomore/wish
p1071
sg14
I308
sg15
Vhttps://movie.douban.com/people/popomore/collect
p1072
ssVsunnyduan
p1073
(dp1074
g11
I685
sg12
Vhttps://movie.douban.com/people/sunnyduan/wish
p1075
sg14
I102
sg15
Vhttps://movie.douban.com/people/sunnyduan/collect
p1076
ssV1354853
p1077
(dp1078
g11
I1462
sg12
Vhttps://movie.douban.com/people/1354853/wish
p1079
sg14
I435
sg15
Vhttps://movie.douban.com/people/1354853/collect
p1080
ssVSally327
p1081
(dp1082
g11
I712
sg12
Vhttps://movie.douban.com/people/Sally327/wish
p1083
sg14
I58
sg15
Vhttps://movie.douban.com/people/Sally327/collect
p1084
ssVamhooo
p1085
(dp1086
g11
I724
sg12
Vhttps://movie.douban.com/people/amhooo/wish
p1087
sg14
I281
sg15
Vhttps://movie.douban.com/people/amhooo/collect
p1088
ssV15485620
p1089
(dp1090
g11
I726
sg12
Vhttps://movie.douban.com/people/15485620/wish
p1091
sg14
I724
sg15
Vhttps://movie.douban.com/people/15485620/collect
p1092
ssVmoshiliunian
p1093
(dp1094
g3
I745
sg4
Vhttps://movie.douban.com/people/moshiliunian/wish
p1095
sg6
I72
sg7
Vhttps://movie.douban.com/people/moshiliunian/collect
p1096
ssVsearchforriver
p1097
(dp1098
g11
I936
sg12
Vhttps://movie.douban.com/people/searchforriver/wish
p1099
sg14
I383
sg15
Vhttps://movie.douban.com/people/searchforriver/collect
p1100
ssVOVER_react
p1101
(dp1102
g11
I526
sg12
Vhttps://movie.douban.com/people/OVER_react/wish
p1103
sg14
I256
sg15
Vhttps://movie.douban.com/people/OVER_react/collect
p1104
ssVmeifyrt
p1105
(dp1106
g3
I1418
sg4
Vhttps://movie.douban.com/people/meifyrt/wish
p1107
sg6
I853
sg7
Vhttps://movie.douban.com/people/meifyrt/collect
p1108
ssVBudaphin
p1109
(dp1110
g11
I1251
sg12
Vhttps://movie.douban.com/people/Budaphin/wish
p1111
sg14
I1125
sg15
Vhttps://movie.douban.com/people/Budaphin/collect
p1112
ssVcitouprince
p1113
(dp1114
g11
I904
sg12
Vhttps://movie.douban.com/people/citouprince/wish
p1115
sg14
I285
sg15
Vhttps://movie.douban.com/people/citouprince/collect
p1116
ssV1875805
p1117
(dp1118
g11
I1369
sg12
Vhttps://movie.douban.com/people/1875805/wish
p1119
sg14
I262
sg15
Vhttps://movie.douban.com/people/1875805/collect
p1120
ssVsummerxg
p1121
(dp1122
g11
I1308
sg12
Vhttps://movie.douban.com/people/summerxg/wish
p1123
sg14
I646
sg15
Vhttps://movie.douban.com/people/summerxg/collect
p1124
ssVimlqh
p1125
(dp1126
g11
I544
sg12
Vhttps://movie.douban.com/people/imlqh/wish
p1127
sg14
I226
sg15
Vhttps://movie.douban.com/people/imlqh/collect
p1128
ssVAudreyHwang
p1129
(dp1130
g11
I1364
sg12
Vhttps://movie.douban.com/people/AudreyHwang/wish
p1131
sg14
I154
sg15
Vhttps://movie.douban.com/people/AudreyHwang/collect
p1132
ssVthismortalcoil
p1133
(dp1134
g11
I946
sg12
Vhttps://movie.douban.com/people/thismortalcoil/wish
p1135
sg14
I287
sg15
Vhttps://movie.douban.com/people/thismortalcoil/collect
p1136
ssVluanma1977
p1137
(dp1138
g11
I4614
sg12
Vhttps://movie.douban.com/people/luanma1977/wish
p1139
sg14
I1412
sg15
Vhttps://movie.douban.com/people/luanma1977/collect
p1140
ssVdream_lee
p1141
(dp1142
g11
I741
sg12
Vhttps://movie.douban.com/people/dream_lee/wish
p1143
sg14
I267
sg15
Vhttps://movie.douban.com/people/dream_lee/collect
p1144
ssVPlumed__Serpent
p1145
(dp1146
g11
I2778
sg12
Vhttps://movie.douban.com/people/Plumed__Serpent/wish
p1147
sg14
I325
sg15
Vhttps://movie.douban.com/people/Plumed__Serpent/collect
p1148
ssVlittleworld
p1149
(dp1150
g11
I618
sg12
Vhttps://movie.douban.com/people/littleworld/wish
p1151
sg14
I149
sg15
Vhttps://movie.douban.com/people/littleworld/collect
p1152
ssVmegryan
p1153
(dp1154
g11
I1614
sg12
Vhttps://movie.douban.com/people/megryan/wish
p1155
sg14
I267
sg15
Vhttps://movie.douban.com/people/megryan/collect
p1156
ssVaugest
p1157
(dp1158
g11
I1010
sg12
Vhttps://movie.douban.com/people/augest/wish
p1159
sg14
I233
sg15
Vhttps://movie.douban.com/people/augest/collect
p1160
ssVfade
p1161
(dp1162
g11
I1286
sg12
Vhttps://movie.douban.com/people/fade/wish
p1163
sg14
I82
sg15
Vhttps://movie.douban.com/people/fade/collect
p1164
ssVyanshu55
p1165
(dp1166
g11
I1826
sg12
Vhttps://movie.douban.com/people/yanshu55/wish
p1167
sg14
I856
sg15
Vhttps://movie.douban.com/people/yanshu55/collect
p1168
ssV124697172
p1169
(dp1170
g11
I1369
sg12
Vhttps://movie.douban.com/people/124697172/wish
p1171
sg14
I324
sg15
Vhttps://movie.douban.com/people/124697172/collect
p1172
ssVzoeho199437
p1173
(dp1174
g11
I529
sg12
Vhttps://movie.douban.com/people/zoeho199437/wish
p1175
sg14
I96
sg15
Vhttps://movie.douban.com/people/zoeho199437/collect
p1176
ssV52949331
p1177
(dp1178
g11
I752
sg12
Vhttps://movie.douban.com/people/52949331/wish
p1179
sg14
I77
sg15
Vhttps://movie.douban.com/people/52949331/collect
p1180
ssVwhitesailor
p1181
(dp1182
g3
I829
sg4
Vhttps://movie.douban.com/people/whitesailor/wish
p1183
sg6
I344
sg7
Vhttps://movie.douban.com/people/whitesailor/collect
p1184
ssVjazyzhao
p1185
(dp1186
g11
I892
sg12
Vhttps://movie.douban.com/people/jazyzhao/wish
p1187
sg14
I87
sg15
Vhttps://movie.douban.com/people/jazyzhao/collect
p1188
ssV1090307
p1189
(dp1190
g3
I699
sg4
Vhttps://movie.douban.com/people/1090307/wish
p1191
sg6
I191
sg7
Vhttps://movie.douban.com/people/1090307/collect
p1192
ssVBonnieB
p1193
(dp1194
g11
I609
sg12
Vhttps://movie.douban.com/people/BonnieB/wish
p1195
sg14
I299
sg15
Vhttps://movie.douban.com/people/BonnieB/collect
p1196
ssVdesperaterice
p1197
(dp1198
g11
I1193
sg12
Vhttps://movie.douban.com/people/desperaterice/wish
p1199
sg14
I149
sg15
Vhttps://movie.douban.com/people/desperaterice/collect
p1200
ssVyuyanjun
p1201
(dp1202
g11
I1175
sg12
Vhttps://movie.douban.com/people/yuyanjun/wish
p1203
sg14
I817
sg15
Vhttps://movie.douban.com/people/yuyanjun/collect
p1204
ssV62457534
p1205
(dp1206
g11
I1473
sg12
Vhttps://movie.douban.com/people/62457534/wish
p1207
sg14
I691
sg15
Vhttps://movie.douban.com/people/62457534/collect
p1208
ssVwen8421
p1209
(dp1210
g11
I583
sg12
Vhttps://movie.douban.com/people/wen8421/wish
p1211
sg14
I144
sg15
Vhttps://movie.douban.com/people/wen8421/collect
p1212
ssVlittle9
p1213
(dp1214
g11
I760
sg12
Vhttps://movie.douban.com/people/little9/wish
p1215
sg14
I211
sg15
Vhttps://movie.douban.com/people/little9/collect
p1216
ssVzeal_she
p1217
(dp1218
g11
I666
sg12
Vhttps://movie.douban.com/people/zeal_she/wish
p1219
sg14
I307
sg15
Vhttps://movie.douban.com/people/zeal_she/collect
p1220
ssVmonikka
p1221
(dp1222
g3
I626
sg4
Vhttps://movie.douban.com/people/monikka/wish
p1223
sg6
I1037
sg7
Vhttps://movie.douban.com/people/monikka/collect
p1224
ssV75040535
p1225
(dp1226
g11
I1375
sg12
Vhttps://movie.douban.com/people/75040535/wish
p1227
sg14
I256
sg15
Vhttps://movie.douban.com/people/75040535/collect
p1228
ssVlin0523
p1229
(dp1230
g11
I1540
sg12
Vhttps://movie.douban.com/people/lin0523/wish
p1231
sg14
I129
sg15
Vhttps://movie.douban.com/people/lin0523/collect
p1232
ssVyouyongyu
p1233
(dp1234
g11
I1493
sg12
Vhttps://movie.douban.com/people/youyongyu/wish
p1235
sg14
I188
sg15
Vhttps://movie.douban.com/people/youyongyu/collect
p1236
ssVlinxiuqian08
p1237
(dp1238
g11
I806
sg12
Vhttps://movie.douban.com/people/linxiuqian08/wish
p1239
sg14
I287
sg15
Vhttps://movie.douban.com/people/linxiuqian08/collect
p1240
ssVjoyboat
p1241
(dp1242
g11
I1164
sg12
Vhttps://movie.douban.com/people/joyboat/wish
p1243
sg14
I893
sg15
Vhttps://movie.douban.com/people/joyboat/collect
p1244
ssVgalanodel
p1245
(dp1246
g11
I1014
sg12
Vhttps://movie.douban.com/people/galanodel/wish
p1247
sg14
I96
sg15
Vhttps://movie.douban.com/people/galanodel/collect
p1248
ssVblueskyfly
p1249
(dp1250
g11
I15480
sg12
Vhttps://movie.douban.com/people/blueskyfly/wish
p1251
sg14
I1549
sg15
Vhttps://movie.douban.com/people/blueskyfly/collect
p1252
ssV1907333
p1253
(dp1254
g11
I1089
sg12
Vhttps://movie.douban.com/people/1907333/wish
p1255
sg14
I349
sg15
Vhttps://movie.douban.com/people/1907333/collect
p1256
ssVchrisxys
p1257
(dp1258
g11
I715
sg12
Vhttps://movie.douban.com/people/chrisxys/wish
p1259
sg14
I120
sg15
Vhttps://movie.douban.com/people/chrisxys/collect
p1260
ssVpandapie
p1261
(dp1262
g11
I807
sg12
Vhttps://movie.douban.com/people/pandapie/wish
p1263
sg14
I172
sg15
Vhttps://movie.douban.com/people/pandapie/collect
p1264
ssVaixiaoke
p1265
(dp1266
g11
I2825
sg12
Vhttps://movie.douban.com/people/aixiaoke/wish
p1267
sg14
I190
sg15
Vhttps://movie.douban.com/people/aixiaoke/collect
p1268
ssVconanemily
p1269
(dp1270
g3
I3506
sg4
Vhttps://movie.douban.com/people/conanemily/wish
p1271
sg6
I299
sg7
Vhttps://movie.douban.com/people/conanemily/collect
p1272
ssVproths
p1273
(dp1274
g11
I994
sg12
Vhttps://movie.douban.com/people/proths/wish
p1275
sg14
I60
sg15
Vhttps://movie.douban.com/people/proths/collect
p1276
ssVnengyinyibeiwu
p1277
(dp1278
g11
I944
sg12
Vhttps://movie.douban.com/people/nengyinyibeiwu/wish
p1279
sg14
I92
sg15
Vhttps://movie.douban.com/people/nengyinyibeiwu/collect
p1280
ssVzazatx
p1281
(dp1282
g11
I573
sg12
Vhttps://movie.douban.com/people/zazatx/wish
p1283
sg14
I369
sg15
Vhttps://movie.douban.com/people/zazatx/collect
p1284
ssV90548304
p1285
(dp1286
g3
I1520
sg4
Vhttps://movie.douban.com/people/90548304/wish
p1287
sg6
I83
sg7
Vhttps://movie.douban.com/people/90548304/collect
p1288
ssVeggsbox.ee
p1289
(dp1290
g11
I1060
sg12
Vhttps://movie.douban.com/people/eggsbox.ee/wish
p1291
sg14
I326
sg15
Vhttps://movie.douban.com/people/eggsbox.ee/collect
p1292
ssVdandan0919
p1293
(dp1294
g11
I590
sg12
Vhttps://movie.douban.com/people/dandan0919/wish
p1295
sg14
I856
sg15
Vhttps://movie.douban.com/people/dandan0919/collect
p1296
ssVryan1989
p1297
(dp1298
g11
I643
sg12
Vhttps://movie.douban.com/people/ryan1989/wish
p1299
sg14
I410
sg15
Vhttps://movie.douban.com/people/ryan1989/collect
p1300
ssV1336825
p1301
(dp1302
g11
I740
sg12
Vhttps://movie.douban.com/people/1336825/wish
p1303
sg14
I69
sg15
Vhttps://movie.douban.com/people/1336825/collect
p1304
ssV50219833
p1305
(dp1306
g3
I1349
sg4
Vhttps://movie.douban.com/people/50219833/wish
p1307
sg6
I885
sg7
Vhttps://movie.douban.com/people/50219833/collect
p1308
ssVflowerann
p1309
(dp1310
g11
I1789
sg12
Vhttps://movie.douban.com/people/flowerann/wish
p1311
sg14
I1283
sg15
Vhttps://movie.douban.com/people/flowerann/collect
p1312
ssV1139045
p1313
(dp1314
g11
I952
sg12
Vhttps://movie.douban.com/people/1139045/wish
p1315
sg14
I202
sg15
Vhttps://movie.douban.com/people/1139045/collect
p1316
ssV2784323
p1317
(dp1318
g11
I2465
sg12
Vhttps://movie.douban.com/people/2784323/wish
p1319
sg14
I1042
sg15
Vhttps://movie.douban.com/people/2784323/collect
p1320
ssV1828898
p1321
(dp1322
g3
I3101
sg4
Vhttps://movie.douban.com/people/1828898/wish
p1323
sg6
I2054
sg7
Vhttps://movie.douban.com/people/1828898/collect
p1324
ssVcandiceyang
p1325
(dp1326
g11
I650
sg12
Vhttps://movie.douban.com/people/candiceyang/wish
p1327
sg14
I537
sg15
Vhttps://movie.douban.com/people/candiceyang/collect
p1328
ssVGoldFish
p1329
(dp1330
g11
I795
sg12
Vhttps://movie.douban.com/people/GoldFish/wish
p1331
sg14
I1197
sg15
Vhttps://movie.douban.com/people/GoldFish/collect
p1332
ssValienning
p1333
(dp1334
g11
I1598
sg12
Vhttps://movie.douban.com/people/alienning/wish
p1335
sg14
I94
sg15
Vhttps://movie.douban.com/people/alienning/collect
p1336
ssV1082511
p1337
(dp1338
g11
I880
sg12
Vhttps://movie.douban.com/people/1082511/wish
p1339
sg14
I110
sg15
Vhttps://movie.douban.com/people/1082511/collect
p1340
ssVhlm
p1341
(dp1342
g11
I1296
sg12
Vhttps://movie.douban.com/people/hlm/wish
p1343
sg14
I247
sg15
Vhttps://movie.douban.com/people/hlm/collect
p1344
ssVhalleybachelor
p1345
(dp1346
g11
I1893
sg12
Vhttps://movie.douban.com/people/halleybachelor/wish
p1347
sg14
I653
sg15
Vhttps://movie.douban.com/people/halleybachelor/collect
p1348
ssVshenxuzhu
p1349
(dp1350
g11
I1361
sg12
Vhttps://movie.douban.com/people/shenxuzhu/wish
p1351
sg14
I1235
sg15
Vhttps://movie.douban.com/people/shenxuzhu/collect
p1352
ssVwzdbsmn
p1353
(dp1354
g11
I594
sg12
Vhttps://movie.douban.com/people/wzdbsmn/wish
p1355
sg14
I206
sg15
Vhttps://movie.douban.com/people/wzdbsmn/collect
p1356
ssVnyfa
p1357
(dp1358
g11
I596
sg12
Vhttps://movie.douban.com/people/nyfa/wish
p1359
sg14
I105
sg15
Vhttps://movie.douban.com/people/nyfa/collect
p1360
ssV1826673
p1361
(dp1362
g11
I934
sg12
Vhttps://movie.douban.com/people/1826673/wish
p1363
sg14
I93
sg15
Vhttps://movie.douban.com/people/1826673/collect
p1364
ssVhuhu1999
p1365
(dp1366
g11
I1913
sg12
Vhttps://movie.douban.com/people/huhu1999/wish
p1367
sg14
I713
sg15
Vhttps://movie.douban.com/people/huhu1999/collect
p1368
ssVewing126
p1369
(dp1370
g11
I1328
sg12
Vhttps://movie.douban.com/people/ewing126/wish
p1371
sg14
I712
sg15
Vhttps://movie.douban.com/people/ewing126/collect
p1372
ssVhaeyukitachi
p1373
(dp1374
g11
I789
sg12
Vhttps://movie.douban.com/people/haeyukitachi/wish
p1375
sg14
I869
sg15
Vhttps://movie.douban.com/people/haeyukitachi/collect
p1376
ssVmulinsensen
p1377
(dp1378
g11
I581
sg12
Vhttps://movie.douban.com/people/mulinsensen/wish
p1379
sg14
I310
sg15
Vhttps://movie.douban.com/people/mulinsensen/collect
p1380
ssVgus
p1381
(dp1382
g11
I722
sg12
Vhttps://movie.douban.com/people/gus/wish
p1383
sg14
I299
sg15
Vhttps://movie.douban.com/people/gus/collect
p1384
ssV52524623
p1385
(dp1386
g11
I753
sg12
Vhttps://movie.douban.com/people/52524623/wish
p1387
sg14
I114
sg15
Vhttps://movie.douban.com/people/52524623/collect
p1388
ssVymcq
p1389
(dp1390
g3
I889
sg4
Vhttps://movie.douban.com/people/ymcq/wish
p1391
sg6
I259
sg7
Vhttps://movie.douban.com/people/ymcq/collect
p1392
ssVJoGreen
p1393
(dp1394
g11
I2166
sg12
Vhttps://movie.douban.com/people/JoGreen/wish
p1395
sg14
I1378
sg15
Vhttps://movie.douban.com/people/JoGreen/collect
p1396
ssVdreamfox
p1397
(dp1398
g11
I4296
sg12
Vhttps://movie.douban.com/people/dreamfox/wish
p1399
sg14
I76
sg15
Vhttps://movie.douban.com/people/dreamfox/collect
p1400
ssVevensky
p1401
(dp1402
g11
I734
sg12
Vhttps://movie.douban.com/people/evensky/wish
p1403
sg14
I115
sg15
Vhttps://movie.douban.com/people/evensky/collect
p1404
ssVMOMOWOWO
p1405
(dp1406
g11
I692
sg12
Vhttps://movie.douban.com/people/MOMOWOWO/wish
p1407
sg14
I73
sg15
Vhttps://movie.douban.com/people/MOMOWOWO/collect
p1408
ssV57325467
p1409
(dp1410
g11
I1004
sg12
Vhttps://movie.douban.com/people/57325467/wish
p1411
sg14
I593
sg15
Vhttps://movie.douban.com/people/57325467/collect
p1412
ssVflower21
p1413
(dp1414
g11
I3553
sg12
Vhttps://movie.douban.com/people/flower21/wish
p1415
sg14
I136
sg15
Vhttps://movie.douban.com/people/flower21/collect
p1416
ssVFay.Wong
p1417
(dp1418
g11
I1030
sg12
Vhttps://movie.douban.com/people/Fay.Wong/wish
p1419
sg14
I127
sg15
Vhttps://movie.douban.com/people/Fay.Wong/collect
p1420
ssVDanys
p1421
(dp1422
g11
I2106
sg12
Vhttps://movie.douban.com/people/Danys/wish
p1423
sg14
I147
sg15
Vhttps://movie.douban.com/people/Danys/collect
p1424
ssVciney
p1425
(dp1426
g11
I1063
sg12
Vhttps://movie.douban.com/people/ciney/wish
p1427
sg14
I597
sg15
Vhttps://movie.douban.com/people/ciney/collect
p1428
ssVsacwr
p1429
(dp1430
g11
I1541
sg12
Vhttps://movie.douban.com/people/sacwr/wish
p1431
sg14
I314
sg15
Vhttps://movie.douban.com/people/sacwr/collect
p1432
ssVmayuane
p1433
(dp1434
g11
I759
sg12
Vhttps://movie.douban.com/people/mayuane/wish
p1435
sg14
I380
sg15
Vhttps://movie.douban.com/people/mayuane/collect
p1436
ssVdyshaizi
p1437
(dp1438
g11
I573
sg12
Vhttps://movie.douban.com/people/dyshaizi/wish
p1439
sg14
I134
sg15
Vhttps://movie.douban.com/people/dyshaizi/collect
p1440
ssVfish6058
p1441
(dp1442
g3
I1861
sg4
Vhttps://movie.douban.com/people/fish6058/wish
p1443
sg6
I124
sg7
Vhttps://movie.douban.com/people/fish6058/collect
p1444
ssVhuangxiaoxie
p1445
(dp1446
g3
I2638
sg4
Vhttps://movie.douban.com/people/huangxiaoxie/wish
p1447
sg6
I5268
sg7
Vhttps://movie.douban.com/people/huangxiaoxie/collect
p1448
ssVyuyiheng
p1449
(dp1450
g11
I526
sg12
Vhttps://movie.douban.com/people/yuyiheng/wish
p1451
sg14
I232
sg15
Vhttps://movie.douban.com/people/yuyiheng/collect
p1452
ssVGayfriend10ve
p1453
(dp1454
g11
I709
sg12
Vhttps://movie.douban.com/people/Gayfriend10ve/wish
p1455
sg14
I302
sg15
Vhttps://movie.douban.com/people/Gayfriend10ve/collect
p1456
ssVKAYXU
p1457
(dp1458
g11
I1009
sg12
Vhttps://movie.douban.com/people/KAYXU/wish
p1459
sg14
I418
sg15
Vhttps://movie.douban.com/people/KAYXU/collect
p1460
ssV2009122
p1461
(dp1462
g11
I1042
sg12
Vhttps://movie.douban.com/people/2009122/wish
p1463
sg14
I353
sg15
Vhttps://movie.douban.com/people/2009122/collect
p1464
ssV3082910
p1465
(dp1466
g11
I604
sg12
Vhttps://movie.douban.com/people/3082910/wish
p1467
sg14
I78
sg15
Vhttps://movie.douban.com/people/3082910/collect
p1468
ssVjanice5680
p1469
(dp1470
g11
I1238
sg12
Vhttps://movie.douban.com/people/janice5680/wish
p1471
sg14
I257
sg15
Vhttps://movie.douban.com/people/janice5680/collect
p1472
ssV27744445
p1473
(dp1474
g11
I796
sg12
Vhttps://movie.douban.com/people/27744445/wish
p1475
sg14
I98
sg15
Vhttps://movie.douban.com/people/27744445/collect
p1476
ssVliruixian
p1477
(dp1478
g3
I970
sg4
Vhttps://movie.douban.com/people/liruixian/wish
p1479
sg6
I194
sg7
Vhttps://movie.douban.com/people/liruixian/collect
p1480
ssVjayeee000
p1481
(dp1482
g11
I633
sg12
Vhttps://movie.douban.com/people/jayeee000/wish
p1483
sg14
I361
sg15
Vhttps://movie.douban.com/people/jayeee000/collect
p1484
ssVJJSJJ
p1485
(dp1486
g11
I1408
sg12
Vhttps://movie.douban.com/people/JJSJJ/wish
p1487
sg14
I502
sg15
Vhttps://movie.douban.com/people/JJSJJ/collect
p1488
ssVdipezzy
p1489
(dp1490
g11
I1845
sg12
Vhttps://movie.douban.com/people/dipezzy/wish
p1491
sg14
I394
sg15
Vhttps://movie.douban.com/people/dipezzy/collect
p1492
ssVbettyvaka
p1493
(dp1494
g11
I1411
sg12
Vhttps://movie.douban.com/people/bettyvaka/wish
p1495
sg14
I705
sg15
Vhttps://movie.douban.com/people/bettyvaka/collect
p1496
ssVyuqi5340
p1497
(dp1498
g11
I1651
sg12
Vhttps://movie.douban.com/people/yuqi5340/wish
p1499
sg14
I274
sg15
Vhttps://movie.douban.com/people/yuqi5340/collect
p1500
ssVlittleleap
p1501
(dp1502
g11
I1093
sg12
Vhttps://movie.douban.com/people/littleleap/wish
p1503
sg14
I577
sg15
Vhttps://movie.douban.com/people/littleleap/collect
p1504
ssVnipperbeta
p1505
(dp1506
g11
I1875
sg12
Vhttps://movie.douban.com/people/nipperbeta/wish
p1507
sg14
I53
sg15
Vhttps://movie.douban.com/people/nipperbeta/collect
p1508
ssV32746845
p1509
(dp1510
g11
I813
sg12
Vhttps://movie.douban.com/people/32746845/wish
p1511
sg14
I58
sg15
Vhttps://movie.douban.com/people/32746845/collect
p1512
ssVdawnzkan
p1513
(dp1514
g11
I583
sg12
Vhttps://movie.douban.com/people/dawnzkan/wish
p1515
sg14
I199
sg15
Vhttps://movie.douban.com/people/dawnzkan/collect
p1516
ssVzech
p1517
(dp1518
g11
I850
sg12
Vhttps://movie.douban.com/people/zech/wish
p1519
sg14
I168
sg15
Vhttps://movie.douban.com/people/zech/collect
p1520
ssV35459636
p1521
(dp1522
g11
I1434
sg12
Vhttps://movie.douban.com/people/35459636/wish
p1523
sg14
I562
sg15
Vhttps://movie.douban.com/people/35459636/collect
p1524
ssV1216526
p1525
(dp1526
g11
I1464
sg12
Vhttps://movie.douban.com/people/1216526/wish
p1527
sg14
I881
sg15
Vhttps://movie.douban.com/people/1216526/collect
p1528
ssV51514734
p1529
(dp1530
g11
I945
sg12
Vhttps://movie.douban.com/people/51514734/wish
p1531
sg14
I454
sg15
Vhttps://movie.douban.com/people/51514734/collect
p1532
ssVstar1114
p1533
(dp1534
g3
I749
sg4
Vhttps://movie.douban.com/people/star1114/wish
p1535
sg6
I242
sg7
Vhttps://movie.douban.com/people/star1114/collect
p1536
ssVsunyangchina
p1537
(dp1538
g11
I932
sg12
Vhttps://movie.douban.com/people/sunyangchina/wish
p1539
sg14
I214
sg15
Vhttps://movie.douban.com/people/sunyangchina/collect
p1540
ssV1402275
p1541
(dp1542
g11
I852
sg12
Vhttps://movie.douban.com/people/1402275/wish
p1543
sg14
I87
sg15
Vhttps://movie.douban.com/people/1402275/collect
p1544
ssVsevenletters
p1545
(dp1546
g11
I1931
sg12
Vhttps://movie.douban.com/people/sevenletters/wish
p1547
sg14
I1287
sg15
Vhttps://movie.douban.com/people/sevenletters/collect
p1548
ssV2888286
p1549
(dp1550
g11
I1782
sg12
Vhttps://movie.douban.com/people/2888286/wish
p1551
sg14
I1735
sg15
Vhttps://movie.douban.com/people/2888286/collect
p1552
ssVchangzheng
p1553
(dp1554
g3
I654
sg4
Vhttps://movie.douban.com/people/changzheng/wish
p1555
sg6
I53
sg7
Vhttps://movie.douban.com/people/changzheng/collect
p1556
ssVsatan163
p1557
(dp1558
g11
I2721
sg12
Vhttps://movie.douban.com/people/satan163/wish
p1559
sg14
I3317
sg15
Vhttps://movie.douban.com/people/satan163/collect
p1560
ssVddhhyy
p1561
(dp1562
g11
I831
sg12
Vhttps://movie.douban.com/people/ddhhyy/wish
p1563
sg14
I490
sg15
Vhttps://movie.douban.com/people/ddhhyy/collect
p1564
ssVmaerta
p1565
(dp1566
g3
I1408
sg4
Vhttps://movie.douban.com/people/maerta/wish
p1567
sg6
I148
sg7
Vhttps://movie.douban.com/people/maerta/collect
p1568
ssV2060650
p1569
(dp1570
g11
I522
sg12
Vhttps://movie.douban.com/people/2060650/wish
p1571
sg14
I236
sg15
Vhttps://movie.douban.com/people/2060650/collect
p1572
ssVjessicadeng
p1573
(dp1574
g11
I958
sg12
Vhttps://movie.douban.com/people/jessicadeng/wish
p1575
sg14
I764
sg15
Vhttps://movie.douban.com/people/jessicadeng/collect
p1576
ssVorang2e
p1577
(dp1578
g11
I669
sg12
Vhttps://movie.douban.com/people/orang2e/wish
p1579
sg14
I154
sg15
Vhttps://movie.douban.com/people/orang2e/collect
p1580
ssV4668466
p1581
(dp1582
g11
I1122
sg12
Vhttps://movie.douban.com/people/4668466/wish
p1583
sg14
I98
sg15
Vhttps://movie.douban.com/people/4668466/collect
p1584
ssVlunasolvo
p1585
(dp1586
g11
I770
sg12
Vhttps://movie.douban.com/people/lunasolvo/wish
p1587
sg14
I54
sg15
Vhttps://movie.douban.com/people/lunasolvo/collect
p1588
ssV4414407
p1589
(dp1590
g11
I1283
sg12
Vhttps://movie.douban.com/people/4414407/wish
p1591
sg14
I224
sg15
Vhttps://movie.douban.com/people/4414407/collect
p1592
ssVangelazha
p1593
(dp1594
g11
I665
sg12
Vhttps://movie.douban.com/people/angelazha/wish
p1595
sg14
I800
sg15
Vhttps://movie.douban.com/people/angelazha/collect
p1596
ssV3547067
p1597
(dp1598
g3
I2610
sg4
Vhttps://movie.douban.com/people/3547067/wish
p1599
sg6
I1503
sg7
Vhttps://movie.douban.com/people/3547067/collect
p1600
ssVchasel
p1601
(dp1602
g11
I673
sg12
Vhttps://movie.douban.com/people/chasel/wish
p1603
sg14
I298
sg15
Vhttps://movie.douban.com/people/chasel/collect
p1604
ssV1534250
p1605
(dp1606
g11
I1246
sg12
Vhttps://movie.douban.com/people/1534250/wish
p1607
sg14
I502
sg15
Vhttps://movie.douban.com/people/1534250/collect
p1608
ssVDeraDQ
p1609
(dp1610
g11
I651
sg12
Vhttps://movie.douban.com/people/DeraDQ/wish
p1611
sg14
I395
sg15
Vhttps://movie.douban.com/people/DeraDQ/collect
p1612
ssVzhou33
p1613
(dp1614
g3
I934
sg4
Vhttps://movie.douban.com/people/zhou33/wish
p1615
sg6
I144
sg7
Vhttps://movie.douban.com/people/zhou33/collect
p1616
ssVanshanxuan
p1617
(dp1618
g11
I4152
sg12
Vhttps://movie.douban.com/people/anshanxuan/wish
p1619
sg14
I808
sg15
Vhttps://movie.douban.com/people/anshanxuan/collect
p1620
ssVxmsgjqr
p1621
(dp1622
g11
I865
sg12
Vhttps://movie.douban.com/people/xmsgjqr/wish
p1623
sg14
I183
sg15
Vhttps://movie.douban.com/people/xmsgjqr/collect
p1624
ssV1529311
p1625
(dp1626
g11
I544
sg12
Vhttps://movie.douban.com/people/1529311/wish
p1627
sg14
I139
sg15
Vhttps://movie.douban.com/people/1529311/collect
p1628
ssVis-tong
p1629
(dp1630
g11
I1538
sg12
Vhttps://movie.douban.com/people/is-tong/wish
p1631
sg14
I88
sg15
Vhttps://movie.douban.com/people/is-tong/collect
p1632
ssVvoyagor
p1633
(dp1634
g3
I1137
sg4
Vhttps://movie.douban.com/people/voyagor/wish
p1635
sg6
I469
sg7
Vhttps://movie.douban.com/people/voyagor/collect
p1636
ssVpangzimiao
p1637
(dp1638
g11
I872
sg12
Vhttps://movie.douban.com/people/pangzimiao/wish
p1639
sg14
I119
sg15
Vhttps://movie.douban.com/people/pangzimiao/collect
p1640
ssVnightkid.tiff
p1641
(dp1642
g11
I688
sg12
Vhttps://movie.douban.com/people/nightkid.tiff/wish
p1643
sg14
I128
sg15
Vhttps://movie.douban.com/people/nightkid.tiff/collect
p1644
ssVHimno
p1645
(dp1646
g11
I2143
sg12
Vhttps://movie.douban.com/people/Himno/wish
p1647
sg14
I317
sg15
Vhttps://movie.douban.com/people/Himno/collect
p1648
ssVjiawan
p1649
(dp1650
g11
I1170
sg12
Vhttps://movie.douban.com/people/jiawan/wish
p1651
sg14
I90
sg15
Vhttps://movie.douban.com/people/jiawan/collect
p1652
ssV2016454
p1653
(dp1654
g11
I646
sg12
Vhttps://movie.douban.com/people/2016454/wish
p1655
sg14
I297
sg15
Vhttps://movie.douban.com/people/2016454/collect
p1656
ssV2317327
p1657
(dp1658
g11
I856
sg12
Vhttps://movie.douban.com/people/2317327/wish
p1659
sg14
I717
sg15
Vhttps://movie.douban.com/people/2317327/collect
p1660
ssV1389249
p1661
(dp1662
g11
I1246
sg12
Vhttps://movie.douban.com/people/1389249/wish
p1663
sg14
I439
sg15
Vhttps://movie.douban.com/people/1389249/collect
p1664
ssVaGGie.
p1665
(dp1666
g11
I966
sg12
Vhttps://movie.douban.com/people/aGGie./wish
p1667
sg14
I245
sg15
Vhttps://movie.douban.com/people/aGGie./collect
p1668
ssVnofish
p1669
(dp1670
g3
I3733
sg4
Vhttps://movie.douban.com/people/nofish/wish
p1671
sg6
I338
sg7
Vhttps://movie.douban.com/people/nofish/collect
p1672
ssVtriangle-zero
p1673
(dp1674
g11
I779
sg12
Vhttps://movie.douban.com/people/triangle-zero/wish
p1675
sg14
I149
sg15
Vhttps://movie.douban.com/people/triangle-zero/collect
p1676
ssV54443287
p1677
(dp1678
g11
I1346
sg12
Vhttps://movie.douban.com/people/54443287/wish
p1679
sg14
I307
sg15
Vhttps://movie.douban.com/people/54443287/collect
p1680
ssVtongcai
p1681
(dp1682
g11
I580
sg12
Vhttps://movie.douban.com/people/tongcai/wish
p1683
sg14
I221
sg15
Vhttps://movie.douban.com/people/tongcai/collect
p1684
ssVT.T.Fung
p1685
(dp1686
g11
I984
sg12
Vhttps://movie.douban.com/people/T.T.Fung/wish
p1687
sg14
I427
sg15
Vhttps://movie.douban.com/people/T.T.Fung/collect
p1688
ssVThinkingCat
p1689
(dp1690
g11
I4224
sg12
Vhttps://movie.douban.com/people/ThinkingCat/wish
p1691
sg14
I2398
sg15
Vhttps://movie.douban.com/people/ThinkingCat/collect
p1692
ssVcyzcome
p1693
(dp1694
g11
I551
sg12
Vhttps://movie.douban.com/people/cyzcome/wish
p1695
sg14
I137
sg15
Vhttps://movie.douban.com/people/cyzcome/collect
p1696
ssV37472433
p1697
(dp1698
g11
I1910
sg12
Vhttps://movie.douban.com/people/37472433/wish
p1699
sg14
I469
sg15
Vhttps://movie.douban.com/people/37472433/collect
p1700
ssVunicorn_apple
p1701
(dp1702
g11
I945
sg12
Vhttps://movie.douban.com/people/unicorn_apple/wish
p1703
sg14
I76
sg15
Vhttps://movie.douban.com/people/unicorn_apple/collect
p1704
ssVSimonsaye
p1705
(dp1706
g11
I902
sg12
Vhttps://movie.douban.com/people/Simonsaye/wish
p1707
sg14
I259
sg15
Vhttps://movie.douban.com/people/Simonsaye/collect
p1708
ssV1077570
p1709
(dp1710
g11
I1982
sg12
Vhttps://movie.douban.com/people/1077570/wish
p1711
sg14
I1176
sg15
Vhttps://movie.douban.com/people/1077570/collect
p1712
ssVthuvacuo
p1713
(dp1714
g11
I896
sg12
Vhttps://movie.douban.com/people/thuvacuo/wish
p1715
sg14
I156
sg15
Vhttps://movie.douban.com/people/thuvacuo/collect
p1716
ssVchenkerry
p1717
(dp1718
g11
I1130
sg12
Vhttps://movie.douban.com/people/chenkerry/wish
p1719
sg14
I434
sg15
Vhttps://movie.douban.com/people/chenkerry/collect
p1720
ssV8645484
p1721
(dp1722
g11
I1191
sg12
Vhttps://movie.douban.com/people/8645484/wish
p1723
sg14
I674
sg15
Vhttps://movie.douban.com/people/8645484/collect
p1724
ssVrememberjuly
p1725
(dp1726
g3
I1419
sg4
Vhttps://movie.douban.com/people/rememberjuly/wish
p1727
sg6
I336
sg7
Vhttps://movie.douban.com/people/rememberjuly/collect
p1728
ssVyimihai
p1729
(dp1730
g11
I1464
sg12
Vhttps://movie.douban.com/people/yimihai/wish
p1731
sg14
I1246
sg15
Vhttps://movie.douban.com/people/yimihai/collect
p1732
ssV2750884
p1733
(dp1734
g11
I1171
sg12
Vhttps://movie.douban.com/people/2750884/wish
p1735
sg14
I262
sg15
Vhttps://movie.douban.com/people/2750884/collect
p1736
ssVmiuccia
p1737
(dp1738
g11
I1135
sg12
Vhttps://movie.douban.com/people/miuccia/wish
p1739
sg14
I428
sg15
Vhttps://movie.douban.com/people/miuccia/collect
p1740
ssVeden_L
p1741
(dp1742
g11
I532
sg12
Vhttps://movie.douban.com/people/eden_L/wish
p1743
sg14
I83
sg15
Vhttps://movie.douban.com/people/eden_L/collect
p1744
ssVmado1983
p1745
(dp1746
g11
I697
sg12
Vhttps://movie.douban.com/people/mado1983/wish
p1747
sg14
I58
sg15
Vhttps://movie.douban.com/people/mado1983/collect
p1748
ssV48532700
p1749
(dp1750
g11
I626
sg12
Vhttps://movie.douban.com/people/48532700/wish
p1751
sg14
I118
sg15
Vhttps://movie.douban.com/people/48532700/collect
p1752
ssVz1984s
p1753
(dp1754
g11
I1516
sg12
Vhttps://movie.douban.com/people/z1984s/wish
p1755
sg14
I126
sg15
Vhttps://movie.douban.com/people/z1984s/collect
p1756
ssVblackcoffeeme
p1757
(dp1758
g11
I877
sg12
Vhttps://movie.douban.com/people/blackcoffeeme/wish
p1759
sg14
I71
sg15
Vhttps://movie.douban.com/people/blackcoffeeme/collect
p1760
ssVliliho
p1761
(dp1762
g11
I646
sg12
Vhttps://movie.douban.com/people/liliho/wish
p1763
sg14
I238
sg15
Vhttps://movie.douban.com/people/liliho/collect
p1764
ssV75261344
p1765
(dp1766
g11
I859
sg12
Vhttps://movie.douban.com/people/75261344/wish
p1767
sg14
I89
sg15
Vhttps://movie.douban.com/people/75261344/collect
p1768
ssVchitb
p1769
(dp1770
g3
I1439
sg4
Vhttps://movie.douban.com/people/chitb/wish
p1771
sg6
I692
sg7
Vhttps://movie.douban.com/people/chitb/collect
p1772
ssV1226511
p1773
(dp1774
g11
I2855
sg12
Vhttps://movie.douban.com/people/1226511/wish
p1775
sg14
I295
sg15
Vhttps://movie.douban.com/people/1226511/collect
p1776
ssVviennavirus
p1777
(dp1778
g11
I1002
sg12
Vhttps://movie.douban.com/people/viennavirus/wish
p1779
sg14
I260
sg15
Vhttps://movie.douban.com/people/viennavirus/collect
p1780
ssV1463306
p1781
(dp1782
g11
I1248
sg12
Vhttps://movie.douban.com/people/1463306/wish
p1783
sg14
I99
sg15
Vhttps://movie.douban.com/people/1463306/collect
p1784
ssVhandkerchief
p1785
(dp1786
g3
I1813
sg4
Vhttps://movie.douban.com/people/handkerchief/wish
p1787
sg6
I657
sg7
Vhttps://movie.douban.com/people/handkerchief/collect
p1788
ssVfyyuyutt
p1789
(dp1790
g3
I894
sg4
Vhttps://movie.douban.com/people/fyyuyutt/wish
p1791
sg6
I236
sg7
Vhttps://movie.douban.com/people/fyyuyutt/collect
p1792
ssV2487264
p1793
(dp1794
g11
I595
sg12
Vhttps://movie.douban.com/people/2487264/wish
p1795
sg14
I86
sg15
Vhttps://movie.douban.com/people/2487264/collect
p1796
ssVqi-shao-shang
p1797
(dp1798
g11
I2093
sg12
Vhttps://movie.douban.com/people/qi-shao-shang/wish
p1799
sg14
I448
sg15
Vhttps://movie.douban.com/people/qi-shao-shang/collect
p1800
ssVabomination
p1801
(dp1802
g3
I586
sg4
Vhttps://movie.douban.com/people/abomination/wish
p1803
sg6
I98
sg7
Vhttps://movie.douban.com/people/abomination/collect
p1804
ssV1667037
p1805
(dp1806
g11
I1514
sg12
Vhttps://movie.douban.com/people/1667037/wish
p1807
sg14
I441
sg15
Vhttps://movie.douban.com/people/1667037/collect
p1808
ssVjunzi1989
p1809
(dp1810
g11
I587
sg12
Vhttps://movie.douban.com/people/junzi1989/wish
p1811
sg14
I196
sg15
Vhttps://movie.douban.com/people/junzi1989/collect
p1812
ssVhuanyue
p1813
(dp1814
g3
I834
sg4
Vhttps://movie.douban.com/people/huanyue/wish
p1815
sg6
I73
sg7
Vhttps://movie.douban.com/people/huanyue/collect
p1816
ssVciaograce
p1817
(dp1818
g11
I505
sg12
Vhttps://movie.douban.com/people/ciaograce/wish
p1819
sg14
I53
sg15
Vhttps://movie.douban.com/people/ciaograce/collect
p1820
ssVlovelypocky
p1821
(dp1822
g11
I1404
sg12
Vhttps://movie.douban.com/people/lovelypocky/wish
p1823
sg14
I1634
sg15
Vhttps://movie.douban.com/people/lovelypocky/collect
p1824
ssVyouthfilm
p1825
(dp1826
g3
I623
sg4
Vhttps://movie.douban.com/people/youthfilm/wish
p1827
sg6
I737
sg7
Vhttps://movie.douban.com/people/youthfilm/collect
p1828
ssVleon_howe
p1829
(dp1830
g11
I1442
sg12
Vhttps://movie.douban.com/people/leon_howe/wish
p1831
sg14
I279
sg15
Vhttps://movie.douban.com/people/leon_howe/collect
p1832
ssVoriole
p1833
(dp1834
g11
I721
sg12
Vhttps://movie.douban.com/people/oriole/wish
p1835
sg14
I61
sg15
Vhttps://movie.douban.com/people/oriole/collect
p1836
ssV1800696
p1837
(dp1838
g11
I953
sg12
Vhttps://movie.douban.com/people/1800696/wish
p1839
sg14
I221
sg15
Vhttps://movie.douban.com/people/1800696/collect
p1840
ssVyiyi841
p1841
(dp1842
g11
I506
sg12
Vhttps://movie.douban.com/people/yiyi841/wish
p1843
sg14
I85
sg15
Vhttps://movie.douban.com/people/yiyi841/collect
p1844
ssVr9ronaldo
p1845
(dp1846
g11
I1424
sg12
Vhttps://movie.douban.com/people/r9ronaldo/wish
p1847
sg14
I470
sg15
Vhttps://movie.douban.com/people/r9ronaldo/collect
p1848
ssV2396055
p1849
(dp1850
g11
I1083
sg12
Vhttps://movie.douban.com/people/2396055/wish
p1851
sg14
I555
sg15
Vhttps://movie.douban.com/people/2396055/collect
p1852
ssVchutian_8986
p1853
(dp1854
g11
I1021
sg12
Vhttps://movie.douban.com/people/chutian_8986/wish
p1855
sg14
I189
sg15
Vhttps://movie.douban.com/people/chutian_8986/collect
p1856
ssVsharplhl
p1857
(dp1858
g11
I1026
sg12
Vhttps://movie.douban.com/people/sharplhl/wish
p1859
sg14
I236
sg15
Vhttps://movie.douban.com/people/sharplhl/collect
p1860
ssVPlutoyw
p1861
(dp1862
g11
I1361
sg12
Vhttps://movie.douban.com/people/Plutoyw/wish
p1863
sg14
I453
sg15
Vhttps://movie.douban.com/people/Plutoyw/collect
p1864
ssVyysmini
p1865
(dp1866
g11
I534
sg12
Vhttps://movie.douban.com/people/yysmini/wish
p1867
sg14
I187
sg15
Vhttps://movie.douban.com/people/yysmini/collect
p1868
ssV57093382
p1869
(dp1870
g11
I1495
sg12
Vhttps://movie.douban.com/people/57093382/wish
p1871
sg14
I1142
sg15
Vhttps://movie.douban.com/people/57093382/collect
p1872
ssVnvgeduo
p1873
(dp1874
g11
I781
sg12
Vhttps://movie.douban.com/people/nvgeduo/wish
p1875
sg14
I199
sg15
Vhttps://movie.douban.com/people/nvgeduo/collect
p1876
ssVbrainsto
p1877
(dp1878
g11
I956
sg12
Vhttps://movie.douban.com/people/brainsto/wish
p1879
sg14
I419
sg15
Vhttps://movie.douban.com/people/brainsto/collect
p1880
ssVwaffler
p1881
(dp1882
g11
I1352
sg12
Vhttps://movie.douban.com/people/waffler/wish
p1883
sg14
I106
sg15
Vhttps://movie.douban.com/people/waffler/collect
p1884
ssVapoollo
p1885
(dp1886
g11
I1087
sg12
Vhttps://movie.douban.com/people/apoollo/wish
p1887
sg14
I66
sg15
Vhttps://movie.douban.com/people/apoollo/collect
p1888
ssVfucking-fun
p1889
(dp1890
g11
I530
sg12
Vhttps://movie.douban.com/people/fucking-fun/wish
p1891
sg14
I51
sg15
Vhttps://movie.douban.com/people/fucking-fun/collect
p1892
ssV1541305
p1893
(dp1894
g11
I1561
sg12
Vhttps://movie.douban.com/people/1541305/wish
p1895
sg14
I166
sg15
Vhttps://movie.douban.com/people/1541305/collect
p1896
ssVxudabeng
p1897
(dp1898
g3
I1207
sg4
Vhttps://movie.douban.com/people/xudabeng/wish
p1899
sg6
I92
sg7
Vhttps://movie.douban.com/people/xudabeng/collect
p1900
ssVaiecho
p1901
(dp1902
g11
I898
sg12
Vhttps://movie.douban.com/people/aiecho/wish
p1903
sg14
I301
sg15
Vhttps://movie.douban.com/people/aiecho/collect
p1904
ssVi-am-straight
p1905
(dp1906
g11
I1428
sg12
Vhttps://movie.douban.com/people/i-am-straight/wish
p1907
sg14
I458
sg15
Vhttps://movie.douban.com/people/i-am-straight/collect
p1908
ssVaki_520
p1909
(dp1910
g3
I764
sg4
Vhttps://movie.douban.com/people/aki_520/wish
p1911
sg6
I88
sg7
Vhttps://movie.douban.com/people/aki_520/collect
p1912
ssVkiwi831
p1913
(dp1914
g11
I551
sg12
Vhttps://movie.douban.com/people/kiwi831/wish
p1915
sg14
I265
sg15
Vhttps://movie.douban.com/people/kiwi831/collect
p1916
ssVsixiaoshui
p1917
(dp1918
g3
I865
sg4
Vhttps://movie.douban.com/people/sixiaoshui/wish
p1919
sg6
I181
sg7
Vhttps://movie.douban.com/people/sixiaoshui/collect
p1920
ssVfredericshen
p1921
(dp1922
g11
I598
sg12
Vhttps://movie.douban.com/people/fredericshen/wish
p1923
sg14
I177
sg15
Vhttps://movie.douban.com/people/fredericshen/collect
p1924
ssVtangmenxiaosan
p1925
(dp1926
g3
I1439
sg4
Vhttps://movie.douban.com/people/tangmenxiaosan/wish
p1927
sg6
I266
sg7
Vhttps://movie.douban.com/people/tangmenxiaosan/collect
p1928
ssVlzxt06
p1929
(dp1930
g11
I760
sg12
Vhttps://movie.douban.com/people/lzxt06/wish
p1931
sg14
I51
sg15
Vhttps://movie.douban.com/people/lzxt06/collect
p1932
ssVleeforce
p1933
(dp1934
g11
I1496
sg12
Vhttps://movie.douban.com/people/leeforce/wish
p1935
sg14
I1091
sg15
Vhttps://movie.douban.com/people/leeforce/collect
p1936
ssVcacachan
p1937
(dp1938
g11
I725
sg12
Vhttps://movie.douban.com/people/cacachan/wish
p1939
sg14
I250
sg15
Vhttps://movie.douban.com/people/cacachan/collect
p1940
ssVHolen
p1941
(dp1942
g11
I839
sg12
Vhttps://movie.douban.com/people/Holen/wish
p1943
sg14
I87
sg15
Vhttps://movie.douban.com/people/Holen/collect
p1944
ssVsevenfanfan
p1945
(dp1946
g11
I1718
sg12
Vhttps://movie.douban.com/people/sevenfanfan/wish
p1947
sg14
I980
sg15
Vhttps://movie.douban.com/people/sevenfanfan/collect
p1948
ssV2155432
p1949
(dp1950
g11
I1653
sg12
Vhttps://movie.douban.com/people/2155432/wish
p1951
sg14
I178
sg15
Vhttps://movie.douban.com/people/2155432/collect
p1952
ssVkooleep
p1953
(dp1954
g11
I545
sg12
Vhttps://movie.douban.com/people/kooleep/wish
p1955
sg14
I202
sg15
Vhttps://movie.douban.com/people/kooleep/collect
p1956
ssVyazone
p1957
(dp1958
g3
I517
sg4
Vhttps://movie.douban.com/people/yazone/wish
p1959
sg6
I124
sg7
Vhttps://movie.douban.com/people/yazone/collect
p1960
ssVgreenyn
p1961
(dp1962
g11
I511
sg12
Vhttps://movie.douban.com/people/greenyn/wish
p1963
sg14
I266
sg15
Vhttps://movie.douban.com/people/greenyn/collect
p1964
ssVBeta-Juliet
p1965
(dp1966
g11
I1114
sg12
Vhttps://movie.douban.com/people/Beta-Juliet/wish
p1967
sg14
I603
sg15
Vhttps://movie.douban.com/people/Beta-Juliet/collect
p1968
ssVnestlejoejoe
p1969
(dp1970
g11
I1393
sg12
Vhttps://movie.douban.com/people/nestlejoejoe/wish
p1971
sg14
I568
sg15
Vhttps://movie.douban.com/people/nestlejoejoe/collect
p1972
ssVwxs723
p1973
(dp1974
g11
I1714
sg12
Vhttps://movie.douban.com/people/wxs723/wish
p1975
sg14
I84
sg15
Vhttps://movie.douban.com/people/wxs723/collect
p1976
ssVsueyard
p1977
(dp1978
g11
I1145
sg12
Vhttps://movie.douban.com/people/sueyard/wish
p1979
sg14
I117
sg15
Vhttps://movie.douban.com/people/sueyard/collect
p1980
ssVmerry224466
p1981
(dp1982
g11
I1256
sg12
Vhttps://movie.douban.com/people/merry224466/wish
p1983
sg14
I717
sg15
Vhttps://movie.douban.com/people/merry224466/collect
p1984
ssVwenqi55520
p1985
(dp1986
g11
I1419
sg12
Vhttps://movie.douban.com/people/wenqi55520/wish
p1987
sg14
I91
sg15
Vhttps://movie.douban.com/people/wenqi55520/collect
p1988
ssV55501970
p1989
(dp1990
g11
I564
sg12
Vhttps://movie.douban.com/people/55501970/wish
p1991
sg14
I705
sg15
Vhttps://movie.douban.com/people/55501970/collect
p1992
ssVihuge
p1993
(dp1994
g11
I2635
sg12
Vhttps://movie.douban.com/people/ihuge/wish
p1995
sg14
I100
sg15
Vhttps://movie.douban.com/people/ihuge/collect
p1996
ssVsunjianshuo
p1997
(dp1998
g11
I506
sg12
Vhttps://movie.douban.com/people/sunjianshuo/wish
p1999
sg14
I74
sg15
Vhttps://movie.douban.com/people/sunjianshuo/collect
p2000
ssVolivecurtain
p2001
(dp2002
g11
I1857
sg12
Vhttps://movie.douban.com/people/olivecurtain/wish
p2003
sg14
I330
sg15
Vhttps://movie.douban.com/people/olivecurtain/collect
p2004
ssVnonocat
p2005
(dp2006
g11
I737
sg12
Vhttps://movie.douban.com/people/nonocat/wish
p2007
sg14
I142
sg15
Vhttps://movie.douban.com/people/nonocat/collect
p2008
ssVfroggrandpa
p2009
(dp2010
g3
I1882
sg4
Vhttps://movie.douban.com/people/froggrandpa/wish
p2011
sg6
I171
sg7
Vhttps://movie.douban.com/people/froggrandpa/collect
p2012
ssVzhoujialin
p2013
(dp2014
g11
I1408
sg12
Vhttps://movie.douban.com/people/zhoujialin/wish
p2015
sg14
I141
sg15
Vhttps://movie.douban.com/people/zhoujialin/collect
p2016
ssVTOROVANDARKO
p2017
(dp2018
g3
I2011
sg4
Vhttps://movie.douban.com/people/TOROVANDARKO/wish
p2019
sg6
I317
sg7
Vhttps://movie.douban.com/people/TOROVANDARKO/collect
p2020
ssVmonlina
p2021
(dp2022
g3
I1510
sg4
Vhttps://movie.douban.com/people/monlina/wish
p2023
sg6
I135
sg7
Vhttps://movie.douban.com/people/monlina/collect
p2024
ssVshmily0706
p2025
(dp2026
g11
I940
sg12
Vhttps://movie.douban.com/people/shmily0706/wish
p2027
sg14
I363
sg15
Vhttps://movie.douban.com/people/shmily0706/collect
p2028
ssViCyber
p2029
(dp2030
g11
I1933
sg12
Vhttps://movie.douban.com/people/iCyber/wish
p2031
sg14
I566
sg15
Vhttps://movie.douban.com/people/iCyber/collect
p2032
ssVzhizhong
p2033
(dp2034
g11
I1090
sg12
Vhttps://movie.douban.com/people/zhizhong/wish
p2035
sg14
I181
sg15
Vhttps://movie.douban.com/people/zhizhong/collect
p2036
ssVkaka_a
p2037
(dp2038
g11
I599
sg12
Vhttps://movie.douban.com/people/kaka_a/wish
p2039
sg14
I70
sg15
Vhttps://movie.douban.com/people/kaka_a/collect
p2040
ssV55489338
p2041
(dp2042
g11
I778
sg12
Vhttps://movie.douban.com/people/55489338/wish
p2043
sg14
I126
sg15
Vhttps://movie.douban.com/people/55489338/collect
p2044
ssVhyj_9201
p2045
(dp2046
g11
I1402
sg12
Vhttps://movie.douban.com/people/hyj_9201/wish
p2047
sg14
I569
sg15
Vhttps://movie.douban.com/people/hyj_9201/collect
p2048
ssV102844652
p2049
(dp2050
g11
I1003
sg12
Vhttps://movie.douban.com/people/102844652/wish
p2051
sg14
I1175
sg15
Vhttps://movie.douban.com/people/102844652/collect
p2052
ssVc-c7
p2053
(dp2054
g11
I1227
sg12
Vhttps://movie.douban.com/people/c-c7/wish
p2055
sg14
I580
sg15
Vhttps://movie.douban.com/people/c-c7/collect
p2056
ssVjingangnumu
p2057
(dp2058
g3
I692
sg4
Vhttps://movie.douban.com/people/jingangnumu/wish
p2059
sg6
I70
sg7
Vhttps://movie.douban.com/people/jingangnumu/collect
p2060
ssV3064233
p2061
(dp2062
g11
I699
sg12
Vhttps://movie.douban.com/people/3064233/wish
p2063
sg14
I132
sg15
Vhttps://movie.douban.com/people/3064233/collect
p2064
ssV1775502
p2065
(dp2066
g3
I586
sg4
Vhttps://movie.douban.com/people/1775502/wish
p2067
sg6
I232
sg7
Vhttps://movie.douban.com/people/1775502/collect
p2068
ssVcafe1618
p2069
(dp2070
g11
I1191
sg12
Vhttps://movie.douban.com/people/cafe1618/wish
p2071
sg14
I469
sg15
Vhttps://movie.douban.com/people/cafe1618/collect
p2072
ssVrijinglumixiniu
p2073
(dp2074
g11
I1564
sg12
Vhttps://movie.douban.com/people/rijinglumixiniu/wish
p2075
sg14
I194
sg15
Vhttps://movie.douban.com/people/rijinglumixiniu/collect
p2076
ssVya-vivien
p2077
(dp2078
g11
I1230
sg12
Vhttps://movie.douban.com/people/ya-vivien/wish
p2079
sg14
I1142
sg15
Vhttps://movie.douban.com/people/ya-vivien/collect
p2080
ssVbimbo
p2081
(dp2082
g3
I1748
sg4
Vhttps://movie.douban.com/people/bimbo/wish
p2083
sg6
I220
sg7
Vhttps://movie.douban.com/people/bimbo/collect
p2084
ssVsuzaku77
p2085
(dp2086
g11
I785
sg12
Vhttps://movie.douban.com/people/suzaku77/wish
p2087
sg14
I196
sg15
Vhttps://movie.douban.com/people/suzaku77/collect
p2088
ssVsible
p2089
(dp2090
g11
I1556
sg12
Vhttps://movie.douban.com/people/sible/wish
p2091
sg14
I117
sg15
Vhttps://movie.douban.com/people/sible/collect
p2092
ssV2019237
p2093
(dp2094
g11
I533
sg12
Vhttps://movie.douban.com/people/2019237/wish
p2095
sg14
I84
sg15
Vhttps://movie.douban.com/people/2019237/collect
p2096
ssV4520169
p2097
(dp2098
g11
I1021
sg12
Vhttps://movie.douban.com/people/4520169/wish
p2099
sg14
I91
sg15
Vhttps://movie.douban.com/people/4520169/collect
p2100
ssVkeanuiome
p2101
(dp2102
g11
I723
sg12
Vhttps://movie.douban.com/people/keanuiome/wish
p2103
sg14
I270
sg15
Vhttps://movie.douban.com/people/keanuiome/collect
p2104
ssVnggw
p2105
(dp2106
g11
I984
sg12
Vhttps://movie.douban.com/people/nggw/wish
p2107
sg14
I161
sg15
Vhttps://movie.douban.com/people/nggw/collect
p2108
ssV1120582
p2109
(dp2110
g3
I810
sg4
Vhttps://movie.douban.com/people/1120582/wish
p2111
sg6
I177
sg7
Vhttps://movie.douban.com/people/1120582/collect
p2112
ssVrunaway6161
p2113
(dp2114
g3
I932
sg4
Vhttps://movie.douban.com/people/runaway6161/wish
p2115
sg6
I233
sg7
Vhttps://movie.douban.com/people/runaway6161/collect
p2116
ssVyuliamelody
p2117
(dp2118
g11
I1524
sg12
Vhttps://movie.douban.com/people/yuliamelody/wish
p2119
sg14
I152
sg15
Vhttps://movie.douban.com/people/yuliamelody/collect
p2120
ssVsmilesleep
p2121
(dp2122
g11
I504
sg12
Vhttps://movie.douban.com/people/smilesleep/wish
p2123
sg14
I144
sg15
Vhttps://movie.douban.com/people/smilesleep/collect
p2124
ssVsuperalemon
p2125
(dp2126
g11
I721
sg12
Vhttps://movie.douban.com/people/superalemon/wish
p2127
sg14
I386
sg15
Vhttps://movie.douban.com/people/superalemon/collect
p2128
ssVnooneisthere
p2129
(dp2130
g11
I2454
sg12
Vhttps://movie.douban.com/people/nooneisthere/wish
p2131
sg14
I169
sg15
Vhttps://movie.douban.com/people/nooneisthere/collect
p2132
ssVKenren
p2133
(dp2134
g11
I707
sg12
Vhttps://movie.douban.com/people/Kenren/wish
p2135
sg14
I956
sg15
Vhttps://movie.douban.com/people/Kenren/collect
p2136
ssVKensnow
p2137
(dp2138
g11
I659
sg12
Vhttps://movie.douban.com/people/Kensnow/wish
p2139
sg14
I93
sg15
Vhttps://movie.douban.com/people/Kensnow/collect
p2140
ssVchenmodewan
p2141
(dp2142
g3
I2795
sg4
Vhttps://movie.douban.com/people/chenmodewan/wish
p2143
sg6
I729
sg7
Vhttps://movie.douban.com/people/chenmodewan/collect
p2144
ssVnevertori
p2145
(dp2146
g11
I3261
sg12
Vhttps://movie.douban.com/people/nevertori/wish
p2147
sg14
I1007
sg15
Vhttps://movie.douban.com/people/nevertori/collect
p2148
ssVcayetana
p2149
(dp2150
g11
I602
sg12
Vhttps://movie.douban.com/people/cayetana/wish
p2151
sg14
I195
sg15
Vhttps://movie.douban.com/people/cayetana/collect
p2152
ssVwenwen88710
p2153
(dp2154
g11
I758
sg12
Vhttps://movie.douban.com/people/wenwen88710/wish
p2155
sg14
I189
sg15
Vhttps://movie.douban.com/people/wenwen88710/collect
p2156
ssVironmonkey
p2157
(dp2158
g11
I515
sg12
Vhttps://movie.douban.com/people/ironmonkey/wish
p2159
sg14
I506
sg15
Vhttps://movie.douban.com/people/ironmonkey/collect
p2160
ssVxiaochanzi
p2161
(dp2162
g11
I764
sg12
Vhttps://movie.douban.com/people/xiaochanzi/wish
p2163
sg14
I285
sg15
Vhttps://movie.douban.com/people/xiaochanzi/collect
p2164
ssV1664137
p2165
(dp2166
g11
I787
sg12
Vhttps://movie.douban.com/people/1664137/wish
p2167
sg14
I6532
sg15
Vhttps://movie.douban.com/people/1664137/collect
p2168
ssVxmz
p2169
(dp2170
g3
I1479
sg4
Vhttps://movie.douban.com/people/xmz/wish
p2171
sg6
I197
sg7
Vhttps://movie.douban.com/people/xmz/collect
p2172
ssVblackrock
p2173
(dp2174
g11
I2120
sg12
Vhttps://movie.douban.com/people/blackrock/wish
p2175
sg14
I89
sg15
Vhttps://movie.douban.com/people/blackrock/collect
p2176
ssVsylvialove7
p2177
(dp2178
g11
I510
sg12
Vhttps://movie.douban.com/people/sylvialove7/wish
p2179
sg14
I208
sg15
Vhttps://movie.douban.com/people/sylvialove7/collect
p2180
ssVmoiselletea
p2181
(dp2182
g11
I1698
sg12
Vhttps://movie.douban.com/people/moiselletea/wish
p2183
sg14
I1224
sg15
Vhttps://movie.douban.com/people/moiselletea/collect
p2184
ssV2606799
p2185
(dp2186
g11
I1032
sg12
Vhttps://movie.douban.com/people/2606799/wish
p2187
sg14
I59
sg15
Vhttps://movie.douban.com/people/2606799/collect
p2188
ssVbadan
p2189
(dp2190
g11
I4087
sg12
Vhttps://movie.douban.com/people/badan/wish
p2191
sg14
I1302
sg15
Vhttps://movie.douban.com/people/badan/collect
p2192
ssV3040176
p2193
(dp2194
g11
I909
sg12
Vhttps://movie.douban.com/people/3040176/wish
p2195
sg14
I176
sg15
Vhttps://movie.douban.com/people/3040176/collect
p2196
ssV3418378
p2197
(dp2198
g3
I1578
sg4
Vhttps://movie.douban.com/people/3418378/wish
p2199
sg6
I68
sg7
Vhttps://movie.douban.com/people/3418378/collect
p2200
ssVwhualan1989
p2201
(dp2202
g11
I561
sg12
Vhttps://movie.douban.com/people/whualan1989/wish
p2203
sg14
I228
sg15
Vhttps://movie.douban.com/people/whualan1989/collect
p2204
ssVjessielee1018
p2205
(dp2206
g11
I2903
sg12
Vhttps://movie.douban.com/people/jessielee1018/wish
p2207
sg14
I309
sg15
Vhttps://movie.douban.com/people/jessielee1018/collect
p2208
ssVjerkoff
p2209
(dp2210
g11
I1523
sg12
Vhttps://movie.douban.com/people/jerkoff/wish
p2211
sg14
I478
sg15
Vhttps://movie.douban.com/people/jerkoff/collect
p2212
ssVhaizizang5
p2213
(dp2214
g11
I1026
sg12
Vhttps://movie.douban.com/people/haizizang5/wish
p2215
sg14
I608
sg15
Vhttps://movie.douban.com/people/haizizang5/collect
p2216
ssVlolita99
p2217
(dp2218
g11
I1176
sg12
Vhttps://movie.douban.com/people/lolita99/wish
p2219
sg14
I420
sg15
Vhttps://movie.douban.com/people/lolita99/collect
p2220
ssVmoviefans
p2221
(dp2222
g11
I2868
sg12
Vhttps://movie.douban.com/people/moviefans/wish
p2223
sg14
I707
sg15
Vhttps://movie.douban.com/people/moviefans/collect
p2224
ssVming_tang705
p2225
(dp2226
g11
I1991
sg12
Vhttps://movie.douban.com/people/ming_tang705/wish
p2227
sg14
I202
sg15
Vhttps://movie.douban.com/people/ming_tang705/collect
p2228
ssVstrawberryever
p2229
(dp2230
g3
I1523
sg4
Vhttps://movie.douban.com/people/strawberryever/wish
p2231
sg6
I327
sg7
Vhttps://movie.douban.com/people/strawberryever/collect
p2232
ssVBreezy
p2233
(dp2234
g11
I1940
sg12
Vhttps://movie.douban.com/people/Breezy/wish
p2235
sg14
I250
sg15
Vhttps://movie.douban.com/people/Breezy/collect
p2236
ssVmillwallace
p2237
(dp2238
g11
I1649
sg12
Vhttps://movie.douban.com/people/millwallace/wish
p2239
sg14
I407
sg15
Vhttps://movie.douban.com/people/millwallace/collect
p2240
ssVxiaoxu1987
p2241
(dp2242
g11
I4064
sg12
Vhttps://movie.douban.com/people/xiaoxu1987/wish
p2243
sg14
I3422
sg15
Vhttps://movie.douban.com/people/xiaoxu1987/collect
p2244
ssVJianghuaTan
p2245
(dp2246
g11
I568
sg12
Vhttps://movie.douban.com/people/JianghuaTan/wish
p2247
sg14
I336
sg15
Vhttps://movie.douban.com/people/JianghuaTan/collect
p2248
ssVchori
p2249
(dp2250
g11
I729
sg12
Vhttps://movie.douban.com/people/chori/wish
p2251
sg14
I67
sg15
Vhttps://movie.douban.com/people/chori/collect
p2252
ssVhunhunsui
p2253
(dp2254
g3
I2525
sg4
Vhttps://movie.douban.com/people/hunhunsui/wish
p2255
sg6
I163
sg7
Vhttps://movie.douban.com/people/hunhunsui/collect
p2256
ssVPsalmXXVII
p2257
(dp2258
g11
I2124
sg12
Vhttps://movie.douban.com/people/PsalmXXVII/wish
p2259
sg14
I149
sg15
Vhttps://movie.douban.com/people/PsalmXXVII/collect
p2260
ssVzkxloveytt
p2261
(dp2262
g11
I1173
sg12
Vhttps://movie.douban.com/people/zkxloveytt/wish
p2263
sg14
I811
sg15
Vhttps://movie.douban.com/people/zkxloveytt/collect
p2264
ssVjsxy2
p2265
(dp2266
g11
I1285
sg12
Vhttps://movie.douban.com/people/jsxy2/wish
p2267
sg14
I102
sg15
Vhttps://movie.douban.com/people/jsxy2/collect
p2268
ssVzhouxiangxi
p2269
(dp2270
g11
I844
sg12
Vhttps://movie.douban.com/people/zhouxiangxi/wish
p2271
sg14
I224
sg15
Vhttps://movie.douban.com/people/zhouxiangxi/collect
p2272
ssVzhouliyun0923
p2273
(dp2274
g11
I1456
sg12
Vhttps://movie.douban.com/people/zhouliyun0923/wish
p2275
sg14
I1081
sg15
Vhttps://movie.douban.com/people/zhouliyun0923/collect
p2276
ssValinani
p2277
(dp2278
g11
I695
sg12
Vhttps://movie.douban.com/people/alinani/wish
p2279
sg14
I398
sg15
Vhttps://movie.douban.com/people/alinani/collect
p2280
ssVCarpDiem
p2281
(dp2282
g11
I1208
sg12
Vhttps://movie.douban.com/people/CarpDiem/wish
p2283
sg14
I177
sg15
Vhttps://movie.douban.com/people/CarpDiem/collect
p2284
ssVvivien_princess
p2285
(dp2286
g11
I2903
sg12
Vhttps://movie.douban.com/people/vivien_princess/wish
p2287
sg14
I306
sg15
Vhttps://movie.douban.com/people/vivien_princess/collect
p2288
ssVfishandtree
p2289
(dp2290
g3
I1492
sg4
Vhttps://movie.douban.com/people/fishandtree/wish
p2291
sg6
I615
sg7
Vhttps://movie.douban.com/people/fishandtree/collect
p2292
ssV36939720
p2293
(dp2294
g11
I687
sg12
Vhttps://movie.douban.com/people/36939720/wish
p2295
sg14
I284
sg15
Vhttps://movie.douban.com/people/36939720/collect
p2296
ssVyour_j
p2297
(dp2298
g11
I2172
sg12
Vhttps://movie.douban.com/people/your_j/wish
p2299
sg14
I541
sg15
Vhttps://movie.douban.com/people/your_j/collect
p2300
ssVrunz
p2301
(dp2302
g11
I769
sg12
Vhttps://movie.douban.com/people/runz/wish
p2303
sg14
I144
sg15
Vhttps://movie.douban.com/people/runz/collect
p2304
ssV44995539
p2305
(dp2306
g11
I532
sg12
Vhttps://movie.douban.com/people/44995539/wish
p2307
sg14
I359
sg15
Vhttps://movie.douban.com/people/44995539/collect
p2308
ssVfaceChrist
p2309
(dp2310
g11
I823
sg12
Vhttps://movie.douban.com/people/faceChrist/wish
p2311
sg14
I268
sg15
Vhttps://movie.douban.com/people/faceChrist/collect
p2312
ssVBlueMoonshine
p2313
(dp2314
g11
I1049
sg12
Vhttps://movie.douban.com/people/BlueMoonshine/wish
p2315
sg14
I192
sg15
Vhttps://movie.douban.com/people/BlueMoonshine/collect
p2316
ssVmsxinran
p2317
(dp2318
g11
I958
sg12
Vhttps://movie.douban.com/people/msxinran/wish
p2319
sg14
I121
sg15
Vhttps://movie.douban.com/people/msxinran/collect
p2320
ssVdahuoji
p2321
(dp2322
g11
I3507
sg12
Vhttps://movie.douban.com/people/dahuoji/wish
p2323
sg14
I250
sg15
Vhttps://movie.douban.com/people/dahuoji/collect
p2324
ssVshanghaichris
p2325
(dp2326
g11
I632
sg12
Vhttps://movie.douban.com/people/shanghaichris/wish
p2327
sg14
I54
sg15
Vhttps://movie.douban.com/people/shanghaichris/collect
p2328
ssVsonneblume
p2329
(dp2330
g11
I1777
sg12
Vhttps://movie.douban.com/people/sonneblume/wish
p2331
sg14
I187
sg15
Vhttps://movie.douban.com/people/sonneblume/collect
p2332
ssVmagicdragon.why
p2333
(dp2334
g11
I664
sg12
Vhttps://movie.douban.com/people/magicdragon.why/wish
p2335
sg14
I59
sg15
Vhttps://movie.douban.com/people/magicdragon.why/collect
p2336
ssVwwyderek
p2337
(dp2338
g11
I1240
sg12
Vhttps://movie.douban.com/people/wwyderek/wish
p2339
sg14
I1793
sg15
Vhttps://movie.douban.com/people/wwyderek/collect
p2340
ssV45681143
p2341
(dp2342
g11
I991
sg12
Vhttps://movie.douban.com/people/45681143/wish
p2343
sg14
I244
sg15
Vhttps://movie.douban.com/people/45681143/collect
p2344
ssVbighead
p2345
(dp2346
g3
I1235
sg4
Vhttps://movie.douban.com/people/bighead/wish
p2347
sg6
I374
sg7
Vhttps://movie.douban.com/people/bighead/collect
p2348
ssVderit
p2349
(dp2350
g11
I666
sg12
Vhttps://movie.douban.com/people/derit/wish
p2351
sg14
I164
sg15
Vhttps://movie.douban.com/people/derit/collect
p2352
ssVreiwureka
p2353
(dp2354
g11
I983
sg12
Vhttps://movie.douban.com/people/reiwureka/wish
p2355
sg14
I188
sg15
Vhttps://movie.douban.com/people/reiwureka/collect
p2356
ssVxiajia
p2357
(dp2358
g11
I1374
sg12
Vhttps://movie.douban.com/people/xiajia/wish
p2359
sg14
I126
sg15
Vhttps://movie.douban.com/people/xiajia/collect
p2360
ssVstanlee
p2361
(dp2362
g11
I637
sg12
Vhttps://movie.douban.com/people/stanlee/wish
p2363
sg14
I155
sg15
Vhttps://movie.douban.com/people/stanlee/collect
p2364
ssVDerRan
p2365
(dp2366
g11
I1127
sg12
Vhttps://movie.douban.com/people/DerRan/wish
p2367
sg14
I304
sg15
Vhttps://movie.douban.com/people/DerRan/collect
p2368
ssV2565125
p2369
(dp2370
g11
I680
sg12
Vhttps://movie.douban.com/people/2565125/wish
p2371
sg14
I61
sg15
Vhttps://movie.douban.com/people/2565125/collect
p2372
ssVFunnyBike
p2373
(dp2374
g11
I1540
sg12
Vhttps://movie.douban.com/people/FunnyBike/wish
p2375
sg14
I759
sg15
Vhttps://movie.douban.com/people/FunnyBike/collect
p2376
ssV1758865
p2377
(dp2378
g11
I2997
sg12
Vhttps://movie.douban.com/people/1758865/wish
p2379
sg14
I115
sg15
Vhttps://movie.douban.com/people/1758865/collect
p2380
ssV1182787
p2381
(dp2382
g11
I645
sg12
Vhttps://movie.douban.com/people/1182787/wish
p2383
sg14
I128
sg15
Vhttps://movie.douban.com/people/1182787/collect
p2384
ssVtinue
p2385
(dp2386
g11
I1902
sg12
Vhttps://movie.douban.com/people/tinue/wish
p2387
sg14
I941
sg15
Vhttps://movie.douban.com/people/tinue/collect
p2388
ssVedmsunshine
p2389
(dp2390
g11
I610
sg12
Vhttps://movie.douban.com/people/edmsunshine/wish
p2391
sg14
I89
sg15
Vhttps://movie.douban.com/people/edmsunshine/collect
p2392
ssVseptemberends
p2393
(dp2394
g11
I1220
sg12
Vhttps://movie.douban.com/people/septemberends/wish
p2395
sg14
I454
sg15
Vhttps://movie.douban.com/people/septemberends/collect
p2396
ssVhaaaaaaaa
p2397
(dp2398
g11
I1785
sg12
Vhttps://movie.douban.com/people/haaaaaaaa/wish
p2399
sg14
I791
sg15
Vhttps://movie.douban.com/people/haaaaaaaa/collect
p2400
ssVyishu.
p2401
(dp2402
g11
I1276
sg12
Vhttps://movie.douban.com/people/yishu./wish
p2403
sg14
I54
sg15
Vhttps://movie.douban.com/people/yishu./collect
p2404
ssVxulijuan
p2405
(dp2406
g11
I530
sg12
Vhttps://movie.douban.com/people/xulijuan/wish
p2407
sg14
I402
sg15
Vhttps://movie.douban.com/people/xulijuan/collect
p2408
ssVyangxuefei
p2409
(dp2410
g11
I1275
sg12
Vhttps://movie.douban.com/people/yangxuefei/wish
p2411
sg14
I241
sg15
Vhttps://movie.douban.com/people/yangxuefei/collect
p2412
ssVflowertide
p2413
(dp2414
g11
I1519
sg12
Vhttps://movie.douban.com/people/flowertide/wish
p2415
sg14
I82
sg15
Vhttps://movie.douban.com/people/flowertide/collect
p2416
ssVfall1114
p2417
(dp2418
g11
I1916
sg12
Vhttps://movie.douban.com/people/fall1114/wish
p2419
sg14
I436
sg15
Vhttps://movie.douban.com/people/fall1114/collect
p2420
ssVpuma
p2421
(dp2422
g11
I524
sg12
Vhttps://movie.douban.com/people/puma/wish
p2423
sg14
I215
sg15
Vhttps://movie.douban.com/people/puma/collect
p2424
ssV6860748
p2425
(dp2426
g11
I585
sg12
Vhttps://movie.douban.com/people/6860748/wish
p2427
sg14
I163
sg15
Vhttps://movie.douban.com/people/6860748/collect
p2428
ssVtygoonray
p2429
(dp2430
g11
I2230
sg12
Vhttps://movie.douban.com/people/tygoonray/wish
p2431
sg14
I498
sg15
Vhttps://movie.douban.com/people/tygoonray/collect
p2432
ssVhirenee
p2433
(dp2434
g11
I902
sg12
Vhttps://movie.douban.com/people/hirenee/wish
p2435
sg14
I163
sg15
Vhttps://movie.douban.com/people/hirenee/collect
p2436
ssVxhh1992
p2437
(dp2438
g3
I664
sg4
Vhttps://movie.douban.com/people/xhh1992/wish
p2439
sg6
I403
sg7
Vhttps://movie.douban.com/people/xhh1992/collect
p2440
ssVreadman
p2441
(dp2442
g11
I1238
sg12
Vhttps://movie.douban.com/people/readman/wish
p2443
sg14
I363
sg15
Vhttps://movie.douban.com/people/readman/collect
p2444
ssVComel.Dyx
p2445
(dp2446
g11
I2625
sg12
Vhttps://movie.douban.com/people/Comel.Dyx/wish
p2447
sg14
I433
sg15
Vhttps://movie.douban.com/people/Comel.Dyx/collect
p2448
ssV17481110
p2449
(dp2450
g11
I761
sg12
Vhttps://movie.douban.com/people/17481110/wish
p2451
sg14
I558
sg15
Vhttps://movie.douban.com/people/17481110/collect
p2452
ssV35827809
p2453
(dp2454
g3
I1322
sg4
Vhttps://movie.douban.com/people/35827809/wish
p2455
sg6
I76
sg7
Vhttps://movie.douban.com/people/35827809/collect
p2456
ssVrayombre
p2457
(dp2458
g3
I801
sg4
Vhttps://movie.douban.com/people/rayombre/wish
p2459
sg6
I115
sg7
Vhttps://movie.douban.com/people/rayombre/collect
p2460
ssV4362477
p2461
(dp2462
g11
I1250
sg12
Vhttps://movie.douban.com/people/4362477/wish
p2463
sg14
I151
sg15
Vhttps://movie.douban.com/people/4362477/collect
p2464
ssVlalalameans
p2465
(dp2466
g11
I1023
sg12
Vhttps://movie.douban.com/people/lalalameans/wish
p2467
sg14
I1007
sg15
Vhttps://movie.douban.com/people/lalalameans/collect
p2468
ssV43864188
p2469
(dp2470
g11
I643
sg12
Vhttps://movie.douban.com/people/43864188/wish
p2471
sg14
I252
sg15
Vhttps://movie.douban.com/people/43864188/collect
p2472
ssVmartenyong
p2473
(dp2474
g11
I614
sg12
Vhttps://movie.douban.com/people/martenyong/wish
p2475
sg14
I284
sg15
Vhttps://movie.douban.com/people/martenyong/collect
p2476
ssVhappyleaf
p2477
(dp2478
g11
I576
sg12
Vhttps://movie.douban.com/people/happyleaf/wish
p2479
sg14
I146
sg15
Vhttps://movie.douban.com/people/happyleaf/collect
p2480
ssVxiaohulilengyue
p2481
(dp2482
g3
I628
sg4
Vhttps://movie.douban.com/people/xiaohulilengyue/wish
p2483
sg6
I165
sg7
Vhttps://movie.douban.com/people/xiaohulilengyue/collect
p2484
ssVlasia96
p2485
(dp2486
g11
I830
sg12
Vhttps://movie.douban.com/people/lasia96/wish
p2487
sg14
I236
sg15
Vhttps://movie.douban.com/people/lasia96/collect
p2488
ssVsaladrabbit
p2489
(dp2490
g11
I620
sg12
Vhttps://movie.douban.com/people/saladrabbit/wish
p2491
sg14
I78
sg15
Vhttps://movie.douban.com/people/saladrabbit/collect
p2492
ssVfeiyin1014
p2493
(dp2494
g11
I1471
sg12
Vhttps://movie.douban.com/people/feiyin1014/wish
p2495
sg14
I796
sg15
Vhttps://movie.douban.com/people/feiyin1014/collect
p2496
ssVRITABMW
p2497
(dp2498
g3
I2920
sg4
Vhttps://movie.douban.com/people/RITABMW/wish
p2499
sg6
I200
sg7
Vhttps://movie.douban.com/people/RITABMW/collect
p2500
ssV80221496
p2501
(dp2502
g11
I876
sg12
Vhttps://movie.douban.com/people/80221496/wish
p2503
sg14
I193
sg15
Vhttps://movie.douban.com/people/80221496/collect
p2504
ssVliutao0797
p2505
(dp2506
g3
I758
sg4
Vhttps://movie.douban.com/people/liutao0797/wish
p2507
sg6
I105
sg7
Vhttps://movie.douban.com/people/liutao0797/collect
p2508
ssVisoh
p2509
(dp2510
g3
I1355
sg4
Vhttps://movie.douban.com/people/isoh/wish
p2511
sg6
I425
sg7
Vhttps://movie.douban.com/people/isoh/collect
p2512
ssVindiekid
p2513
(dp2514
g11
I1999
sg12
Vhttps://movie.douban.com/people/indiekid/wish
p2515
sg14
I242
sg15
Vhttps://movie.douban.com/people/indiekid/collect
p2516
ssVsnowblink14
p2517
(dp2518
g11
I1519
sg12
Vhttps://movie.douban.com/people/snowblink14/wish
p2519
sg14
I291
sg15
Vhttps://movie.douban.com/people/snowblink14/collect
p2520
ssVyuesexianxian
p2521
(dp2522
g11
I543
sg12
Vhttps://movie.douban.com/people/yuesexianxian/wish
p2523
sg14
I264
sg15
Vhttps://movie.douban.com/people/yuesexianxian/collect
p2524
ssVfaint2003
p2525
(dp2526
g11
I604
sg12
Vhttps://movie.douban.com/people/faint2003/wish
p2527
sg14
I503
sg15
Vhttps://movie.douban.com/people/faint2003/collect
p2528
ssVSharon_Chia
p2529
(dp2530
g11
I1019
sg12
Vhttps://movie.douban.com/people/Sharon_Chia/wish
p2531
sg14
I561
sg15
Vhttps://movie.douban.com/people/Sharon_Chia/collect
p2532
ssVcelerycelery
p2533
(dp2534
g11
I654
sg12
Vhttps://movie.douban.com/people/celerycelery/wish
p2535
sg14
I121
sg15
Vhttps://movie.douban.com/people/celerycelery/collect
p2536
ssV1095117
p2537
(dp2538
g11
I628
sg12
Vhttps://movie.douban.com/people/1095117/wish
p2539
sg14
I304
sg15
Vhttps://movie.douban.com/people/1095117/collect
p2540
ssVCyberKnight
p2541
(dp2542
g3
I2379
sg4
Vhttps://movie.douban.com/people/CyberKnight/wish
p2543
sg6
I150
sg7
Vhttps://movie.douban.com/people/CyberKnight/collect
p2544
ssV3242527
p2545
(dp2546
g11
I1370
sg12
Vhttps://movie.douban.com/people/3242527/wish
p2547
sg14
I523
sg15
Vhttps://movie.douban.com/people/3242527/collect
p2548
ssVzshowing
p2549
(dp2550
g11
I893
sg12
Vhttps://movie.douban.com/people/zshowing/wish
p2551
sg14
I854
sg15
Vhttps://movie.douban.com/people/zshowing/collect
p2552
ssVoutsider.
p2553
(dp2554
g11
I1030
sg12
Vhttps://movie.douban.com/people/outsider./wish
p2555
sg14
I878
sg15
Vhttps://movie.douban.com/people/outsider./collect
p2556
ssVchenning3288
p2557
(dp2558
g11
I2014
sg12
Vhttps://movie.douban.com/people/chenning3288/wish
p2559
sg14
I78
sg15
Vhttps://movie.douban.com/people/chenning3288/collect
p2560
ssVish2
p2561
(dp2562
g3
I2089
sg4
Vhttps://movie.douban.com/people/ish2/wish
p2563
sg6
I450
sg7
Vhttps://movie.douban.com/people/ish2/collect
p2564
ssVNeeeeeverland
p2565
(dp2566
g11
I1112
sg12
Vhttps://movie.douban.com/people/Neeeeeverland/wish
p2567
sg14
I253
sg15
Vhttps://movie.douban.com/people/Neeeeeverland/collect
p2568
ssVboyszzl
p2569
(dp2570
g11
I2437
sg12
Vhttps://movie.douban.com/people/boyszzl/wish
p2571
sg14
I1196
sg15
Vhttps://movie.douban.com/people/boyszzl/collect
p2572
ssV49572331
p2573
(dp2574
g11
I665
sg12
Vhttps://movie.douban.com/people/49572331/wish
p2575
sg14
I136
sg15
Vhttps://movie.douban.com/people/49572331/collect
p2576
ssVanoo
p2577
(dp2578
g11
I516
sg12
Vhttps://movie.douban.com/people/anoo/wish
p2579
sg14
I259
sg15
Vhttps://movie.douban.com/people/anoo/collect
p2580
ssVstonelovefish
p2581
(dp2582
g11
I547
sg12
Vhttps://movie.douban.com/people/stonelovefish/wish
p2583
sg14
I265
sg15
Vhttps://movie.douban.com/people/stonelovefish/collect
p2584
ssVblackljx
p2585
(dp2586
g11
I1130
sg12
Vhttps://movie.douban.com/people/blackljx/wish
p2587
sg14
I84
sg15
Vhttps://movie.douban.com/people/blackljx/collect
p2588
ssVamarantine2461
p2589
(dp2590
g11
I709
sg12
Vhttps://movie.douban.com/people/amarantine2461/wish
p2591
sg14
I133
sg15
Vhttps://movie.douban.com/people/amarantine2461/collect
p2592
ssVtanjia
p2593
(dp2594
g11
I818
sg12
Vhttps://movie.douban.com/people/tanjia/wish
p2595
sg14
I207
sg15
Vhttps://movie.douban.com/people/tanjia/collect
p2596
ssVenmu
p2597
(dp2598
g11
I632
sg12
Vhttps://movie.douban.com/people/enmu/wish
p2599
sg14
I150
sg15
Vhttps://movie.douban.com/people/enmu/collect
p2600
ssVxiaomisuisui
p2601
(dp2602
g11
I626
sg12
Vhttps://movie.douban.com/people/xiaomisuisui/wish
p2603
sg14
I113
sg15
Vhttps://movie.douban.com/people/xiaomisuisui/collect
p2604
ssVkikikaikai
p2605
(dp2606
g11
I986
sg12
Vhttps://movie.douban.com/people/kikikaikai/wish
p2607
sg14
I389
sg15
Vhttps://movie.douban.com/people/kikikaikai/collect
p2608
ssVmaybeland
p2609
(dp2610
g11
I1542
sg12
Vhttps://movie.douban.com/people/maybeland/wish
p2611
sg14
I264
sg15
Vhttps://movie.douban.com/people/maybeland/collect
p2612
ssVcrystalDave
p2613
(dp2614
g11
I1046
sg12
Vhttps://movie.douban.com/people/crystalDave/wish
p2615
sg14
I61
sg15
Vhttps://movie.douban.com/people/crystalDave/collect
p2616
ssVsherlyandnicole
p2617
(dp2618
g3
I907
sg4
Vhttps://movie.douban.com/people/sherlyandnicole/wish
p2619
sg6
I106
sg7
Vhttps://movie.douban.com/people/sherlyandnicole/collect
p2620
ssVgalina
p2621
(dp2622
g11
I1983
sg12
Vhttps://movie.douban.com/people/galina/wish
p2623
sg14
I254
sg15
Vhttps://movie.douban.com/people/galina/collect
p2624
ssVMarilynsue
p2625
(dp2626
g11
I1321
sg12
Vhttps://movie.douban.com/people/Marilynsue/wish
p2627
sg14
I1255
sg15
Vhttps://movie.douban.com/people/Marilynsue/collect
p2628
ssV4295189
p2629
(dp2630
g11
I581
sg12
Vhttps://movie.douban.com/people/4295189/wish
p2631
sg14
I98
sg15
Vhttps://movie.douban.com/people/4295189/collect
p2632
ssVlizsays
p2633
(dp2634
g11
I729
sg12
Vhttps://movie.douban.com/people/lizsays/wish
p2635
sg14
I181
sg15
Vhttps://movie.douban.com/people/lizsays/collect
p2636
ssV3923014
p2637
(dp2638
g11
I515
sg12
Vhttps://movie.douban.com/people/3923014/wish
p2639
sg14
I190
sg15
Vhttps://movie.douban.com/people/3923014/collect
p2640
ssVcicicola
p2641
(dp2642
g11
I1201
sg12
Vhttps://movie.douban.com/people/cicicola/wish
p2643
sg14
I430
sg15
Vhttps://movie.douban.com/people/cicicola/collect
p2644
ssVtoastedbread
p2645
(dp2646
g11
I543
sg12
Vhttps://movie.douban.com/people/toastedbread/wish
p2647
sg14
I552
sg15
Vhttps://movie.douban.com/people/toastedbread/collect
p2648
ssVsevenpain
p2649
(dp2650
g11
I766
sg12
Vhttps://movie.douban.com/people/sevenpain/wish
p2651
sg14
I202
sg15
Vhttps://movie.douban.com/people/sevenpain/collect
p2652
ssVcuifengming
p2653
(dp2654
g11
I665
sg12
Vhttps://movie.douban.com/people/cuifengming/wish
p2655
sg14
I120
sg15
Vhttps://movie.douban.com/people/cuifengming/collect
p2656
ssVqiqi118
p2657
(dp2658
g3
I575
sg4
Vhttps://movie.douban.com/people/qiqi118/wish
p2659
sg6
I237
sg7
Vhttps://movie.douban.com/people/qiqi118/collect
p2660
ssVfangluoluo
p2661
(dp2662
g11
I976
sg12
Vhttps://movie.douban.com/people/fangluoluo/wish
p2663
sg14
I556
sg15
Vhttps://movie.douban.com/people/fangluoluo/collect
p2664
ssVdoubaning
p2665
(dp2666
g11
I852
sg12
Vhttps://movie.douban.com/people/doubaning/wish
p2667
sg14
I222
sg15
Vhttps://movie.douban.com/people/doubaning/collect
p2668
ssV58371211
p2669
(dp2670
g11
I710
sg12
Vhttps://movie.douban.com/people/58371211/wish
p2671
sg14
I120
sg15
Vhttps://movie.douban.com/people/58371211/collect
p2672
ssVlongzheking
p2673
(dp2674
g11
I2389
sg12
Vhttps://movie.douban.com/people/longzheking/wish
p2675
sg14
I391
sg15
Vhttps://movie.douban.com/people/longzheking/collect
p2676
ssVoranyang
p2677
(dp2678
g11
I721
sg12
Vhttps://movie.douban.com/people/oranyang/wish
p2679
sg14
I62
sg15
Vhttps://movie.douban.com/people/oranyang/collect
p2680
ssVsecretjinzhengu
p2681
(dp2682
g11
I2187
sg12
Vhttps://movie.douban.com/people/secretjinzhengu/wish
p2683
sg14
I2369
sg15
Vhttps://movie.douban.com/people/secretjinzhengu/collect
p2684
ssVatu521
p2685
(dp2686
g11
I877
sg12
Vhttps://movie.douban.com/people/atu521/wish
p2687
sg14
I539
sg15
Vhttps://movie.douban.com/people/atu521/collect
p2688
ssVproudlucifer
p2689
(dp2690
g11
I3496
sg12
Vhttps://movie.douban.com/people/proudlucifer/wish
p2691
sg14
I513
sg15
Vhttps://movie.douban.com/people/proudlucifer/collect
p2692
ssVimcece
p2693
(dp2694
g11
I810
sg12
Vhttps://movie.douban.com/people/imcece/wish
p2695
sg14
I176
sg15
Vhttps://movie.douban.com/people/imcece/collect
p2696
ssVshallwe07
p2697
(dp2698
g11
I739
sg12
Vhttps://movie.douban.com/people/shallwe07/wish
p2699
sg14
I213
sg15
Vhttps://movie.douban.com/people/shallwe07/collect
p2700
ssVsu-mu
p2701
(dp2702
g11
I1339
sg12
Vhttps://movie.douban.com/people/su-mu/wish
p2703
sg14
I625
sg15
Vhttps://movie.douban.com/people/su-mu/collect
p2704
ssVsabretooth
p2705
(dp2706
g11
I1676
sg12
Vhttps://movie.douban.com/people/sabretooth/wish
p2707
sg14
I74
sg15
Vhttps://movie.douban.com/people/sabretooth/collect
p2708
ssV2549948
p2709
(dp2710
g11
I545
sg12
Vhttps://movie.douban.com/people/2549948/wish
p2711
sg14
I175
sg15
Vhttps://movie.douban.com/people/2549948/collect
p2712
ssV1625628
p2713
(dp2714
g11
I737
sg12
Vhttps://movie.douban.com/people/1625628/wish
p2715
sg14
I71
sg15
Vhttps://movie.douban.com/people/1625628/collect
p2716
ssVbOnelily
p2717
(dp2718
g11
I1343
sg12
Vhttps://movie.douban.com/people/bOnelily/wish
p2719
sg14
I960
sg15
Vhttps://movie.douban.com/people/bOnelily/collect
p2720
ssVTomiOh
p2721
(dp2722
g11
I2494
sg12
Vhttps://movie.douban.com/people/TomiOh/wish
p2723
sg14
I175
sg15
Vhttps://movie.douban.com/people/TomiOh/collect
p2724
ssV43377923
p2725
(dp2726
g11
I581
sg12
Vhttps://movie.douban.com/people/43377923/wish
p2727
sg14
I169
sg15
Vhttps://movie.douban.com/people/43377923/collect
p2728
ssVfiro
p2729
(dp2730
g11
I571
sg12
Vhttps://movie.douban.com/people/firo/wish
p2731
sg14
I737
sg15
Vhttps://movie.douban.com/people/firo/collect
p2732
ssVWX0822
p2733
(dp2734
g11
I2765
sg12
Vhttps://movie.douban.com/people/WX0822/wish
p2735
sg14
I1582
sg15
Vhttps://movie.douban.com/people/WX0822/collect
p2736
ssVgold401
p2737
(dp2738
g11
I541
sg12
Vhttps://movie.douban.com/people/gold401/wish
p2739
sg14
I251
sg15
Vhttps://movie.douban.com/people/gold401/collect
p2740
ssVSueyan
p2741
(dp2742
g11
I935
sg12
Vhttps://movie.douban.com/people/Sueyan/wish
p2743
sg14
I100
sg15
Vhttps://movie.douban.com/people/Sueyan/collect
p2744
ssV67374495
p2745
(dp2746
g11
I1506
sg12
Vhttps://movie.douban.com/people/67374495/wish
p2747
sg14
I245
sg15
Vhttps://movie.douban.com/people/67374495/collect
p2748
ssVcotangent
p2749
(dp2750
g11
I771
sg12
Vhttps://movie.douban.com/people/cotangent/wish
p2751
sg14
I71
sg15
Vhttps://movie.douban.com/people/cotangent/collect
p2752
ssVohyee406
p2753
(dp2754
g11
I1660
sg12
Vhttps://movie.douban.com/people/ohyee406/wish
p2755
sg14
I367
sg15
Vhttps://movie.douban.com/people/ohyee406/collect
p2756
ssVDeSeeKwok
p2757
(dp2758
g11
I956
sg12
Vhttps://movie.douban.com/people/DeSeeKwok/wish
p2759
sg14
I507
sg15
Vhttps://movie.douban.com/people/DeSeeKwok/collect
p2760
ssVchristopherlin
p2761
(dp2762
g11
I1958
sg12
Vhttps://movie.douban.com/people/christopherlin/wish
p2763
sg14
I140
sg15
Vhttps://movie.douban.com/people/christopherlin/collect
p2764
ssV63046201
p2765
(dp2766
g11
I892
sg12
Vhttps://movie.douban.com/people/63046201/wish
p2767
sg14
I228
sg15
Vhttps://movie.douban.com/people/63046201/collect
p2768
ssV85054232
p2769
(dp2770
g3
I785
sg4
Vhttps://movie.douban.com/people/85054232/wish
p2771
sg6
I217
sg7
Vhttps://movie.douban.com/people/85054232/collect
p2772
ssVzzhang020
p2773
(dp2774
g11
I680
sg12
Vhttps://movie.douban.com/people/zzhang020/wish
p2775
sg14
I262
sg15
Vhttps://movie.douban.com/people/zzhang020/collect
p2776
ssVBambus
p2777
(dp2778
g11
I751
sg12
Vhttps://movie.douban.com/people/Bambus/wish
p2779
sg14
I137
sg15
Vhttps://movie.douban.com/people/Bambus/collect
p2780
ssVdpeng
p2781
(dp2782
g3
I667
sg4
Vhttps://movie.douban.com/people/dpeng/wish
p2783
sg6
I1356
sg7
Vhttps://movie.douban.com/people/dpeng/collect
p2784
ssV11965473
p2785
(dp2786
g3
I1250
sg4
Vhttps://movie.douban.com/people/11965473/wish
p2787
sg6
I302
sg7
Vhttps://movie.douban.com/people/11965473/collect
p2788
ssV2014117
p2789
(dp2790
g11
I503
sg12
Vhttps://movie.douban.com/people/2014117/wish
p2791
sg14
I72
sg15
Vhttps://movie.douban.com/people/2014117/collect
p2792
ssVgraceheping
p2793
(dp2794
g11
I1546
sg12
Vhttps://movie.douban.com/people/graceheping/wish
p2795
sg14
I150
sg15
Vhttps://movie.douban.com/people/graceheping/collect
p2796
ssVbirth09
p2797
(dp2798
g11
I1091
sg12
Vhttps://movie.douban.com/people/birth09/wish
p2799
sg14
I345
sg15
Vhttps://movie.douban.com/people/birth09/collect
p2800
ssVMrsYu
p2801
(dp2802
g11
I2763
sg12
Vhttps://movie.douban.com/people/MrsYu/wish
p2803
sg14
I51
sg15
Vhttps://movie.douban.com/people/MrsYu/collect
p2804
ssV4480540
p2805
(dp2806
g11
I691
sg12
Vhttps://movie.douban.com/people/4480540/wish
p2807
sg14
I355
sg15
Vhttps://movie.douban.com/people/4480540/collect
p2808
ssVdalianhaizao
p2809
(dp2810
g11
I1552
sg12
Vhttps://movie.douban.com/people/dalianhaizao/wish
p2811
sg14
I343
sg15
Vhttps://movie.douban.com/people/dalianhaizao/collect
p2812
ssVFAKENI
p2813
(dp2814
g11
I860
sg12
Vhttps://movie.douban.com/people/FAKENI/wish
p2815
sg14
I94
sg15
Vhttps://movie.douban.com/people/FAKENI/collect
p2816
ssVblacksuperman
p2817
(dp2818
g11
I1504
sg12
Vhttps://movie.douban.com/people/blacksuperman/wish
p2819
sg14
I485
sg15
Vhttps://movie.douban.com/people/blacksuperman/collect
p2820
ssV1243009
p2821
(dp2822
g11
I591
sg12
Vhttps://movie.douban.com/people/1243009/wish
p2823
sg14
I843
sg15
Vhttps://movie.douban.com/people/1243009/collect
p2824
ssVeiris
p2825
(dp2826
g11
I3270
sg12
Vhttps://movie.douban.com/people/eiris/wish
p2827
sg14
I886
sg15
Vhttps://movie.douban.com/people/eiris/collect
p2828
ssV1065147
p2829
(dp2830
g11
I769
sg12
Vhttps://movie.douban.com/people/1065147/wish
p2831
sg14
I607
sg15
Vhttps://movie.douban.com/people/1065147/collect
p2832
ssVrice_neko
p2833
(dp2834
g11
I1298
sg12
Vhttps://movie.douban.com/people/rice_neko/wish
p2835
sg14
I650
sg15
Vhttps://movie.douban.com/people/rice_neko/collect
p2836
ssVangle223
p2837
(dp2838
g11
I1499
sg12
Vhttps://movie.douban.com/people/angle223/wish
p2839
sg14
I278
sg15
Vhttps://movie.douban.com/people/angle223/collect
p2840
ssVcloser0707
p2841
(dp2842
g11
I1289
sg12
Vhttps://movie.douban.com/people/closer0707/wish
p2843
sg14
I1126
sg15
Vhttps://movie.douban.com/people/closer0707/collect
p2844
ssVslpnm
p2845
(dp2846
g11
I954
sg12
Vhttps://movie.douban.com/people/slpnm/wish
p2847
sg14
I88
sg15
Vhttps://movie.douban.com/people/slpnm/collect
p2848
ssVEsax
p2849
(dp2850
g3
I900
sg4
Vhttps://movie.douban.com/people/Esax/wish
p2851
sg6
I283
sg7
Vhttps://movie.douban.com/people/Esax/collect
p2852
ssVAngelinaAnne
p2853
(dp2854
g11
I1611
sg12
Vhttps://movie.douban.com/people/AngelinaAnne/wish
p2855
sg14
I99
sg15
Vhttps://movie.douban.com/people/AngelinaAnne/collect
p2856
ssVsunxiaozhao
p2857
(dp2858
g3
I1366
sg4
Vhttps://movie.douban.com/people/sunxiaozhao/wish
p2859
sg6
I207
sg7
Vhttps://movie.douban.com/people/sunxiaozhao/collect
p2860
ssV3906030
p2861
(dp2862
g11
I678
sg12
Vhttps://movie.douban.com/people/3906030/wish
p2863
sg14
I110
sg15
Vhttps://movie.douban.com/people/3906030/collect
p2864
ssVstonetower
p2865
(dp2866
g3
I682
sg4
Vhttps://movie.douban.com/people/stonetower/wish
p2867
sg6
I67
sg7
Vhttps://movie.douban.com/people/stonetower/collect
p2868
ssVHYM
p2869
(dp2870
g3
I1281
sg4
Vhttps://movie.douban.com/people/HYM/wish
p2871
sg6
I236
sg7
Vhttps://movie.douban.com/people/HYM/collect
p2872
ssV1030964
p2873
(dp2874
g3
I536
sg4
Vhttps://movie.douban.com/people/1030964/wish
p2875
sg6
I169
sg7
Vhttps://movie.douban.com/people/1030964/collect
p2876
ssVRiverPheonix
p2877
(dp2878
g11
I953
sg12
Vhttps://movie.douban.com/people/RiverPheonix/wish
p2879
sg14
I62
sg15
Vhttps://movie.douban.com/people/RiverPheonix/collect
p2880
ssVantxash
p2881
(dp2882
g11
I1041
sg12
Vhttps://movie.douban.com/people/antxash/wish
p2883
sg14
I54
sg15
Vhttps://movie.douban.com/people/antxash/collect
p2884
ssVgeshu
p2885
(dp2886
g11
I599
sg12
Vhttps://movie.douban.com/people/geshu/wish
p2887
sg14
I121
sg15
Vhttps://movie.douban.com/people/geshu/collect
p2888
ssVnanshengism
p2889
(dp2890
g11
I890
sg12
Vhttps://movie.douban.com/people/nanshengism/wish
p2891
sg14
I168
sg15
Vhttps://movie.douban.com/people/nanshengism/collect
p2892
ssVwandermao
p2893
(dp2894
g11
I519
sg12
Vhttps://movie.douban.com/people/wandermao/wish
p2895
sg14
I477
sg15
Vhttps://movie.douban.com/people/wandermao/collect
p2896
ssVMercury9999
p2897
(dp2898
g3
I2567
sg4
Vhttps://movie.douban.com/people/Mercury9999/wish
p2899
sg6
I540
sg7
Vhttps://movie.douban.com/people/Mercury9999/collect
p2900
ssV2216190
p2901
(dp2902
g11
I630
sg12
Vhttps://movie.douban.com/people/2216190/wish
p2903
sg14
I87
sg15
Vhttps://movie.douban.com/people/2216190/collect
p2904
ssVmyfan
p2905
(dp2906
g11
I1252
sg12
Vhttps://movie.douban.com/people/myfan/wish
p2907
sg14
I521
sg15
Vhttps://movie.douban.com/people/myfan/collect
p2908
ssVxucx
p2909
(dp2910
g11
I835
sg12
Vhttps://movie.douban.com/people/xucx/wish
p2911
sg14
I73
sg15
Vhttps://movie.douban.com/people/xucx/collect
p2912
ssVsoultaker
p2913
(dp2914
g11
I1929
sg12
Vhttps://movie.douban.com/people/soultaker/wish
p2915
sg14
I237
sg15
Vhttps://movie.douban.com/people/soultaker/collect
p2916
ssVraising_dawn
p2917
(dp2918
g11
I2359
sg12
Vhttps://movie.douban.com/people/raising_dawn/wish
p2919
sg14
I425
sg15
Vhttps://movie.douban.com/people/raising_dawn/collect
p2920
ssVIRIS_1114
p2921
(dp2922
g11
I570
sg12
Vhttps://movie.douban.com/people/IRIS_1114/wish
p2923
sg14
I348
sg15
Vhttps://movie.douban.com/people/IRIS_1114/collect
p2924
ssVlazyao
p2925
(dp2926
g11
I1315
sg12
Vhttps://movie.douban.com/people/lazyao/wish
p2927
sg14
I311
sg15
Vhttps://movie.douban.com/people/lazyao/collect
p2928
ssV62469238
p2929
(dp2930
g3
I1045
sg4
Vhttps://movie.douban.com/people/62469238/wish
p2931
sg6
I114
sg7
Vhttps://movie.douban.com/people/62469238/collect
p2932
ssVmagicwuji
p2933
(dp2934
g11
I809
sg12
Vhttps://movie.douban.com/people/magicwuji/wish
p2935
sg14
I227
sg15
Vhttps://movie.douban.com/people/magicwuji/collect
p2936
ssVjulid2005
p2937
(dp2938
g11
I1295
sg12
Vhttps://movie.douban.com/people/julid2005/wish
p2939
sg14
I157
sg15
Vhttps://movie.douban.com/people/julid2005/collect
p2940
ssVBluffStone
p2941
(dp2942
g11
I679
sg12
Vhttps://movie.douban.com/people/BluffStone/wish
p2943
sg14
I119
sg15
Vhttps://movie.douban.com/people/BluffStone/collect
p2944
ssVmakwon
p2945
(dp2946
g11
I753
sg12
Vhttps://movie.douban.com/people/makwon/wish
p2947
sg14
I98
sg15
Vhttps://movie.douban.com/people/makwon/collect
p2948
ssVmaohulusimida
p2949
(dp2950
g11
I993
sg12
Vhttps://movie.douban.com/people/maohulusimida/wish
p2951
sg14
I316
sg15
Vhttps://movie.douban.com/people/maohulusimida/collect
p2952
ssVmisorayumi
p2953
(dp2954
g11
I839
sg12
Vhttps://movie.douban.com/people/misorayumi/wish
p2955
sg14
I156
sg15
Vhttps://movie.douban.com/people/misorayumi/collect
p2956
ssVsyc
p2957
(dp2958
g11
I1686
sg12
Vhttps://movie.douban.com/people/syc/wish
p2959
sg14
I613
sg15
Vhttps://movie.douban.com/people/syc/collect
p2960
ssVbaoding
p2961
(dp2962
g11
I2524
sg12
Vhttps://movie.douban.com/people/baoding/wish
p2963
sg14
I311
sg15
Vhttps://movie.douban.com/people/baoding/collect
p2964
ssV1994954
p2965
(dp2966
g11
I748
sg12
Vhttps://movie.douban.com/people/1994954/wish
p2967
sg14
I56
sg15
Vhttps://movie.douban.com/people/1994954/collect
p2968
ssVMUSAGETES
p2969
(dp2970
g11
I1386
sg12
Vhttps://movie.douban.com/people/MUSAGETES/wish
p2971
sg14
I841
sg15
Vhttps://movie.douban.com/people/MUSAGETES/collect
p2972
ssVjerryzheng
p2973
(dp2974
g11
I776
sg12
Vhttps://movie.douban.com/people/jerryzheng/wish
p2975
sg14
I160
sg15
Vhttps://movie.douban.com/people/jerryzheng/collect
p2976
ssV3056342
p2977
(dp2978
g11
I1100
sg12
Vhttps://movie.douban.com/people/3056342/wish
p2979
sg14
I66
sg15
Vhttps://movie.douban.com/people/3056342/collect
p2980
ssVhoneysi
p2981
(dp2982
g11
I615
sg12
Vhttps://movie.douban.com/people/honeysi/wish
p2983
sg14
I593
sg15
Vhttps://movie.douban.com/people/honeysi/collect
p2984
ssV1400777
p2985
(dp2986
g11
I564
sg12
Vhttps://movie.douban.com/people/1400777/wish
p2987
sg14
I1022
sg15
Vhttps://movie.douban.com/people/1400777/collect
p2988
ssVashesshi
p2989
(dp2990
g11
I1755
sg12
Vhttps://movie.douban.com/people/ashesshi/wish
p2991
sg14
I79
sg15
Vhttps://movie.douban.com/people/ashesshi/collect
p2992
ssVshixideshechi
p2993
(dp2994
g11
I4148
sg12
Vhttps://movie.douban.com/people/shixideshechi/wish
p2995
sg14
I874
sg15
Vhttps://movie.douban.com/people/shixideshechi/collect
p2996
ssVtalentygw
p2997
(dp2998
g11
I1184
sg12
Vhttps://movie.douban.com/people/talentygw/wish
p2999
sg14
I184
sg15
Vhttps://movie.douban.com/people/talentygw/collect
p3000
ssVmichelle_122
p3001
(dp3002
g11
I1012
sg12
Vhttps://movie.douban.com/people/michelle_122/wish
p3003
sg14
I1217
sg15
Vhttps://movie.douban.com/people/michelle_122/collect
p3004
ssVprasino
p3005
(dp3006
g11
I639
sg12
Vhttps://movie.douban.com/people/prasino/wish
p3007
sg14
I637
sg15
Vhttps://movie.douban.com/people/prasino/collect
p3008
ssVayida365
p3009
(dp3010
g11
I1242
sg12
Vhttps://movie.douban.com/people/ayida365/wish
p3011
sg14
I2754
sg15
Vhttps://movie.douban.com/people/ayida365/collect
p3012
ssV1462465
p3013
(dp3014
g11
I1416
sg12
Vhttps://movie.douban.com/people/1462465/wish
p3015
sg14
I148
sg15
Vhttps://movie.douban.com/people/1462465/collect
p3016
ssVachering
p3017
(dp3018
g3
I1300
sg4
Vhttps://movie.douban.com/people/achering/wish
p3019
sg6
I494
sg7
Vhttps://movie.douban.com/people/achering/collect
p3020
ssV90729667
p3021
(dp3022
g11
I664
sg12
Vhttps://movie.douban.com/people/90729667/wish
p3023
sg14
I172
sg15
Vhttps://movie.douban.com/people/90729667/collect
p3024
ssVsnowcome
p3025
(dp3026
g11
I785
sg12
Vhttps://movie.douban.com/people/snowcome/wish
p3027
sg14
I159
sg15
Vhttps://movie.douban.com/people/snowcome/collect
p3028
ssVqfmeng
p3029
(dp3030
g11
I2041
sg12
Vhttps://movie.douban.com/people/qfmeng/wish
p3031
sg14
I146
sg15
Vhttps://movie.douban.com/people/qfmeng/collect
p3032
ssVflowerbaby
p3033
(dp3034
g11
I805
sg12
Vhttps://movie.douban.com/people/flowerbaby/wish
p3035
sg14
I331
sg15
Vhttps://movie.douban.com/people/flowerbaby/collect
p3036
ssVcylinyu
p3037
(dp3038
g11
I592
sg12
Vhttps://movie.douban.com/people/cylinyu/wish
p3039
sg14
I677
sg15
Vhttps://movie.douban.com/people/cylinyu/collect
p3040
ssVsmokey
p3041
(dp3042
g11
I4440
sg12
Vhttps://movie.douban.com/people/smokey/wish
p3043
sg14
I1775
sg15
Vhttps://movie.douban.com/people/smokey/collect
p3044
ssVStephanie.Zhan
p3045
(dp3046
g11
I1060
sg12
Vhttps://movie.douban.com/people/Stephanie.Zhan/wish
p3047
sg14
I208
sg15
Vhttps://movie.douban.com/people/Stephanie.Zhan/collect
p3048
ssVsecretcat
p3049
(dp3050
g3
I1122
sg4
Vhttps://movie.douban.com/people/secretcat/wish
p3051
sg6
I181
sg7
Vhttps://movie.douban.com/people/secretcat/collect
p3052
ssVjinasong
p3053
(dp3054
g11
I865
sg12
Vhttps://movie.douban.com/people/jinasong/wish
p3055
sg14
I134
sg15
Vhttps://movie.douban.com/people/jinasong/collect
p3056
ssVricsung
p3057
(dp3058
g3
I1715
sg4
Vhttps://movie.douban.com/people/ricsung/wish
p3059
sg6
I290
sg7
Vhttps://movie.douban.com/people/ricsung/collect
p3060
ssViamxiaoqi
p3061
(dp3062
g11
I1296
sg12
Vhttps://movie.douban.com/people/iamxiaoqi/wish
p3063
sg14
I1282
sg15
Vhttps://movie.douban.com/people/iamxiaoqi/collect
p3064
ssVMovieL
p3065
(dp3066
g11
I4149
sg12
Vhttps://movie.douban.com/people/MovieL/wish
p3067
sg14
I501
sg15
Vhttps://movie.douban.com/people/MovieL/collect
p3068
ssVSylein
p3069
(dp3070
g11
I1119
sg12
Vhttps://movie.douban.com/people/Sylein/wish
p3071
sg14
I933
sg15
Vhttps://movie.douban.com/people/Sylein/collect
p3072
ssVhappy19850818
p3073
(dp3074
g3
I794
sg4
Vhttps://movie.douban.com/people/happy19850818/wish
p3075
sg6
I130
sg7
Vhttps://movie.douban.com/people/happy19850818/collect
p3076
ssVfengxifengxi
p3077
(dp3078
g11
I3422
sg12
Vhttps://movie.douban.com/people/fengxifengxi/wish
p3079
sg14
I4422
sg15
Vhttps://movie.douban.com/people/fengxifengxi/collect
p3080
ssVtraceur
p3081
(dp3082
g11
I1854
sg12
Vhttps://movie.douban.com/people/traceur/wish
p3083
sg14
I376
sg15
Vhttps://movie.douban.com/people/traceur/collect
p3084
ssVcrankysophia
p3085
(dp3086
g3
I1232
sg4
Vhttps://movie.douban.com/people/crankysophia/wish
p3087
sg6
I423
sg7
Vhttps://movie.douban.com/people/crankysophia/collect
p3088
ssVhelenayu
p3089
(dp3090
g11
I578
sg12
Vhttps://movie.douban.com/people/helenayu/wish
p3091
sg14
I51
sg15
Vhttps://movie.douban.com/people/helenayu/collect
p3092
ssVLesley
p3093
(dp3094
g3
I609
sg4
Vhttps://movie.douban.com/people/Lesley/wish
p3095
sg6
I170
sg7
Vhttps://movie.douban.com/people/Lesley/collect
p3096
ssVfangyunan
p3097
(dp3098
g11
I7028
sg12
Vhttps://movie.douban.com/people/fangyunan/wish
p3099
sg14
I647
sg15
Vhttps://movie.douban.com/people/fangyunan/collect
p3100
ssVdreamdancer
p3101
(dp3102
g3
I801
sg4
Vhttps://movie.douban.com/people/dreamdancer/wish
p3103
sg6
I176
sg7
Vhttps://movie.douban.com/people/dreamdancer/collect
p3104
ssVaaronchiao1990
p3105
(dp3106
g11
I539
sg12
Vhttps://movie.douban.com/people/aaronchiao1990/wish
p3107
sg14
I436
sg15
Vhttps://movie.douban.com/people/aaronchiao1990/collect
p3108
ssVseeuaftersunday
p3109
(dp3110
g11
I635
sg12
Vhttps://movie.douban.com/people/seeuaftersunday/wish
p3111
sg14
I317
sg15
Vhttps://movie.douban.com/people/seeuaftersunday/collect
p3112
ssVskyearthone
p3113
(dp3114
g11
I1282
sg12
Vhttps://movie.douban.com/people/skyearthone/wish
p3115
sg14
I585
sg15
Vhttps://movie.douban.com/people/skyearthone/collect
p3116
ssVeryaair
p3117
(dp3118
g3
I771
sg4
Vhttps://movie.douban.com/people/eryaair/wish
p3119
sg6
I260
sg7
Vhttps://movie.douban.com/people/eryaair/collect
p3120
ssVduomeyouai
p3121
(dp3122
g11
I770
sg12
Vhttps://movie.douban.com/people/duomeyouai/wish
p3123
sg14
I304
sg15
Vhttps://movie.douban.com/people/duomeyouai/collect
p3124
ssVsakuras1412
p3125
(dp3126
g11
I2654
sg12
Vhttps://movie.douban.com/people/sakuras1412/wish
p3127
sg14
I385
sg15
Vhttps://movie.douban.com/people/sakuras1412/collect
p3128
ssVvanjuta
p3129
(dp3130
g11
I1046
sg12
Vhttps://movie.douban.com/people/vanjuta/wish
p3131
sg14
I243
sg15
Vhttps://movie.douban.com/people/vanjuta/collect
p3132
ssVWargrave
p3133
(dp3134
g11
I1534
sg12
Vhttps://movie.douban.com/people/Wargrave/wish
p3135
sg14
I332
sg15
Vhttps://movie.douban.com/people/Wargrave/collect
p3136
ssVfernweh
p3137
(dp3138
g11
I699
sg12
Vhttps://movie.douban.com/people/fernweh/wish
p3139
sg14
I820
sg15
Vhttps://movie.douban.com/people/fernweh/collect
p3140
ssVcancerlies
p3141
(dp3142
g11
I567
sg12
Vhttps://movie.douban.com/people/cancerlies/wish
p3143
sg14
I284
sg15
Vhttps://movie.douban.com/people/cancerlies/collect
p3144
ssVEscapingFormYou
p3145
(dp3146
g11
I614
sg12
Vhttps://movie.douban.com/people/EscapingFormYou/wish
p3147
sg14
I137
sg15
Vhttps://movie.douban.com/people/EscapingFormYou/collect
p3148
ssVtricky_V
p3149
(dp3150
g11
I1127
sg12
Vhttps://movie.douban.com/people/tricky_V/wish
p3151
sg14
I836
sg15
Vhttps://movie.douban.com/people/tricky_V/collect
p3152
ssVcabbico
p3153
(dp3154
g11
I1298
sg12
Vhttps://movie.douban.com/people/cabbico/wish
p3155
sg14
I638
sg15
Vhttps://movie.douban.com/people/cabbico/collect
p3156
ssVwbluegreen
p3157
(dp3158
g11
I4807
sg12
Vhttps://movie.douban.com/people/wbluegreen/wish
p3159
sg14
I304
sg15
Vhttps://movie.douban.com/people/wbluegreen/collect
p3160
ssVzhouzhenni
p3161
(dp3162
g11
I607
sg12
Vhttps://movie.douban.com/people/zhouzhenni/wish
p3163
sg14
I182
sg15
Vhttps://movie.douban.com/people/zhouzhenni/collect
p3164
ssVannie-bean
p3165
(dp3166
g11
I984
sg12
Vhttps://movie.douban.com/people/annie-bean/wish
p3167
sg14
I194
sg15
Vhttps://movie.douban.com/people/annie-bean/collect
p3168
ssV2586920
p3169
(dp3170
g11
I864
sg12
Vhttps://movie.douban.com/people/2586920/wish
p3171
sg14
I83
sg15
Vhttps://movie.douban.com/people/2586920/collect
p3172
ssVcancerorange
p3173
(dp3174
g11
I2137
sg12
Vhttps://movie.douban.com/people/cancerorange/wish
p3175
sg14
I1448
sg15
Vhttps://movie.douban.com/people/cancerorange/collect
p3176
ssVantijameslee
p3177
(dp3178
g11
I1044
sg12
Vhttps://movie.douban.com/people/antijameslee/wish
p3179
sg14
I605
sg15
Vhttps://movie.douban.com/people/antijameslee/collect
p3180
ssVsissi1260
p3181
(dp3182
g3
I555
sg4
Vhttps://movie.douban.com/people/sissi1260/wish
p3183
sg6
I572
sg7
Vhttps://movie.douban.com/people/sissi1260/collect
p3184
ssVznrb
p3185
(dp3186
g11
I1232
sg12
Vhttps://movie.douban.com/people/znrb/wish
p3187
sg14
I70
sg15
Vhttps://movie.douban.com/people/znrb/collect
p3188
ssVyoyi
p3189
(dp3190
g11
I664
sg12
Vhttps://movie.douban.com/people/yoyi/wish
p3191
sg14
I63
sg15
Vhttps://movie.douban.com/people/yoyi/collect
p3192
ssVblunting
p3193
(dp3194
g11
I1079
sg12
Vhttps://movie.douban.com/people/blunting/wish
p3195
sg14
I381
sg15
Vhttps://movie.douban.com/people/blunting/collect
p3196
ssVertong
p3197
(dp3198
g11
I550
sg12
Vhttps://movie.douban.com/people/ertong/wish
p3199
sg14
I261
sg15
Vhttps://movie.douban.com/people/ertong/collect
p3200
ssVhelloivan
p3201
(dp3202
g11
I2162
sg12
Vhttps://movie.douban.com/people/helloivan/wish
p3203
sg14
I52
sg15
Vhttps://movie.douban.com/people/helloivan/collect
p3204
ssVAppollonia
p3205
(dp3206
g11
I525
sg12
Vhttps://movie.douban.com/people/Appollonia/wish
p3207
sg14
I110
sg15
Vhttps://movie.douban.com/people/Appollonia/collect
p3208
ssVdiu-diu
p3209
(dp3210
g11
I2015
sg12
Vhttps://movie.douban.com/people/diu-diu/wish
p3211
sg14
I108
sg15
Vhttps://movie.douban.com/people/diu-diu/collect
p3212
ssValuu
p3213
(dp3214
g11
I2297
sg12
Vhttps://movie.douban.com/people/aluu/wish
p3215
sg14
I351
sg15
Vhttps://movie.douban.com/people/aluu/collect
p3216
ssVdavyxun
p3217
(dp3218
g3
I951
sg4
Vhttps://movie.douban.com/people/davyxun/wish
p3219
sg6
I688
sg7
Vhttps://movie.douban.com/people/davyxun/collect
p3220
ssVmuwei
p3221
(dp3222
g3
I1238
sg4
Vhttps://movie.douban.com/people/muwei/wish
p3223
sg6
I575
sg7
Vhttps://movie.douban.com/people/muwei/collect
p3224
ssVliang8912374
p3225
(dp3226
g11
I713
sg12
Vhttps://movie.douban.com/people/liang8912374/wish
p3227
sg14
I210
sg15
Vhttps://movie.douban.com/people/liang8912374/collect
p3228
ssVurielwang
p3229
(dp3230
g3
I3019
sg4
Vhttps://movie.douban.com/people/urielwang/wish
p3231
sg6
I114
sg7
Vhttps://movie.douban.com/people/urielwang/collect
p3232
ssVdatalive
p3233
(dp3234
g3
I979
sg4
Vhttps://movie.douban.com/people/datalive/wish
p3235
sg6
I221
sg7
Vhttps://movie.douban.com/people/datalive/collect
p3236
ssVladysuper
p3237
(dp3238
g11
I1032
sg12
Vhttps://movie.douban.com/people/ladysuper/wish
p3239
sg14
I805
sg15
Vhttps://movie.douban.com/people/ladysuper/collect
p3240
ssVMiyoco
p3241
(dp3242
g11
I754
sg12
Vhttps://movie.douban.com/people/Miyoco/wish
p3243
sg14
I125
sg15
Vhttps://movie.douban.com/people/Miyoco/collect
p3244
ssVayilacanoe
p3245
(dp3246
g11
I2533
sg12
Vhttps://movie.douban.com/people/ayilacanoe/wish
p3247
sg14
I209
sg15
Vhttps://movie.douban.com/people/ayilacanoe/collect
p3248
ssV3202437
p3249
(dp3250
g11
I1243
sg12
Vhttps://movie.douban.com/people/3202437/wish
p3251
sg14
I96
sg15
Vhttps://movie.douban.com/people/3202437/collect
p3252
ssVbilldon
p3253
(dp3254
g11
I1125
sg12
Vhttps://movie.douban.com/people/billdon/wish
p3255
sg14
I756
sg15
Vhttps://movie.douban.com/people/billdon/collect
p3256
ssV9086239
p3257
(dp3258
g3
I568
sg4
Vhttps://movie.douban.com/people/9086239/wish
p3259
sg6
I503
sg7
Vhttps://movie.douban.com/people/9086239/collect
p3260
ssV57978152
p3261
(dp3262
g11
I842
sg12
Vhttps://movie.douban.com/people/57978152/wish
p3263
sg14
I348
sg15
Vhttps://movie.douban.com/people/57978152/collect
p3264
ssVSundancer
p3265
(dp3266
g11
I2224
sg12
Vhttps://movie.douban.com/people/Sundancer/wish
p3267
sg14
I96
sg15
Vhttps://movie.douban.com/people/Sundancer/collect
p3268
ssV2742840
p3269
(dp3270
g3
I731
sg4
Vhttps://movie.douban.com/people/2742840/wish
p3271
sg6
I124
sg7
Vhttps://movie.douban.com/people/2742840/collect
p3272
ssVveverlee
p3273
(dp3274
g11
I4230
sg12
Vhttps://movie.douban.com/people/veverlee/wish
p3275
sg14
I1391
sg15
Vhttps://movie.douban.com/people/veverlee/collect
p3276
ssV1174955
p3277
(dp3278
g11
I786
sg12
Vhttps://movie.douban.com/people/1174955/wish
p3279
sg14
I454
sg15
Vhttps://movie.douban.com/people/1174955/collect
p3280
ssVdaisychen1942
p3281
(dp3282
g3
I722
sg4
Vhttps://movie.douban.com/people/daisychen1942/wish
p3283
sg6
I356
sg7
Vhttps://movie.douban.com/people/daisychen1942/collect
p3284
ssVnalakahn
p3285
(dp3286
g11
I776
sg12
Vhttps://movie.douban.com/people/nalakahn/wish
p3287
sg14
I298
sg15
Vhttps://movie.douban.com/people/nalakahn/collect
p3288
ssV2309684
p3289
(dp3290
g11
I761
sg12
Vhttps://movie.douban.com/people/2309684/wish
p3291
sg14
I210
sg15
Vhttps://movie.douban.com/people/2309684/collect
p3292
ssVBonnyBunny
p3293
(dp3294
g3
I662
sg4
Vhttps://movie.douban.com/people/BonnyBunny/wish
p3295
sg6
I284
sg7
Vhttps://movie.douban.com/people/BonnyBunny/collect
p3296
ssVwuguanfeng
p3297
(dp3298
g11
I2591
sg12
Vhttps://movie.douban.com/people/wuguanfeng/wish
p3299
sg14
I760
sg15
Vhttps://movie.douban.com/people/wuguanfeng/collect
p3300
ssVLolov
p3301
(dp3302
g11
I543
sg12
Vhttps://movie.douban.com/people/Lolov/wish
p3303
sg14
I620
sg15
Vhttps://movie.douban.com/people/Lolov/collect
p3304
ssV1912807
p3305
(dp3306
g11
I680
sg12
Vhttps://movie.douban.com/people/1912807/wish
p3307
sg14
I113
sg15
Vhttps://movie.douban.com/people/1912807/collect
p3308
ssVparasite
p3309
(dp3310
g11
I1051
sg12
Vhttps://movie.douban.com/people/parasite/wish
p3311
sg14
I253
sg15
Vhttps://movie.douban.com/people/parasite/collect
p3312
ssVsuxun
p3313
(dp3314
g11
I885
sg12
Vhttps://movie.douban.com/people/suxun/wish
p3315
sg14
I1177
sg15
Vhttps://movie.douban.com/people/suxun/collect
p3316
ssVSyls
p3317
(dp3318
g3
I664
sg4
Vhttps://movie.douban.com/people/Syls/wish
p3319
sg6
I244
sg7
Vhttps://movie.douban.com/people/Syls/collect
p3320
ssVmaplec
p3321
(dp3322
g11
I609
sg12
Vhttps://movie.douban.com/people/maplec/wish
p3323
sg14
I175
sg15
Vhttps://movie.douban.com/people/maplec/collect
p3324
ssVavamimi
p3325
(dp3326
g11
I1165
sg12
Vhttps://movie.douban.com/people/avamimi/wish
p3327
sg14
I481
sg15
Vhttps://movie.douban.com/people/avamimi/collect
p3328
ssVcarolilac
p3329
(dp3330
g11
I2163
sg12
Vhttps://movie.douban.com/people/carolilac/wish
p3331
sg14
I1567
sg15
Vhttps://movie.douban.com/people/carolilac/collect
p3332
ssVanniedear
p3333
(dp3334
g11
I837
sg12
Vhttps://movie.douban.com/people/anniedear/wish
p3335
sg14
I157
sg15
Vhttps://movie.douban.com/people/anniedear/collect
p3336
ssV3939505
p3337
(dp3338
g11
I540
sg12
Vhttps://movie.douban.com/people/3939505/wish
p3339
sg14
I55
sg15
Vhttps://movie.douban.com/people/3939505/collect
p3340
ssVzq198759
p3341
(dp3342
g11
I1019
sg12
Vhttps://movie.douban.com/people/zq198759/wish
p3343
sg14
I113
sg15
Vhttps://movie.douban.com/people/zq198759/collect
p3344
ssV60095783
p3345
(dp3346
g11
I744
sg12
Vhttps://movie.douban.com/people/60095783/wish
p3347
sg14
I1022
sg15
Vhttps://movie.douban.com/people/60095783/collect
p3348
ssVimagefly
p3349
(dp3350
g11
I2199
sg12
Vhttps://movie.douban.com/people/imagefly/wish
p3351
sg14
I1518
sg15
Vhttps://movie.douban.com/people/imagefly/collect
p3352
ssVxuqingbai
p3353
(dp3354
g3
I852
sg4
Vhttps://movie.douban.com/people/xuqingbai/wish
p3355
sg6
I304
sg7
Vhttps://movie.douban.com/people/xuqingbai/collect
p3356
ssVhoubs6686
p3357
(dp3358
g3
I665
sg4
Vhttps://movie.douban.com/people/houbs6686/wish
p3359
sg6
I175
sg7
Vhttps://movie.douban.com/people/houbs6686/collect
p3360
ssV138626698
p3361
(dp3362
g3
I1036
sg4
Vhttps://movie.douban.com/people/138626698/wish
p3363
sg6
I54
sg7
Vhttps://movie.douban.com/people/138626698/collect
p3364
ssVbuxiaoman
p3365
(dp3366
g11
I1333
sg12
Vhttps://movie.douban.com/people/buxiaoman/wish
p3367
sg14
I218
sg15
Vhttps://movie.douban.com/people/buxiaoman/collect
p3368
ssV51052456
p3369
(dp3370
g11
I1388
sg12
Vhttps://movie.douban.com/people/51052456/wish
p3371
sg14
I233
sg15
Vhttps://movie.douban.com/people/51052456/collect
p3372
ssV15866754
p3373
(dp3374
g3
I568
sg4
Vhttps://movie.douban.com/people/15866754/wish
p3375
sg6
I146
sg7
Vhttps://movie.douban.com/people/15866754/collect
p3376
ssV3484392
p3377
(dp3378
g11
I698
sg12
Vhttps://movie.douban.com/people/3484392/wish
p3379
sg14
I165
sg15
Vhttps://movie.douban.com/people/3484392/collect
p3380
ssVweiranwei
p3381
(dp3382
g3
I713
sg4
Vhttps://movie.douban.com/people/weiranwei/wish
p3383
sg6
I236
sg7
Vhttps://movie.douban.com/people/weiranwei/collect
p3384
ssVelletys
p3385
(dp3386
g11
I1055
sg12
Vhttps://movie.douban.com/people/elletys/wish
p3387
sg14
I947
sg15
Vhttps://movie.douban.com/people/elletys/collect
p3388
ssV4217670
p3389
(dp3390
g11
I1780
sg12
Vhttps://movie.douban.com/people/4217670/wish
p3391
sg14
I401
sg15
Vhttps://movie.douban.com/people/4217670/collect
p3392
ssV45485829
p3393
(dp3394
g11
I1330
sg12
Vhttps://movie.douban.com/people/45485829/wish
p3395
sg14
I257
sg15
Vhttps://movie.douban.com/people/45485829/collect
p3396
ssVmycage
p3397
(dp3398
g11
I4080
sg12
Vhttps://movie.douban.com/people/mycage/wish
p3399
sg14
I597
sg15
Vhttps://movie.douban.com/people/mycage/collect
p3400
ssVlittle_cupid
p3401
(dp3402
g11
I3647
sg12
Vhttps://movie.douban.com/people/little_cupid/wish
p3403
sg14
I212
sg15
Vhttps://movie.douban.com/people/little_cupid/collect
p3404
ssV54621732
p3405
(dp3406
g11
I2149
sg12
Vhttps://movie.douban.com/people/54621732/wish
p3407
sg14
I238
sg15
Vhttps://movie.douban.com/people/54621732/collect
p3408
ssVBlessForDan
p3409
(dp3410
g11
I931
sg12
Vhttps://movie.douban.com/people/BlessForDan/wish
p3411
sg14
I266
sg15
Vhttps://movie.douban.com/people/BlessForDan/collect
p3412
ssVmajunchuan
p3413
(dp3414
g11
I1014
sg12
Vhttps://movie.douban.com/people/majunchuan/wish
p3415
sg14
I228
sg15
Vhttps://movie.douban.com/people/majunchuan/collect
p3416
ssVnancy527
p3417
(dp3418
g11
I1078
sg12
Vhttps://movie.douban.com/people/nancy527/wish
p3419
sg14
I384
sg15
Vhttps://movie.douban.com/people/nancy527/collect
p3420
ssVchenyi1976
p3421
(dp3422
g3
I1025
sg4
Vhttps://movie.douban.com/people/chenyi1976/wish
p3423
sg6
I1130
sg7
Vhttps://movie.douban.com/people/chenyi1976/collect
p3424
ssVchestnut-girl
p3425
(dp3426
g3
I1550
sg4
Vhttps://movie.douban.com/people/chestnut-girl/wish
p3427
sg6
I98
sg7
Vhttps://movie.douban.com/people/chestnut-girl/collect
p3428
ssVkuiyingqiao
p3429
(dp3430
g11
I675
sg12
Vhttps://movie.douban.com/people/kuiyingqiao/wish
p3431
sg14
I65
sg15
Vhttps://movie.douban.com/people/kuiyingqiao/collect
p3432
ssVdragonpark
p3433
(dp3434
g11
I545
sg12
Vhttps://movie.douban.com/people/dragonpark/wish
p3435
sg14
I66
sg15
Vhttps://movie.douban.com/people/dragonpark/collect
p3436
ssV49576050
p3437
(dp3438
g11
I2734
sg12
Vhttps://movie.douban.com/people/49576050/wish
p3439
sg14
I63
sg15
Vhttps://movie.douban.com/people/49576050/collect
p3440
ssVisabellagreen
p3441
(dp3442
g3
I1195
sg4
Vhttps://movie.douban.com/people/isabellagreen/wish
p3443
sg6
I465
sg7
Vhttps://movie.douban.com/people/isabellagreen/collect
p3444
ssVannabel828
p3445
(dp3446
g11
I519
sg12
Vhttps://movie.douban.com/people/annabel828/wish
p3447
sg14
I279
sg15
Vhttps://movie.douban.com/people/annabel828/collect
p3448
ssVwanfanhua
p3449
(dp3450
g11
I564
sg12
Vhttps://movie.douban.com/people/wanfanhua/wish
p3451
sg14
I170
sg15
Vhttps://movie.douban.com/people/wanfanhua/collect
p3452
ssVhaizi1983
p3453
(dp3454
g11
I1516
sg12
Vhttps://movie.douban.com/people/haizi1983/wish
p3455
sg14
I69
sg15
Vhttps://movie.douban.com/people/haizi1983/collect
p3456
ssVmichaeltyler
p3457
(dp3458
g11
I1543
sg12
Vhttps://movie.douban.com/people/michaeltyler/wish
p3459
sg14
I127
sg15
Vhttps://movie.douban.com/people/michaeltyler/collect
p3460
ssVshapesofdreams
p3461
(dp3462
g3
I1706
sg4
Vhttps://movie.douban.com/people/shapesofdreams/wish
p3463
sg6
I604
sg7
Vhttps://movie.douban.com/people/shapesofdreams/collect
p3464
ssVlurxHH0607
p3465
(dp3466
g11
I571
sg12
Vhttps://movie.douban.com/people/lurxHH0607/wish
p3467
sg14
I321
sg15
Vhttps://movie.douban.com/people/lurxHH0607/collect
p3468
ssVmissshakespeare
p3469
(dp3470
g11
I1003
sg12
Vhttps://movie.douban.com/people/missshakespeare/wish
p3471
sg14
I492
sg15
Vhttps://movie.douban.com/people/missshakespeare/collect
p3472
ssVSmarass
p3473
(dp3474
g11
I1426
sg12
Vhttps://movie.douban.com/people/Smarass/wish
p3475
sg14
I1246
sg15
Vhttps://movie.douban.com/people/Smarass/collect
p3476
ssVjiangbei105
p3477
(dp3478
g11
I719
sg12
Vhttps://movie.douban.com/people/jiangbei105/wish
p3479
sg14
I1796
sg15
Vhttps://movie.douban.com/people/jiangbei105/collect
p3480
ssVhexiaoqin
p3481
(dp3482
g11
I3261
sg12
Vhttps://movie.douban.com/people/hexiaoqin/wish
p3483
sg14
I4346
sg15
Vhttps://movie.douban.com/people/hexiaoqin/collect
p3484
ssV66552525
p3485
(dp3486
g11
I6357
sg12
Vhttps://movie.douban.com/people/66552525/wish
p3487
sg14
I183
sg15
Vhttps://movie.douban.com/people/66552525/collect
p3488
ssVmxl117
p3489
(dp3490
g3
I1314
sg4
Vhttps://movie.douban.com/people/mxl117/wish
p3491
sg6
I710
sg7
Vhttps://movie.douban.com/people/mxl117/collect
p3492
ssVxx218
p3493
(dp3494
g11
I1858
sg12
Vhttps://movie.douban.com/people/xx218/wish
p3495
sg14
I323
sg15
Vhttps://movie.douban.com/people/xx218/collect
p3496
ssV1074794
p3497
(dp3498
g11
I996
sg12
Vhttps://movie.douban.com/people/1074794/wish
p3499
sg14
I462
sg15
Vhttps://movie.douban.com/people/1074794/collect
p3500
ssVYolanda.mei
p3501
(dp3502
g11
I788
sg12
Vhttps://movie.douban.com/people/Yolanda.mei/wish
p3503
sg14
I151
sg15
Vhttps://movie.douban.com/people/Yolanda.mei/collect
p3504
ssVdormant
p3505
(dp3506
g11
I3933
sg12
Vhttps://movie.douban.com/people/dormant/wish
p3507
sg14
I230
sg15
Vhttps://movie.douban.com/people/dormant/collect
p3508
ssV2029651
p3509
(dp3510
g11
I2050
sg12
Vhttps://movie.douban.com/people/2029651/wish
p3511
sg14
I531
sg15
Vhttps://movie.douban.com/people/2029651/collect
p3512
ssV2254367
p3513
(dp3514
g11
I1257
sg12
Vhttps://movie.douban.com/people/2254367/wish
p3515
sg14
I784
sg15
Vhttps://movie.douban.com/people/2254367/collect
p3516
ssVcect
p3517
(dp3518
g3
I568
sg4
Vhttps://movie.douban.com/people/cect/wish
p3519
sg6
I86
sg7
Vhttps://movie.douban.com/people/cect/collect
p3520
ssVobi
p3521
(dp3522
g11
I1092
sg12
Vhttps://movie.douban.com/people/obi/wish
p3523
sg14
I145
sg15
Vhttps://movie.douban.com/people/obi/collect
p3524
ssVtyche
p3525
(dp3526
g11
I738
sg12
Vhttps://movie.douban.com/people/tyche/wish
p3527
sg14
I159
sg15
Vhttps://movie.douban.com/people/tyche/collect
p3528
ssVsuuummer71
p3529
(dp3530
g11
I1008
sg12
Vhttps://movie.douban.com/people/suuummer71/wish
p3531
sg14
I73
sg15
Vhttps://movie.douban.com/people/suuummer71/collect
p3532
ssVbanbeizi
p3533
(dp3534
g11
I3405
sg12
Vhttps://movie.douban.com/people/banbeizi/wish
p3535
sg14
I232
sg15
Vhttps://movie.douban.com/people/banbeizi/collect
p3536
ssVvera4622
p3537
(dp3538
g11
I1294
sg12
Vhttps://movie.douban.com/people/vera4622/wish
p3539
sg14
I266
sg15
Vhttps://movie.douban.com/people/vera4622/collect
p3540
ssVlinjunhalida
p3541
(dp3542
g11
I567
sg12
Vhttps://movie.douban.com/people/linjunhalida/wish
p3543
sg14
I295
sg15
Vhttps://movie.douban.com/people/linjunhalida/collect
p3544
ssVjinpiankong
p3545
(dp3546
g11
I3340
sg12
Vhttps://movie.douban.com/people/jinpiankong/wish
p3547
sg14
I2733
sg15
Vhttps://movie.douban.com/people/jinpiankong/collect
p3548
ssVmnqn
p3549
(dp3550
g11
I1327
sg12
Vhttps://movie.douban.com/people/mnqn/wish
p3551
sg14
I1172
sg15
Vhttps://movie.douban.com/people/mnqn/collect
p3552
ssVsunriver
p3553
(dp3554
g11
I1261
sg12
Vhttps://movie.douban.com/people/sunriver/wish
p3555
sg14
I625
sg15
Vhttps://movie.douban.com/people/sunriver/collect
p3556
ssVliusashmily
p3557
(dp3558
g11
I1094
sg12
Vhttps://movie.douban.com/people/liusashmily/wish
p3559
sg14
I74
sg15
Vhttps://movie.douban.com/people/liusashmily/collect
p3560
ssVheshouwu555
p3561
(dp3562
g11
I624
sg12
Vhttps://movie.douban.com/people/heshouwu555/wish
p3563
sg14
I254
sg15
Vhttps://movie.douban.com/people/heshouwu555/collect
p3564
ssVUvo
p3565
(dp3566
g11
I1869
sg12
Vhttps://movie.douban.com/people/Uvo/wish
p3567
sg14
I401
sg15
Vhttps://movie.douban.com/people/Uvo/collect
p3568
ssV2744224
p3569
(dp3570
g11
I1072
sg12
Vhttps://movie.douban.com/people/2744224/wish
p3571
sg14
I81
sg15
Vhttps://movie.douban.com/people/2744224/collect
p3572
ssVzjchinar
p3573
(dp3574
g11
I698
sg12
Vhttps://movie.douban.com/people/zjchinar/wish
p3575
sg14
I164
sg15
Vhttps://movie.douban.com/people/zjchinar/collect
p3576
ssV1274922
p3577
(dp3578
g11
I1314
sg12
Vhttps://movie.douban.com/people/1274922/wish
p3579
sg14
I166
sg15
Vhttps://movie.douban.com/people/1274922/collect
p3580
ssV1413100
p3581
(dp3582
g11
I2306
sg12
Vhttps://movie.douban.com/people/1413100/wish
p3583
sg14
I290
sg15
Vhttps://movie.douban.com/people/1413100/collect
p3584
ssVViccore
p3585
(dp3586
g11
I742
sg12
Vhttps://movie.douban.com/people/Viccore/wish
p3587
sg14
I528
sg15
Vhttps://movie.douban.com/people/Viccore/collect
p3588
ssV1305491
p3589
(dp3590
g11
I1378
sg12
Vhttps://movie.douban.com/people/1305491/wish
p3591
sg14
I356
sg15
Vhttps://movie.douban.com/people/1305491/collect
p3592
ssVxxx_o0
p3593
(dp3594
g3
I721
sg4
Vhttps://movie.douban.com/people/xxx_o0/wish
p3595
sg6
I139
sg7
Vhttps://movie.douban.com/people/xxx_o0/collect
p3596
ssVlizixin
p3597
(dp3598
g11
I694
sg12
Vhttps://movie.douban.com/people/lizixin/wish
p3599
sg14
I424
sg15
Vhttps://movie.douban.com/people/lizixin/collect
p3600
ssVvividtime
p3601
(dp3602
g3
I2770
sg4
Vhttps://movie.douban.com/people/vividtime/wish
p3603
sg6
I74
sg7
Vhttps://movie.douban.com/people/vividtime/collect
p3604
ssV2472202
p3605
(dp3606
g11
I1478
sg12
Vhttps://movie.douban.com/people/2472202/wish
p3607
sg14
I1128
sg15
Vhttps://movie.douban.com/people/2472202/collect
p3608
ssVyyh
p3609
(dp3610
g11
I749
sg12
Vhttps://movie.douban.com/people/yyh/wish
p3611
sg14
I105
sg15
Vhttps://movie.douban.com/people/yyh/collect
p3612
ssVgodlovesemily
p3613
(dp3614
g11
I579
sg12
Vhttps://movie.douban.com/people/godlovesemily/wish
p3615
sg14
I609
sg15
Vhttps://movie.douban.com/people/godlovesemily/collect
p3616
ssVrunee
p3617
(dp3618
g11
I1132
sg12
Vhttps://movie.douban.com/people/runee/wish
p3619
sg14
I250
sg15
Vhttps://movie.douban.com/people/runee/collect
p3620
ssVluzhiyu
p3621
(dp3622
g11
I7923
sg12
Vhttps://movie.douban.com/people/luzhiyu/wish
p3623
sg14
I18385
sg15
Vhttps://movie.douban.com/people/luzhiyu/collect
p3624
ssVsalomechen
p3625
(dp3626
g11
I538
sg12
Vhttps://movie.douban.com/people/salomechen/wish
p3627
sg14
I54
sg15
Vhttps://movie.douban.com/people/salomechen/collect
p3628
ssVuoyleef
p3629
(dp3630
g3
I3060
sg4
Vhttps://movie.douban.com/people/uoyleef/wish
p3631
sg6
I729
sg7
Vhttps://movie.douban.com/people/uoyleef/collect
p3632
ssVsakinijino
p3633
(dp3634
g3
I1224
sg4
Vhttps://movie.douban.com/people/sakinijino/wish
p3635
sg6
I161
sg7
Vhttps://movie.douban.com/people/sakinijino/collect
p3636
ssVkarinawoo
p3637
(dp3638
g11
I1181
sg12
Vhttps://movie.douban.com/people/karinawoo/wish
p3639
sg14
I1157
sg15
Vhttps://movie.douban.com/people/karinawoo/collect
p3640
ssVfortblk
p3641
(dp3642
g11
I3089
sg12
Vhttps://movie.douban.com/people/fortblk/wish
p3643
sg14
I965
sg15
Vhttps://movie.douban.com/people/fortblk/collect
p3644
ssV3927980
p3645
(dp3646
g11
I1425
sg12
Vhttps://movie.douban.com/people/3927980/wish
p3647
sg14
I558
sg15
Vhttps://movie.douban.com/people/3927980/collect
p3648
ssVxjtlujoe
p3649
(dp3650
g11
I1495
sg12
Vhttps://movie.douban.com/people/xjtlujoe/wish
p3651
sg14
I295
sg15
Vhttps://movie.douban.com/people/xjtlujoe/collect
p3652
ssVmacciato
p3653
(dp3654
g11
I1063
sg12
Vhttps://movie.douban.com/people/macciato/wish
p3655
sg14
I354
sg15
Vhttps://movie.douban.com/people/macciato/collect
p3656
ssV24197461
p3657
(dp3658
g11
I965
sg12
Vhttps://movie.douban.com/people/24197461/wish
p3659
sg14
I174
sg15
Vhttps://movie.douban.com/people/24197461/collect
p3660
ssV14600226
p3661
(dp3662
g11
I1210
sg12
Vhttps://movie.douban.com/people/14600226/wish
p3663
sg14
I555
sg15
Vhttps://movie.douban.com/people/14600226/collect
p3664
ssV1333942
p3665
(dp3666
g11
I1667
sg12
Vhttps://movie.douban.com/people/1333942/wish
p3667
sg14
I955
sg15
Vhttps://movie.douban.com/people/1333942/collect
p3668
ssVKAZESEY
p3669
(dp3670
g11
I666
sg12
Vhttps://movie.douban.com/people/KAZESEY/wish
p3671
sg14
I536
sg15
Vhttps://movie.douban.com/people/KAZESEY/collect
p3672
ssVbeepee
p3673
(dp3674
g11
I2846
sg12
Vhttps://movie.douban.com/people/beepee/wish
p3675
sg14
I2943
sg15
Vhttps://movie.douban.com/people/beepee/collect
p3676
ssVjashia
p3677
(dp3678
g3
I1116
sg4
Vhttps://movie.douban.com/people/jashia/wish
p3679
sg6
I441
sg7
Vhttps://movie.douban.com/people/jashia/collect
p3680
ssVshenshike
p3681
(dp3682
g11
I1216
sg12
Vhttps://movie.douban.com/people/shenshike/wish
p3683
sg14
I109
sg15
Vhttps://movie.douban.com/people/shenshike/collect
p3684
ssV47941742
p3685
(dp3686
g11
I1430
sg12
Vhttps://movie.douban.com/people/47941742/wish
p3687
sg14
I135
sg15
Vhttps://movie.douban.com/people/47941742/collect
p3688
ssVjianjian8888
p3689
(dp3690
g3
I1774
sg4
Vhttps://movie.douban.com/people/jianjian8888/wish
p3691
sg6
I66
sg7
Vhttps://movie.douban.com/people/jianjian8888/collect
p3692
ssV49270794
p3693
(dp3694
g11
I1458
sg12
Vhttps://movie.douban.com/people/49270794/wish
p3695
sg14
I1952
sg15
Vhttps://movie.douban.com/people/49270794/collect
p3696
ssVmelanie
p3697
(dp3698
g11
I2099
sg12
Vhttps://movie.douban.com/people/melanie/wish
p3699
sg14
I641
sg15
Vhttps://movie.douban.com/people/melanie/collect
p3700
ssVmuyao0823
p3701
(dp3702
g11
I937
sg12
Vhttps://movie.douban.com/people/muyao0823/wish
p3703
sg14
I311
sg15
Vhttps://movie.douban.com/people/muyao0823/collect
p3704
ssV4448539
p3705
(dp3706
g11
I907
sg12
Vhttps://movie.douban.com/people/4448539/wish
p3707
sg14
I158
sg15
Vhttps://movie.douban.com/people/4448539/collect
p3708
ssV50775387
p3709
(dp3710
g11
I1695
sg12
Vhttps://movie.douban.com/people/50775387/wish
p3711
sg14
I847
sg15
Vhttps://movie.douban.com/people/50775387/collect
p3712
ssVhumechan
p3713
(dp3714
g11
I632
sg12
Vhttps://movie.douban.com/people/humechan/wish
p3715
sg14
I127
sg15
Vhttps://movie.douban.com/people/humechan/collect
p3716
ssVzhaoyajing
p3717
(dp3718
g11
I1324
sg12
Vhttps://movie.douban.com/people/zhaoyajing/wish
p3719
sg14
I878
sg15
Vhttps://movie.douban.com/people/zhaoyajing/collect
p3720
ssVskyswind
p3721
(dp3722
g11
I526
sg12
Vhttps://movie.douban.com/people/skyswind/wish
p3723
sg14
I467
sg15
Vhttps://movie.douban.com/people/skyswind/collect
p3724
ssVreader-shuo
p3725
(dp3726
g11
I815
sg12
Vhttps://movie.douban.com/people/reader-shuo/wish
p3727
sg14
I64
sg15
Vhttps://movie.douban.com/people/reader-shuo/collect
p3728
ssVsunalsorise
p3729
(dp3730
g3
I808
sg4
Vhttps://movie.douban.com/people/sunalsorise/wish
p3731
sg6
I337
sg7
Vhttps://movie.douban.com/people/sunalsorise/collect
p3732
ssV46103967
p3733
(dp3734
g11
I983
sg12
Vhttps://movie.douban.com/people/46103967/wish
p3735
sg14
I1519
sg15
Vhttps://movie.douban.com/people/46103967/collect
p3736
ssVKei-ko
p3737
(dp3738
g11
I605
sg12
Vhttps://movie.douban.com/people/Kei-ko/wish
p3739
sg14
I139
sg15
Vhttps://movie.douban.com/people/Kei-ko/collect
p3740
ssVhayibala
p3741
(dp3742
g11
I1765
sg12
Vhttps://movie.douban.com/people/hayibala/wish
p3743
sg14
I362
sg15
Vhttps://movie.douban.com/people/hayibala/collect
p3744
ssVlily-monica
p3745
(dp3746
g11
I832
sg12
Vhttps://movie.douban.com/people/lily-monica/wish
p3747
sg14
I95
sg15
Vhttps://movie.douban.com/people/lily-monica/collect
p3748
ssVsololight
p3749
(dp3750
g11
I787
sg12
Vhttps://movie.douban.com/people/sololight/wish
p3751
sg14
I230
sg15
Vhttps://movie.douban.com/people/sololight/collect
p3752
ssV48288752
p3753
(dp3754
g11
I2142
sg12
Vhttps://movie.douban.com/people/48288752/wish
p3755
sg14
I104
sg15
Vhttps://movie.douban.com/people/48288752/collect
p3756
ssV51114715
p3757
(dp3758
g11
I564
sg12
Vhttps://movie.douban.com/people/51114715/wish
p3759
sg14
I63
sg15
Vhttps://movie.douban.com/people/51114715/collect
p3760
ssV1436877
p3761
(dp3762
g11
I1565
sg12
Vhttps://movie.douban.com/people/1436877/wish
p3763
sg14
I399
sg15
Vhttps://movie.douban.com/people/1436877/collect
p3764
ssVlilimarleen
p3765
(dp3766
g11
I782
sg12
Vhttps://movie.douban.com/people/lilimarleen/wish
p3767
sg14
I169
sg15
Vhttps://movie.douban.com/people/lilimarleen/collect
p3768
ssVkidhuran
p3769
(dp3770
g11
I552
sg12
Vhttps://movie.douban.com/people/kidhuran/wish
p3771
sg14
I392
sg15
Vhttps://movie.douban.com/people/kidhuran/collect
p3772
ssVnestle
p3773
(dp3774
g11
I1087
sg12
Vhttps://movie.douban.com/people/nestle/wish
p3775
sg14
I310
sg15
Vhttps://movie.douban.com/people/nestle/collect
p3776
ssVKev.Garnett
p3777
(dp3778
g11
I1443
sg12
Vhttps://movie.douban.com/people/Kev.Garnett/wish
p3779
sg14
I545
sg15
Vhttps://movie.douban.com/people/Kev.Garnett/collect
p3780
ssVpp3288
p3781
(dp3782
g11
I684
sg12
Vhttps://movie.douban.com/people/pp3288/wish
p3783
sg14
I103
sg15
Vhttps://movie.douban.com/people/pp3288/collect
p3784
ssVMabledu
p3785
(dp3786
g11
I599
sg12
Vhttps://movie.douban.com/people/Mabledu/wish
p3787
sg14
I77
sg15
Vhttps://movie.douban.com/people/Mabledu/collect
p3788
ssVjane1638
p3789
(dp3790
g11
I596
sg12
Vhttps://movie.douban.com/people/jane1638/wish
p3791
sg14
I185
sg15
Vhttps://movie.douban.com/people/jane1638/collect
p3792
ssVmosquitosliao
p3793
(dp3794
g11
I556
sg12
Vhttps://movie.douban.com/people/mosquitosliao/wish
p3795
sg14
I54
sg15
Vhttps://movie.douban.com/people/mosquitosliao/collect
p3796
ssVmanchild
p3797
(dp3798
g11
I1644
sg12
Vhttps://movie.douban.com/people/manchild/wish
p3799
sg14
I572
sg15
Vhttps://movie.douban.com/people/manchild/collect
p3800
ssVvodkaorlsd
p3801
(dp3802
g11
I645
sg12
Vhttps://movie.douban.com/people/vodkaorlsd/wish
p3803
sg14
I451
sg15
Vhttps://movie.douban.com/people/vodkaorlsd/collect
p3804
ssV1443267
p3805
(dp3806
g11
I633
sg12
Vhttps://movie.douban.com/people/1443267/wish
p3807
sg14
I274
sg15
Vhttps://movie.douban.com/people/1443267/collect
p3808
ssVzinggle
p3809
(dp3810
g11
I1352
sg12
Vhttps://movie.douban.com/people/zinggle/wish
p3811
sg14
I535
sg15
Vhttps://movie.douban.com/people/zinggle/collect
p3812
ssVshulan
p3813
(dp3814
g11
I674
sg12
Vhttps://movie.douban.com/people/shulan/wish
p3815
sg14
I219
sg15
Vhttps://movie.douban.com/people/shulan/collect
p3816
ssV52980812
p3817
(dp3818
g11
I1451
sg12
Vhttps://movie.douban.com/people/52980812/wish
p3819
sg14
I215
sg15
Vhttps://movie.douban.com/people/52980812/collect
p3820
ssVsakimay
p3821
(dp3822
g11
I1943
sg12
Vhttps://movie.douban.com/people/sakimay/wish
p3823
sg14
I60
sg15
Vhttps://movie.douban.com/people/sakimay/collect
p3824
ssVbuddha-placebo
p3825
(dp3826
g11
I570
sg12
Vhttps://movie.douban.com/people/buddha-placebo/wish
p3827
sg14
I102
sg15
Vhttps://movie.douban.com/people/buddha-placebo/collect
p3828
ssVyinxiang
p3829
(dp3830
g11
I4547
sg12
Vhttps://movie.douban.com/people/yinxiang/wish
p3831
sg14
I2671
sg15
Vhttps://movie.douban.com/people/yinxiang/collect
p3832
ssVtatoo
p3833
(dp3834
g11
I870
sg12
Vhttps://movie.douban.com/people/tatoo/wish
p3835
sg14
I218
sg15
Vhttps://movie.douban.com/people/tatoo/collect
p3836
ssVtan-mu
p3837
(dp3838
g3
I1166
sg4
Vhttps://movie.douban.com/people/tan-mu/wish
p3839
sg6
I341
sg7
Vhttps://movie.douban.com/people/tan-mu/collect
p3840
ssVfyun
p3841
(dp3842
g11
I1312
sg12
Vhttps://movie.douban.com/people/fyun/wish
p3843
sg14
I53
sg15
Vhttps://movie.douban.com/people/fyun/collect
p3844
ssVzelltry
p3845
(dp3846
g3
I753
sg4
Vhttps://movie.douban.com/people/zelltry/wish
p3847
sg6
I420
sg7
Vhttps://movie.douban.com/people/zelltry/collect
p3848
ssVwhiterainbow310
p3849
(dp3850
g11
I986
sg12
Vhttps://movie.douban.com/people/whiterainbow310/wish
p3851
sg14
I487
sg15
Vhttps://movie.douban.com/people/whiterainbow310/collect
p3852
ssVDAIDAIDAIDAI
p3853
(dp3854
g11
I1267
sg12
Vhttps://movie.douban.com/people/DAIDAIDAIDAI/wish
p3855
sg14
I202
sg15
Vhttps://movie.douban.com/people/DAIDAIDAIDAI/collect
p3856
ssVsnowangel85
p3857
(dp3858
g11
I716
sg12
Vhttps://movie.douban.com/people/snowangel85/wish
p3859
sg14
I332
sg15
Vhttps://movie.douban.com/people/snowangel85/collect
p3860
ssVjesse
p3861
(dp3862
g11
I961
sg12
Vhttps://movie.douban.com/people/jesse/wish
p3863
sg14
I142
sg15
Vhttps://movie.douban.com/people/jesse/collect
p3864
ssVkejinlong
p3865
(dp3866
g11
I5226
sg12
Vhttps://movie.douban.com/people/kejinlong/wish
p3867
sg14
I68
sg15
Vhttps://movie.douban.com/people/kejinlong/collect
p3868
ssVchrisocean
p3869
(dp3870
g3
I3086
sg4
Vhttps://movie.douban.com/people/chrisocean/wish
p3871
sg6
I759
sg7
Vhttps://movie.douban.com/people/chrisocean/collect
p3872
ssVetheljin
p3873
(dp3874
g11
I993
sg12
Vhttps://movie.douban.com/people/etheljin/wish
p3875
sg14
I228
sg15
Vhttps://movie.douban.com/people/etheljin/collect
p3876
ssV32866116
p3877
(dp3878
g11
I898
sg12
Vhttps://movie.douban.com/people/32866116/wish
p3879
sg14
I158
sg15
Vhttps://movie.douban.com/people/32866116/collect
p3880
ssVmocha811
p3881
(dp3882
g11
I550
sg12
Vhttps://movie.douban.com/people/mocha811/wish
p3883
sg14
I185
sg15
Vhttps://movie.douban.com/people/mocha811/collect
p3884
ssVtin
p3885
(dp3886
g11
I1949
sg12
Vhttps://movie.douban.com/people/tin/wish
p3887
sg14
I1336
sg15
Vhttps://movie.douban.com/people/tin/collect
p3888
ssVzephyr01
p3889
(dp3890
g11
I1088
sg12
Vhttps://movie.douban.com/people/zephyr01/wish
p3891
sg14
I352
sg15
Vhttps://movie.douban.com/people/zephyr01/collect
p3892
ssV3356830
p3893
(dp3894
g11
I1063
sg12
Vhttps://movie.douban.com/people/3356830/wish
p3895
sg14
I1102
sg15
Vhttps://movie.douban.com/people/3356830/collect
p3896
ssV1908274
p3897
(dp3898
g11
I1121
sg12
Vhttps://movie.douban.com/people/1908274/wish
p3899
sg14
I108
sg15
Vhttps://movie.douban.com/people/1908274/collect
p3900
ssV1053221
p3901
(dp3902
g11
I3697
sg12
Vhttps://movie.douban.com/people/1053221/wish
p3903
sg14
I120
sg15
Vhttps://movie.douban.com/people/1053221/collect
p3904
ssVchequel7880
p3905
(dp3906
g11
I1181
sg12
Vhttps://movie.douban.com/people/chequel7880/wish
p3907
sg14
I682
sg15
Vhttps://movie.douban.com/people/chequel7880/collect
p3908
ssVdickpanda
p3909
(dp3910
g11
I528
sg12
Vhttps://movie.douban.com/people/dickpanda/wish
p3911
sg14
I189
sg15
Vhttps://movie.douban.com/people/dickpanda/collect
p3912
ssVgreywolf
p3913
(dp3914
g11
I4854
sg12
Vhttps://movie.douban.com/people/greywolf/wish
p3915
sg14
I380
sg15
Vhttps://movie.douban.com/people/greywolf/collect
p3916
ssViamhermit
p3917
(dp3918
g11
I732
sg12
Vhttps://movie.douban.com/people/iamhermit/wish
p3919
sg14
I141
sg15
Vhttps://movie.douban.com/people/iamhermit/collect
p3920
ssVwzcjojo
p3921
(dp3922
g11
I2315
sg12
Vhttps://movie.douban.com/people/wzcjojo/wish
p3923
sg14
I437
sg15
Vhttps://movie.douban.com/people/wzcjojo/collect
p3924
ssVGreen_Girl
p3925
(dp3926
g3
I1607
sg4
Vhttps://movie.douban.com/people/Green_Girl/wish
p3927
sg6
I162
sg7
Vhttps://movie.douban.com/people/Green_Girl/collect
p3928
ssVbrandz
p3929
(dp3930
g11
I854
sg12
Vhttps://movie.douban.com/people/brandz/wish
p3931
sg14
I56
sg15
Vhttps://movie.douban.com/people/brandz/collect
p3932
ssVrachelfeiya
p3933
(dp3934
g11
I622
sg12
Vhttps://movie.douban.com/people/rachelfeiya/wish
p3935
sg14
I190
sg15
Vhttps://movie.douban.com/people/rachelfeiya/collect
p3936
ssVrosemaryyr
p3937
(dp3938
g11
I776
sg12
Vhttps://movie.douban.com/people/rosemaryyr/wish
p3939
sg14
I4944
sg15
Vhttps://movie.douban.com/people/rosemaryyr/collect
p3940
ssV1068202
p3941
(dp3942
g11
I2162
sg12
Vhttps://movie.douban.com/people/1068202/wish
p3943
sg14
I466
sg15
Vhttps://movie.douban.com/people/1068202/collect
p3944
ssVcherish-forever
p3945
(dp3946
g11
I596
sg12
Vhttps://movie.douban.com/people/cherish-forever/wish
p3947
sg14
I52
sg15
Vhttps://movie.douban.com/people/cherish-forever/collect
p3948
ssVyolandaziru
p3949
(dp3950
g11
I702
sg12
Vhttps://movie.douban.com/people/yolandaziru/wish
p3951
sg14
I421
sg15
Vhttps://movie.douban.com/people/yolandaziru/collect
p3952
ssV62548957
p3953
(dp3954
g11
I1264
sg12
Vhttps://movie.douban.com/people/62548957/wish
p3955
sg14
I89
sg15
Vhttps://movie.douban.com/people/62548957/collect
p3956
ssVduainiyiren
p3957
(dp3958
g11
I1089
sg12
Vhttps://movie.douban.com/people/duainiyiren/wish
p3959
sg14
I1287
sg15
Vhttps://movie.douban.com/people/duainiyiren/collect
p3960
ssVforest9
p3961
(dp3962
g11
I699
sg12
Vhttps://movie.douban.com/people/forest9/wish
p3963
sg14
I223
sg15
Vhttps://movie.douban.com/people/forest9/collect
p3964
ssV1457201
p3965
(dp3966
g11
I2335
sg12
Vhttps://movie.douban.com/people/1457201/wish
p3967
sg14
I72
sg15
Vhttps://movie.douban.com/people/1457201/collect
p3968
ssVjannel1989
p3969
(dp3970
g11
I1050
sg12
Vhttps://movie.douban.com/people/jannel1989/wish
p3971
sg14
I519
sg15
Vhttps://movie.douban.com/people/jannel1989/collect
p3972
ssV3602674
p3973
(dp3974
g11
I962
sg12
Vhttps://movie.douban.com/people/3602674/wish
p3975
sg14
I316
sg15
Vhttps://movie.douban.com/people/3602674/collect
p3976
ssVqing1026
p3977
(dp3978
g11
I543
sg12
Vhttps://movie.douban.com/people/qing1026/wish
p3979
sg14
I135
sg15
Vhttps://movie.douban.com/people/qing1026/collect
p3980
ssVmaggie.wxy
p3981
(dp3982
g11
I888
sg12
Vhttps://movie.douban.com/people/maggie.wxy/wish
p3983
sg14
I135
sg15
Vhttps://movie.douban.com/people/maggie.wxy/collect
p3984
ssVwusequanwei
p3985
(dp3986
g11
I3692
sg12
Vhttps://movie.douban.com/people/wusequanwei/wish
p3987
sg14
I369
sg15
Vhttps://movie.douban.com/people/wusequanwei/collect
p3988
ssV2196059
p3989
(dp3990
g11
I673
sg12
Vhttps://movie.douban.com/people/2196059/wish
p3991
sg14
I151
sg15
Vhttps://movie.douban.com/people/2196059/collect
p3992
ssVsharmpian
p3993
(dp3994
g11
I563
sg12
Vhttps://movie.douban.com/people/sharmpian/wish
p3995
sg14
I287
sg15
Vhttps://movie.douban.com/people/sharmpian/collect
p3996
ssV44879705
p3997
(dp3998
g11
I830
sg12
Vhttps://movie.douban.com/people/44879705/wish
p3999
sg14
I56
sg15
Vhttps://movie.douban.com/people/44879705/collect
p4000
ssV4539159
p4001
(dp4002
g3
I682
sg4
Vhttps://movie.douban.com/people/4539159/wish
p4003
sg6
I240
sg7
Vhttps://movie.douban.com/people/4539159/collect
p4004
ssVwsqabc
p4005
(dp4006
g3
I1680
sg4
Vhttps://movie.douban.com/people/wsqabc/wish
p4007
sg6
I769
sg7
Vhttps://movie.douban.com/people/wsqabc/collect
p4008
ss.