(dp0
S'wish_link'
p1
Vhttps://movie.douban.com/people/jayeee000/wish
p2
sS'name'
p3
Vjayeee000
p4
sS'num_collect'
p5
I633
sS'collect_list'
p6
(lp7
(dp8
S'rating'
p9
Vrating5-t
p10
sS'link'
p11
Vhttps://movie.douban.com/subject/2131940/
p12
sg3
V\u9b54\u517d / Warcraft
p13
sS'number'
p14
V2131940
p15
sa(dp16
g9
Vcomment
p17
sg11
Vhttps://movie.douban.com/subject/10785351/
p18
sg3
V\u81f420\u5e74\u540e\u7684\u4f60 / 20\u5e74\u5f8c\u306e\u541b\u3078
p19
sg14
V10785351
p20
sa(dp21
g9
Vcomment
p22
sg11
Vhttps://movie.douban.com/subject/1889243/
p23
sg3
V\u661f\u9645\u7a7f\u8d8a / Interstellar
p24
sg14
V1889243
p25
sa(dp26
g9
Vcomment
p27
sg11
Vhttps://movie.douban.com/subject/25947297/
p28
sg3
V\u57ce\u9547\u9752\u5e74 / TOWN WORKERS
p29
sg14
V25947297
p30
sa(dp31
g9
Vcomment
p32
sg11
Vhttps://movie.douban.com/subject/24854164/
p33
sg3
V\u98ce\u4fd7\u5e97\u4e4b\u884c\u6539\u53d8\u4e86\u6211\u7684\u4eba\u751f / \u98a8\u4fd7\u884c\u3063\u305f\u3089\u4eba\u751f\u5909\u308f\u3063\u305fwww
p34
sg14
V24854164
p35
sa(dp36
g9
Vcomment
p37
sg11
Vhttps://movie.douban.com/subject/6126457/
p38
sg3
V\u6700\u540e\u7684\u665a\u9910 / \u6700\u5f8c\u306e\u6669\u9910\uff5e\u5211\u4e8b\u30fb\u9060\u91ce\u4e00\u884c\u30687\u4eba\u306e\u5bb9\u7591\u8005\uff5e
p39
sg14
V6126457
p40
sa(dp41
g9
Vrating2-t
p42
sg11
Vhttps://movie.douban.com/subject/25812396/
p43
sg3
V30\u5c81\u6d3e\u9063\u5973\u5c31\u804c\u65b9\u6cd5 / 30\u30cf\u30b1\u30f3\u5973\u304c\u5c31\u8077\u3059\u308b\u65b9\u6cd5
p44
sg14
V25812396
p45
sa(dp46
g9
Vcomment
p47
sg11
Vhttps://movie.douban.com/subject/25981050/
p48
sg3
V\u5fc3\u7406\u5b66\u5bb6\u6210\u6d77\u6714\u7684\u6311\u6218\uff1a\u5c11\u5973\u4e3a\u4f55\u5fc5\u987b\u5931\u5fc6\uff1f / \u306a\u305c\u5c11\u5973\u306f\u8a18\u61b6\u3092\u5931\u308f\u306a\u3051\u308c\u3070\u306a\u3089\u306a\u304b\u3063\u305f\u306e\u304b\uff1f\uff5e\u5fc3\u306e\u79d1\u5b66\u8005\u30fb\u6210\u6d77\u6714\u306e\u6311\u6226\uff5e
p49
sg14
V25981050
p50
sa(dp51
g9
Vcomment
p52
sg11
Vhttps://movie.douban.com/subject/1840265/
p53
sg3
V12\u4e2a\u6e29\u67d4\u7684\u65e5\u672c\u4eba / 12\u4eba\u306e\u512a\u3057\u3044\u65e5\u672c\u4eba
p54
sg14
V1840265
p55
sa(dp56
g9
Vrating3-t
p57
sg11
Vhttps://movie.douban.com/subject/25722131/
p58
sg3
V\u4eba\u72fc\u6e38\u620f / \u4eba\u72fc\u30b2\u30fc\u30e0
p59
sg14
V25722131
p60
sa(dp61
g9
Vcomment
p62
sg11
Vhttps://movie.douban.com/subject/25876698/
p63
sg3
V\u91d1\u7530\u4e00\u5c11\u5e74\u4e8b\u4ef6\u7c3fN / \u91d1\u7530\u4e00\u5c11\u5e74\u306e\u4e8b\u4ef6\u7c3fN
p64
sg14
V25876698
p65
sa(dp66
g9
Vrating2-t
p67
sg11
Vhttps://movie.douban.com/subject/3113058/
p68
sg3
V\u4eba\u751f\u4f24\u505c\u8865\u65f6 / \u30ed\u30b9\uff1a\u30bf\u30a4\u30e0\uff1a\u30e9\u30a4\u30d5
p69
sg14
V3113058
p70
sa(dp71
g9
Vcomment
p72
sg11
Vhttps://movie.douban.com/subject/25975236/
p73
sg3
V\u590f\u5b63\u7ed3\u675f\u65f6\uff0c\u6211\u604b\u7231\u4e86 / \u590f\u306e\u7d42\u308f\u308a\u306b\u3001\u604b\u3092\u3057\u305f\u3002
p74
sg14
V25975236
p75
sa(dp76
g9
Vrating2-t
p77
sg11
Vhttps://movie.douban.com/subject/26087232/
p78
sg3
V\u5e73\u6210\u821e\u796d\u7d44\u7537
p79
sg14
V26087232
p80
sa(dp81
g9
Vcomment
p82
sg11
Vhttps://movie.douban.com/subject/24749750/
p83
sg3
VI LOVE YOU
p84
sg14
V24749750
p85
sa(dp86
g9
Vcomment
p87
sg11
Vhttps://movie.douban.com/subject/20514957/
p88
sg3
V\u5bd2\u6d41 / \u677e\u672c\u6e05\u5f35\u6ca1\u5f8c20\u5e74\u30b9\u30da\u30b7\u30e3\u30eb \u5bd2\u6d41
p89
sg14
V20514957
p90
sa(dp91
g9
Vcomment
p92
sg11
Vhttps://movie.douban.com/subject/25872179/
p93
sg3
V\u6faa\u4e4b\u6599\u7406\u5e162 / \u307f\u3092\u3064\u304f\u3057\u6599\u7406\u5e16 \u30d1\u30fc\u30c82
p94
sg14
V25872179
p95
sa(dp96
g9
Vcomment
p97
sg11
Vhttps://movie.douban.com/subject/21353076/
p98
sg3
V\u7ec8\u70b9\u7ad9\u6740\u4eba\u4e8b\u4ef6 / \u897f\u6751\u4eac\u592a\u90ce\u30c8\u30e9\u30d9\u30eb\u30df\u30b9\u30c6\u30ea\u30fc59 \u7d42\u7740\u99c5\u6bba\u4eba\u4e8b\u4ef6 \u611b\u3068\u6b7b\u306e\u5bdd\u53f0\u7279\u6025\u3042\u3051\u307c\u306e \u6697\u95c7\u306b\u6d88\u3048\u305f\u5973
p99
sg14
V21353076
p100
sa(dp101
g9
Vcomment
p102
sg11
Vhttps://movie.douban.com/subject/25021427/
p103
sg3
V\u94f6\u4e4b\u5319 \u771f\u4eba\u7248 / \u9280\u306e\u5319 Silver Spoon
p104
sg14
V25021427
p105
sa(dp106
g9
Vcomment
p107
sg11
Vhttps://movie.douban.com/subject/6727305/
p108
sg3
V\u66b4\u98ce\u96ea / \u30d6\u30ea\u30b6\u30fc\u30c9
p109
sg14
V6727305
p110
sa(dp111
g9
Vcomment
p112
sg11
Vhttps://movie.douban.com/subject/2377654/
p113
sg3
V\u9e7f\u9e23\u9986 / \u9e7f\u9cf4\u9928
p114
sg14
V2377654
p115
sa(dp116
g9
Vcomment
p117
sg11
Vhttps://movie.douban.com/subject/5299175/
p118
sg3
V\u4e3a\u4ec0\u4e48\u4f60\u8981\u548c\u7edd\u671b\u6297\u4e89 \u6728\u6751\u6d0b\u76843300\u65e5 / \u306a\u305c\u541b\u306f\u7d76\u671b\u3068\u95d8\u3048\u305f\u306e\u304b
p119
sg14
V5299175
p120
sa(dp121
g9
Vcomment
p122
sg11
Vhttps://movie.douban.com/subject/3197497/
p123
sg3
V\u5c11\u5e74\u5211\u8b66 / \u30b7\u30d0\u30c8\u30e9\uff5e\u7ae5\u9854\u5211\u4e8b\u30fb\u67f4\u7530\u7af9\u864e\uff5e
p124
sg14
V3197497
p125
sa(dp126
g9
Vcomment
p127
sg11
Vhttps://movie.douban.com/subject/2084639/
p128
sg3
V\u521d\u543b / \u30d5\u30a1\u30fc\u30b9\u30c8\u30fb\u30ad\u30b9
p129
sg14
V2084639
p130
sa(dp131
g9
Vcomment
p132
sg11
Vhttps://movie.douban.com/subject/25994639/
p133
sg3
V\u91d1\u7530\u4e00\u8015\u52a9VS\u660e\u667a\u5c0f\u4e94\u90ce2 / \u91d1\u7530\u4e00\u8015\u52a9VS\u660e\u667a\u5c0f\u4e94\u90ce\u3075\u305f\u305f\u3073
p134
sg14
V25994639
p135
sa(dp136
g9
Vcomment
p137
sg11
Vhttps://movie.douban.com/subject/2173112/
p138
sg3
V\u864e\u4e0e\u9f99 / \u30bf\u30a4\u30ac\u30fc&\u30c9\u30e9\u30b4\u30f3
p139
sg14
V2173112
p140
sa(dp141
g9
Vcomment
p142
sg11
Vhttps://movie.douban.com/subject/25887306/
p143
sg3
VAgain!! / \u30a2\u30b2\u30a4\u30f3!!
p144
sg14
V25887306
p145
sa(dp146
g9
Vrating3-t
p147
sg11
Vhttps://movie.douban.com/subject/24321268/
p148
sg3
V\u9b54\u5973\u5b85\u6025\u4fbf \u771f\u4eba\u7248 / \u9b54\u5973\u306e\u5b85\u6025\u4fbf
p149
sg14
V24321268
p150
sa(dp151
g9
Vrating3-t
p152
sg11
Vhttps://movie.douban.com/subject/3017189/
p153
sg3
V\u8001\u5e08\u771f\u4f1f\u5927 / \u5148\u751f\u306f\u30a8\u30e9\u30a4\u3063\uff01
p154
sg14
V3017189
p155
sa(dp156
g9
Vrating3-t
p157
sg11
Vhttps://movie.douban.com/subject/7053688/
p158
sg3
V\u767d\u6237\u4fee\u7684\u4e8b\u4ef6\u7c3f / \u767d\u6238\u4fee\u306e\u4e8b\u4ef6\u7c3f
p159
sg14
V7053688
p160
sa(dp161
g9
Vrating2-t
p162
sg11
Vhttps://movie.douban.com/subject/6773672/
p163
sg3
V\u6765\u81ea\u6a31\u82b1\u7684\u4fe1\uff1aAKB48\u6210\u5458\u4eec\u7684\u6bd5\u4e1a\u7269\u8bed / \u685c\u304b\u3089\u306e\u624b\u7d19 \uff5eAKB48 \u305d\u308c\u305e\u308c\u306e\u5352\u696d\u7269\u8a9e\uff5e
p164
sg14
V6773672
p165
sa(dp166
g9
Vrating5-t
p167
sg11
Vhttps://movie.douban.com/subject/3892395/
p168
sg3
V\u7c89\u7ea2\u7cfb\u7537\u5b69\uff1a\u79cb / \u30aa\u30c8\u30e1\u30f3\uff08\u4e59\u7537\uff09\u301c\u79cb\u301c
p169
sg14
V3892395
p170
sa(dp171
g9
Vcomment
p172
sg11
Vhttps://movie.douban.com/subject/4067541/
p173
sg3
V\u7c89\u7ea2\u7cfb\u7537\u5b69\uff1a\u590f / \u30aa\u30c8\u30e1\u30f3\uff08\u4e59\u7537\uff09\u301c\u590f\u301c
p174
sg14
V4067541
p175
sa(dp176
g9
Vcomment
p177
sg11
Vhttps://movie.douban.com/subject/2272208/
p178
sg3
V\u4e16\u754c\u5947\u5999\u7269\u8bed 2007\u79cb\u4e4b\u7279\u522b\u7bc7 / \u4e16\u306b\u3082\u5947\u5999\u306a\u7269\u8a9e 2007\u79cb\u306e\u7279\u5225\u7de8
p179
sg14
V2272208
p180
sa(dp181
g9
Vrating3-t
p182
sg11
Vhttps://movie.douban.com/subject/3609025/
p183
sg3
V\u4e16\u754c\u5947\u5999\u7269\u8bed 2009\u6625\u4e4b\u7279\u522b\u7bc7 / \u4e16\u306b\u3082\u5947\u5999\u306a\u7269\u8a9e \u8c6a\u83ef\u30ad\u30e3\u30b9\u30c8\u3067\u8d08\u308b 09\u6625\u306e\u7279\u5225\u7de8
p184
sg14
V3609025
p185
sa(dp186
g9
Vcomment
p187
sg11
Vhttps://movie.douban.com/subject/25897282/
p188
sg3
V\u96f6\u4e4b\u771f\u5b9e\uff1a\u76d1\u5bdf\u533b\u677e\u672c\u771f\u592e / \u30bc\u30ed\u306e\u771f\u5b9f\uff5e\u76e3\u5bdf\u533b\u30fb\u677e\u672c\u771f\u592e\uff5e
p189
sg14
V25897282
p190
sa(dp191
g9
Vrating2-t
p192
sg11
Vhttps://movie.douban.com/subject/1964728/
p193
sg3
V\u7ef7\u5e26\u4ff1\u4e50\u90e8 / \u5305\u5e2f\u30af\u30e9\u30d6
p194
sg14
V1964728
p195
sa(dp196
g9
Vrating1-t
p197
sg11
Vhttps://movie.douban.com/subject/1304626/
p198
sg3
V\u5e7f\u64ad\u65f6\u95f4 / \u30e9\u30c2\u30aa\u306e\u6642\u9593
p199
sg14
V1304626
p200
sa(dp201
g9
Vcomment
p202
sg11
Vhttps://movie.douban.com/subject/1428055/
p203
sg3
V\u7f6a\u6076\u4e4b\u57ce2 / Sin City: A Dame to Kill For
p204
sg14
V1428055
p205
sa(dp206
g9
Vcomment
p207
sg11
Vhttps://movie.douban.com/subject/4129608/
p208
sg3
V\u91d1\u7530\u4e00\u5c11\u5e74\u4e8b\u4ef6\u7c3f 018  \u98db\u9a28\u304b\u3089\u304f\u308a\u5c4b\u6577\u6bba\u4eba\u4e8b\u4ef6 1
p209
sg14
V4129608
p210
sa(dp211
g9
Vcomment
p212
sg11
Vhttps://movie.douban.com/subject/21339392/
p213
sg3
V\u4e09\u5206\u4e4b\u4e00 / \u30b5\u30f3\u30d6\u30f3\u30ce\u30a4\u30c1
p214
sg14
V21339392
p215
sa(dp216
g9
Vcomment
p217
sg11
Vhttps://movie.douban.com/subject/21359391/
p218
sg3
V\u604b\u4e4b\u6da1 / \u604b\u306e\u6e26
p219
sg14
V21359391
p220
sa(dp221
g9
Vcomment
p222
sg11
Vhttps://movie.douban.com/subject/4832288/
p223
sg3
V\u5947\u8ff9 / \u5947\u8de1
p224
sg14
V4832288
p225
sa(dp226
g9
Vcomment
p227
sg11
Vhttps://movie.douban.com/subject/5318667/
p228
sg3
V\u4e1c\u91ce\u572d\u543eSP \u4fa6\u63a2\u4ff1\u4e50\u90e8 / \u6771\u91ce\u572d\u543e\u30c9\u30e9\u30de\u30b9\u30da\u30b7\u30e3\u30eb \u63a2\u5075\u5036\u697d\u90e8
p229
sg14
V5318667
p230
sa(dp231
g9
Vcomment
p232
sg11
Vhttps://movie.douban.com/subject/5295610/
p233
sg3
V\u7b2c\u516b\u65e5\u7684\u8749 / \u516b\u65e5\u76ee\u306e\u87ec
p234
sg14
V5295610
p235
sa(dp236
g9
Vcomment
p237
sg11
Vhttps://movie.douban.com/subject/20393785/
p238
sg3
VLove Swing~\u8bb8\u591a\u7231\u7684\u5f62\u5f0f\uff5e / \u30e9\u30d6\u30fb\u30b9\u30a6\u30a3\u30f3\u30b0\uff5e\u8272\u3005\u306a\u611b\u306e\u304b\u305f\u3061\uff5e
p239
sg14
V20393785
p240
sa(dp241
g9
Vcomment
p242
sg11
Vhttps://movie.douban.com/subject/10461726/
p243
sg3
V\u5f97\u4e70\u65b0\u978b\u4e86 / \u65b0\u3057\u3044\u9774\u3092\u8cb7\u308f\u306a\u304f\u3061\u3083
p244
sg14
V10461726
p245
sa(dp246
g9
Vcomment
p247
sg11
Vhttps://movie.douban.com/subject/20470375/
p248
sg3
V\u5ec9\u4ef7\u822a\u73ed / \u30c1\u30fc\u30d7\u30fb\u30d5\u30e9\u30a4\u30c8
p249
sg14
V20470375
p250
sa(dp251
g9
Vcomment
p252
sg11
Vhttps://movie.douban.com/subject/25880994/
p253
sg3
V\u6700\u540e\u7684\u5bb6 / \u7d42\u306e\u68f2\u5bb6
p254
sg14
V25880994
p255
sa(dp256
g9
Vcomment
p257
sg11
Vhttps://movie.douban.com/subject/3740017/
p258
sg3
V\u540d\u4fa6\u63a2\u7684\u5b88\u5219 / \u540d\u63a2\u5075\u306e\u639f
p259
sg14
V3740017
p260
sa(dp261
g9
Vcomment
p262
sg11
Vhttps://movie.douban.com/subject/2270417/
p263
sg3
V\u6709\u95f2\u4ff1\u4e50\u90e8 / \u6709\u9591\u5036\u697d\u90e8
p264
sg14
V2270417
p265
sa(dp266
g9
Vcomment
p267
sg11
Vhttps://movie.douban.com/subject/4320237/
p268
sg3
V\u4e16\u754c\u5947\u5999\u7269\u8a9e 2010\u5e74\u6625\u4e4b\u7279\u5225\u7bc7 / \u4e16\u306b\u3082\u5947\u5999\u306a\u7269\u8a9e 20\u5468\u5e74\u30b9\u30da\u30b7\u30e3\u30eb\u30fb\u6625 \u301c\u4eba\u6c17\u756a\u7d44\u7af6\u6f14\u7de8\u301c
p269
sg14
V4320237
p270
sa(dp271
g9
Vcomment
p272
sg11
Vhttps://movie.douban.com/subject/6396709/
p273
sg3
V\u4e16\u754c\u5947\u5999\u7269\u8bed 21\u4e16\u7eaa\u7b2c21\u5e74\u7684\u7279\u522b\u7bc7 / \u4e16\u306b\u3082\u5947\u5999\u306a\u7269\u8a9e21\u4e16\u7d0021\u5e74\u76ee\u306e\u7279\u5225\u7de8
p274
sg14
V6396709
p275
sa(dp276
g9
Vcomment
p277
sg11
Vhttps://movie.douban.com/subject/5244057/
p278
sg3
V\u5728\u68ee\u5d0e\u4e66\u5e97\u7684\u65e5\u5b50 / \u68ee\u5d0e\u66f8\u5e97\u306e\u65e5\u3005
p279
sg14
V5244057
p280
sa(dp281
g9
Vcomment
p282
sg11
Vhttps://movie.douban.com/subject/22299426/
p283
sg3
V\u4e8c\u91cd\u8eab / \u30d0\u30a4\u30ed\u30b1\u30fc\u30b7\u30e7\u30f3
p284
sg14
V22299426
p285
sa(dp286
g9
Vcomment
p287
sg11
Vhttps://movie.douban.com/subject/24875659/
p288
sg3
V\u897f\u91ce\u7684\u604b\u7231\u4e0e\u5192\u9669 / \u30cb\u30b7\u30ce\u30e6\u30ad\u30d2\u30b3\u306e\u604b\u3068\u5192\u967a
p289
sg14
V24875659
p290
sa(dp291
g9
Vcomment
p292
sg11
Vhttps://movie.douban.com/subject/6424130/
p293
sg3
V\u4e0a\u73ed\u65cfNEO \u5267\u573a\u7248(\u7b11) / \u30b5\u30e9\u30ea\u30fc\u30de\u30f3NEO \u5287\u5834\u7248(\u7b11)
p294
sg14
V6424130
p295
sa(dp296
g9
Vcomment
p297
sg11
Vhttps://movie.douban.com/subject/21335021/
p298
sg3
V\u60f3\u8981\u62e5\u62b1\u4f60 / \u62b1\u304d\u3057\u3081\u305f\u3044 -\u771f\u5b9f\u306e\u7269\u8a9e-
p299
sg14
V21335021
p300
sa(dp301
g9
Vcomment
p302
sg11
Vhttps://movie.douban.com/subject/24772957/
p303
sg3
V\u4e00\u5207\u4ece\u9047\u89c1\u4f60\u5f00\u59cb / \u3059\u3079\u3066\u306f\u541b\u306b\u9022\u3048\u305f\u304b\u3089
p304
sg14
V24772957
p305
sa(dp306
g9
Vcomment
p307
sg11
Vhttps://movie.douban.com/subject/2036980/
p308
sg3
V\u604b\u7231\u5c0f\u8bf4 / \u604b\u611b\u5c0f\u8aac
p309
sg14
V2036980
p310
sa(dp311
g9
Vcomment
p312
sg11
Vhttps://movie.douban.com/subject/25890740/
p313
sg3
V\u5fc5\u6740\u4ed5\u4e8b\u4eba2014 / \u5fc5\u6bba\u4ed5\u4e8b\u4eba2014
p314
sg14
V25890740
p315
sa(dp316
g9
Vcomment
p317
sg11
Vhttps://movie.douban.com/subject/3506305/
p318
sg3
V\u7f8e\u5c11\u5973\u6218\u58eb\u771f\u4eba\u7248 / \u7f8e\u5c11\u5973\u6226\u58eb\u30bb\u30fc\u30e9\u30fc\u30e0\u30fc\u30f3 \u5b9f\u5199\u7248
p319
sg14
V3506305
p320
sa(dp321
g9
Vrating1-t
p322
sg11
Vhttps://movie.douban.com/subject/1401520/
p323
sg3
V\u629b\u6389\u4e66\u672c\u4e0a\u8857\u53bb / \u66f8\u3092\u6368\u3066\u3088\u753a\u3078\u51fa\u3088\u3046
p324
sg14
V1401520
p325
sa(dp326
g9
Vcomment
p327
sg11
Vhttps://movie.douban.com/subject/1292337/
p328
sg3
V\u65e0\u4eba\u77e5\u6653 / \u8ab0\u3082\u77e5\u3089\u306a\u3044
p329
sg14
V1292337
p330
sa(dp331
g9
Vcomment
p332
sg11
Vhttps://movie.douban.com/subject/25884574/
p333
sg3
VST \u7ea2\u767d\u641c\u67e5\u6863\u6848 / ST \u8d64\u3068\u767d\u306e\u635c\u67fb\u30d5\u30a1\u30a4\u30eb
p334
sg14
V25884574
p335
sa(dp336
g9
Vcomment
p337
sg11
Vhttps://movie.douban.com/subject/2310073/
p338
sg3
V\u6a31\u6843\u6d3e / cherry pie \u30c1\u30a7\u30ea\u30fc\u30d1\u30a4
p339
sg14
V2310073
p340
sa(dp341
g9
Vcomment
p342
sg11
Vhttps://movie.douban.com/subject/11604065/
p343
sg3
V100\u6b21\u54ed\u6ce3 / 100\u56de\u6ce3\u304f\u3053\u3068
p344
sg14
V11604065
p345
sa(dp346
g9
Vcomment
p347
sg11
Vhttps://movie.douban.com/subject/2279871/
p348
sg3
V\u4e16\u754c\u5947\u5999\u7269\u8bed 15\u5468\u5e74\u7279\u522b\u7bc7 / \u4e16\u306b\u3082\u5947\u5999\u306a\u7269\u8a9e 15\u5468\u5e74\u306e\u7279\u5225\u7de8
p349
sg14
V2279871
p350
sa(dp351
g9
Vcomment
p352
sg11
Vhttps://movie.douban.com/subject/2272257/
p353
sg3
V\u4e16\u754c\u5947\u5999\u7269\u8bed 2007\u6625\u4e4b\u7279\u522b\u7bc7 / \u4e16\u306b\u3082\u5947\u5999\u306a\u7269\u8a9e 2007\u6625\u306e\u7279\u5225\u7de8
p354
sg14
V2272257
p355
sa(dp356
g9
Vcomment
p357
sg11
Vhttps://movie.douban.com/subject/10573499/
p358
sg3
V\u4e16\u754c\u5947\u5999\u7269\u8bed 2012\u5e74\u6625\u4e4b\u7279\u5225\u7bc7 / \u4e16\u306b\u3082\u5947\u5999\u306a\u7269\u8a9e 2012\u6625\u306e\u7279\u5225\u7de8
p359
sg14
V10573499
p360
sa(dp361
g9
Vcomment
p362
sg11
Vhttps://movie.douban.com/subject/25804453/
p363
sg3
V\u5927\u5ddd\u7aef\u4fa6\u63a2\u793e / \u30ea\u30d0\u30fc\u30b9\u30a8\u30c3\u30b8 \u5927\u5ddd\u7aef\u63a2\u5075\u793e
p364
sg14
V25804453
p365
sa(dp366
g9
Vcomment
p367
sg11
Vhttps://movie.douban.com/subject/4127320/
p368
sg3
V\u91d1\u7530\u4e00\u5c11\u5e74\u4e8b\u4ef6\u7c3f 012  \u602a\u76d7\u7d33\u58eb\u306e\u6bba\u4eba3
p369
sg14
V4127320
p370
sa(dp371
g9
Vcomment
p372
sg11
Vhttps://movie.douban.com/subject/10744783/
p373
sg3
V\u6211\u4eec\u7684\u4ea4\u6362\u65e5\u8bb0 / \u30dc\u30af\u305f\u3061\u306e\u4ea4\u63db\u65e5\u8a18
p374
sg14
V10744783
p375
sa(dp376
g9
Vcomment
p377
sg11
Vhttps://movie.douban.com/subject/4124522/
p378
sg3
V\u91d1\u7530\u4e00\u5c11\u5e74\u4e8b\u4ef6\u7c3f 009  \u874b\u4eba\u5f62\u57ce\u6bba\u4eba\u4e8b\u4ef6 3
p379
sg14
V4124522
p380
sa(dp381
g9
Vcomment
p382
sg11
Vhttps://movie.douban.com/subject/4124426/
p383
sg3
V\u91d1\u7530\u4e00\u5c11\u5e74\u4e8b\u4ef6\u7c3f 006  \u60b2\u604b\u6e56\u4f1d\u8aac\u6bba\u4eba\u4e8b\u4ef6 3
p384
sg14
V4124426
p385
sa(dp386
g9
Vcomment
p387
sg11
Vhttps://movie.douban.com/subject/4123819/
p388
sg3
V\u91d1\u7530\u4e00\u5c11\u5e74\u4e8b\u4ef6\u7c3f 003 \u5b66\u5712\u4e03\u4e0d\u601d\u8b70\u6bba\u4eba\u4e8b\u4ef63
p389
sg14
V4123819
p390
sa(dp391
g9
Vcomment
p392
sg11
Vhttps://movie.douban.com/subject/3143531/
p393
sg3
V\u91d1\u7530\u4e00\u8015\u52a9\u4e4b\u72f1\u95e8\u5c9b / \u6a2a\u6e9d\u6b63\u53f2\u30df\u30b9\u30c6\u30ea\u30fc\u3000\u91d1\u7530\u4e00\u8015\u52a9\u30d5\u30a1\u30a4\u30ebII\u3000\u7344\u9580\u5cf6
p394
sg14
V3143531
p395
sa(dp396
g9
Vcomment
p397
sg11
Vhttps://movie.douban.com/subject/10455660/
p398
sg3
V\u7231\u60c5\u8fd9\u4e48\u5962\u4f88\u7684\u4e1c\u897f\u4f1a\u964d\u4e34\u5230\u6211\u8eab\u4e0a\u5417\uff1f / \u604b\u306a\u3093\u3066\u8d05\u6ca2\u304c\u79c1\u306b\u843d\u3061\u3066\u304f\u308b\u306e\u3060\u308d\u3046\u304b\uff1f
p399
sg14
V10455660
p400
sa(dp401
g9
Vcomment
p402
sg11
Vhttps://movie.douban.com/subject/25704588/
p403
sg3
V\u4e0d\u6c42\u4e0a\u8fdb\u7684\u7389\u5b50 / \u3082\u3089\u3068\u308a\u3042\u3080\u30bf\u30de\u5b50
p404
sg14
V25704588
p405
sa(dp406
g9
Vcomment
p407
sg11
Vhttps://movie.douban.com/subject/1292329/
p408
sg3
V\u726f\u5cad\u8857\u5c11\u5e74\u6740\u4eba\u4e8b\u4ef6 / \u726f\u5dba\u8857\u5c11\u5e74\u6bba\u4eba\u4e8b\u4ef6
p409
sg14
V1292329
p410
sa(dp411
g9
Vcomment
p412
sg11
Vhttps://movie.douban.com/subject/25823110/
p413
sg3
VBORDER
p414
sg14
V25823110
p415
sa(dp416
g9
Vcomment
p417
sg11
Vhttps://movie.douban.com/subject/25858737/
p418
sg3
V\u9a6c\u8d5b\u514b\u65e5\u672c / \u30e2\u30b6\u30a4\u30af\u30b8\u30e3\u30d1\u30f3
p419
sg14
V25858737
p420
sa(dp421
g9
Vcomment
p422
sg11
Vhttps://movie.douban.com/subject/24844958/
p423
sg3
V\u5708\u5957\u5267\u573a\u72484\uff1a\u6700\u540e\u7684\u821e\u53f0 / \u30c8\u30ea\u30c3\u30af\u5287\u5834\u7248 \u30e9\u30b9\u30c8\u30b9\u30c6\u30fc\u30b8
p424
sg14
V24844958
p425
sa(dp426
g9
Vcomment
p427
sg11
Vhttps://movie.douban.com/subject/1979076/
p428
sg3
V\u4e0d\u8981\u5632\u7b11\u6211\u4eec\u7684\u6027 / \u4eba\u306e\u30bb\u30c3\u30af\u30b9\u3092\u7b11\u3046\u306a
p429
sg14
V1979076
p430
sa(dp431
g9
Vcomment
p432
sg11
Vhttps://movie.douban.com/subject/2037012/
p433
sg3
V\u9769\u547d\u4e4b\u8def / Revolutionary Road
p434
sg14
V2037012
p435
sa(dp436
g9
Vcomment
p437
sg11
Vhttps://movie.douban.com/subject/22736358/
p438
sg3
VSPEC\uff1a\u7ed3 \u540e\u7bc7 / \u5287\u5834\u7248 SPEC\uff5e\u7d50\uff5e \u723b\u306e\u7bc7
p439
sg14
V22736358
p440
sa(dp441
g9
Vrating4-t
p442
sg11
Vhttps://movie.douban.com/subject/1817197/
p443
sg3
V\u6211\u7231\u82b3\u90bb / \u30e9\u30d5
p444
sg14
V1817197
p445
sa(dp446
g9
Vrating4-t
p447
sg11
Vhttps://movie.douban.com/subject/24321138/
p448
sg3
V\u4e16\u754c\u5947\u5999\u7269\u8bed 2013\u5e74\u6625\u4e4b\u7279\u522b\u7bc7 / \u4e16\u306b\u3082\u5947\u5999\u306a\u7269\u8a9e '13 \u6625\u306e\u7279\u5225\u7de8
p449
sg14
V24321138
p450
sa(dp451
g9
Vcomment
p452
sg11
Vhttps://movie.douban.com/subject/1418085/
p453
sg3
V\u673a\u5668\u4eba\u7ade\u8d5b / \u30ed\u30dc\u30b3\u30f3
p454
sg14
V1418085
p455
sa(dp456
g9
Vcomment
p457
sg11
Vhttps://movie.douban.com/subject/25819692/
p458
sg3
V\u661f\u65b0\u4e00\u63a8\u7406SP / \u661f\u65b0\u4e00\u30df\u30b9\u30c6\u30ea\u30fcSP
p459
sg14
V25819692
p460
sa(dp461
g9
Vcomment
p462
sg11
Vhttps://movie.douban.com/subject/3188042/
p463
sg3
V\u53d8\u8eab\u897f\u88c5 / \u30cf\u30f3\u30b5\u30e0\u2605\u30b9\u30fc\u30c4
p464
sg14
V3188042
p465
sa(dp466
g9
Vcomment
p467
sg11
Vhttps://movie.douban.com/subject/7054604/
p468
sg3
V\u53d8\u5f62\u91d1\u521a4\uff1a\u7edd\u8ff9\u91cd\u751f / Transformers: Age of Extinction
p469
sg14
V7054604
p470
sa(dp471
g9
Vcomment
p472
sg11
Vhttps://movie.douban.com/subject/1915331/
p473
sg3
V\u602a\u8c08 / \u602a\u8ac7
p474
sg14
V1915331
p475
sa(dp476
g9
Vcomment
p477
sg11
Vhttps://movie.douban.com/subject/10521712/
p478
sg3
V\u5979\u7231\u4e0a\u4e86\u6211\u7684\u8c0e / \u30ab\u30ce\u30b8\u30e7\u306f\u5618\u3092\u611b\u3057\u3059\u304e\u3066\u308b
p479
sg14
V10521712
p480
sa(dp481
g9
Vcomment
p482
sg11
Vhttps://movie.douban.com/subject/25758979/
p483
sg3
V\u9752\u6625\u76db\u5bb4
p484
sg14
V25758979
p485
sa(dp486
g9
Vcomment
p487
sg11
Vhttps://movie.douban.com/subject/24845114/
p488
sg3
V\u82b1\u4e4b\u9501 / \u82b1\u306e\u9396
p489
sg14
V24845114
p490
sa(dp491
g9
Vcomment
p492
sg11
Vhttps://movie.douban.com/subject/20426995/
p493
sg3
V\u5411\u9633\u5904\u7684\u5979 / \u967d\u3060\u307e\u308a\u306e\u5f7c\u5973
p494
sg14
V20426995
p495
sa(dp496
g9
Vcomment
p497
sg11
Vhttps://movie.douban.com/subject/24532099/
p498
sg3
V\u7a88\u7a95\u821e\u5993 / \u821e\u5993\u306f\u30ec\u30c7\u30a3
p499
sg14
V24532099
p500
sa(dp501
g9
Vcomment
p502
sg11
Vhttps://movie.douban.com/subject/10484041/
p503
sg3
V\u6a2a\u9053\u4e16\u4e4b\u4ecb
p504
sg14
V10484041
p505
sa(dp506
g9
Vcomment
p507
sg11
Vhttps://movie.douban.com/subject/19975104/
p508
sg3
VSPEC\uff1a\u7ed3 \u524d\u7bc7 / \u5287\u5834\u7248 SPEC\uff5e\u7d50\uff5e\u6f38\u30ce\u7bc7
p509
sg14
V19975104
p510
sa(dp511
g9
Vcomment
p512
sg11
Vhttps://movie.douban.com/subject/24852462/
p513
sg3
V\u83dc\u9e1f\u8bc4\u5ba1\u5458 / \u30b8\u30e3\u30c3\u30b8\uff01
p514
sg14
V24852462
p515
sa(dp516
g9
Vcomment
p517
sg11
Vhttps://movie.douban.com/subject/10571509/
p518
sg3
V\u5982\u7236\u5982\u5b50 / \u305d\u3057\u3066\u7236\u306b\u306a\u308b
p519
sg14
V10571509
p520
sa(dp521
g9
Vcomment
p522
sg11
Vhttps://movie.douban.com/subject/20390013/
p523
sg3
V\u7eaf\u51c0\u8106\u5f31\u7684\u5fc3 / \u6f54\u304f\u67d4\u304f
p524
sg14
V20390013
p525
sa(dp526
g9
Vcomment
p527
sg11
Vhttps://movie.douban.com/subject/11500954/
p528
sg3
V\u7f16\u821f\u8bb0 / \u821f\u3092\u7de8\u3080
p529
sg14
V11500954
p530
sa(dp531
g9
Vcomment
p532
sg11
Vhttps://movie.douban.com/subject/6428088/
p533
sg3
V\u592a\u79e6\u706f\u5149\u4e0b / \u592a\u79e6\u30e9\u30a4\u30e0\u30e9\u30a4\u30c8
p534
sg14
V6428088
p535
sa(dp536
g9
Vcomment
p537
sg11
Vhttps://movie.douban.com/subject/24858414/
p538
sg3
V\u767d\u96ea\u516c\u4e3b\u6740\u4eba\u4e8b\u4ef6 / \u767d\u3086\u304d\u59eb\u6bba\u4eba\u4e8b\u4ef6
p539
sg14
V24858414
p540
sa(dp541
g9
Vcomment
p542
sg11
Vhttps://movie.douban.com/subject/4206357/
p543
sg3
V\u9f99\u7eb9\u8eab\u7684\u5973\u5b69 / The Girl with the Dragon Tattoo
p544
sg14
V4206357
p545
sa(dp546
g9
Vcomment
p547
sg11
Vhttps://movie.douban.com/subject/25747032/
p548
sg3
V\u7956\u8c37\u7269\u8bed / \u7956\u8c37\u7269\u8a9e \uff0d\u304a\u304f\u306e\u3072\u3068\uff0d
p549
sg14
V25747032
p550
sa(dp551
g9
Vcomment
p552
sg11
Vhttps://movie.douban.com/subject/24754207/
p553
sg3
V\u5bb6\u8def
p554
sg14
V24754207
p555
sa(dp556
g9
Vcomment
p557
sg11
Vhttps://movie.douban.com/subject/1796085/
p558
sg3
V\u590f\u65e5\u7684\u51b2\u7ef3 / \u30c1\u30a7\u30b1\u30e9\u30c3\u30c1\u30e7!!
p559
sg14
V1796085
p560
sa(dp561
g9
Vcomment
p562
sg11
Vhttps://movie.douban.com/subject/4034047/
p563
sg3
V\u4e16\u754c\u5947\u5999\u7269\u8bed 2009\u79cb\u4e4b\u7279\u522b\u7bc7 / \u4e16\u306b\u3082\u5947\u5999\u306a\u7269\u8a9e 09\u79cb\u306e\u7279\u5225\u7de8
p564
sg14
V4034047
p565
sa(dp566
g9
Vcomment
p567
sg11
Vhttps://movie.douban.com/subject/19961072/
p568
sg3
V\u76db\u590f\u7684\u65b9\u7a0b\u5f0f / \u771f\u590f\u306e\u65b9\u7a0b\u5f0f
p569
sg14
V19961072
p570
sa(dp571
g9
Vcomment
p572
sg11
Vhttps://movie.douban.com/subject/2991782/
p573
sg3
V\u6b4c\u9b42 / \u3046\u305f\u9b42\uff01
p574
sg14
V2991782
p575
sa(dp576
g9
Vcomment
p577
sg11
Vhttps://movie.douban.com/subject/1307755/
p578
sg3
V\u604b\u7231\u5199\u771f / \u604b\u611b\u5beb\u771e
p579
sg14
V1307755
p580
sa(dp581
g9
Vrating2-t
p582
sg11
Vhttps://movie.douban.com/subject/10771218/
p583
sg3
V\u604b\u7231\u5b63\u8282 / \u6200\u611b\u5b63\u7bc0
p584
sg14
V10771218
p585
sa(dp586
g9
Vcomment
p587
sg11
Vhttps://movie.douban.com/subject/24858993/
p588
sg3
V\u4e8b\u4ef6\u6551\u547d\u533b\uff5eIMAT\u306e\u5947\u8de1\uff5e
p589
sg14
V24858993
p590
sa(dp591
g9
Vcomment
p592
sg11
Vhttps://movie.douban.com/subject/6517421/
p593
sg3
V\u60ca\u5929\u9b54\u76d7\u56e2 / Now You See Me
p594
sg14
V6517421
p595
sa(dp596
g9
Vrating2-t
p597
sg11
Vhttps://movie.douban.com/subject/6999258/
p598
sg3
V\u4eca\u5929\u5f00\u59cb\u604b\u7231\u5427 / \u4eca\u65e5\u3001\u604b\u3092\u306f\u3058\u3081\u307e\u3059
p599
sg14
V6999258
p600
sa(dp601
g9
Vcomment
p602
sg11
Vhttps://movie.douban.com/subject/3821067/
p603
sg3
V\u4e00\u4ee3\u5b97\u5e08 / \u4e00\u4ee3\u5b97\u5e2b
p604
sg14
V3821067
p605
sa(dp606
g9
Vcomment
p607
sg11
Vhttps://movie.douban.com/subject/24736793/
p608
sg3
V\u5ba4\u53cb / \u30eb\u30fc\u30e0\u30e1\u30a4\u30c8
p609
sg14
V24736793
p610
sa(dp611
g9
Vcomment
p612
sg11
Vhttps://movie.douban.com/subject/20423034/
p613
sg3
V\u6c99\u5e0c / \u30b5\u30ad
p614
sg14
V20423034
p615
sa(dp616
g9
Vcomment
p617
sg11
Vhttps://movie.douban.com/subject/1890157/
p618
sg3
V\u76f8\u601d\u6210\u707e / Love and Other Disasters
p619
sg14
V1890157
p620
sa(dp621
g9
Vcomment
p622
sg11
Vhttps://movie.douban.com/subject/6890730/
p623
sg3
V\u5bd2\u6218 / \u5bd2\u6230
p624
sg14
V6890730
p625
sa(dp626
g9
Vcomment
p627
sg11
Vhttps://movie.douban.com/subject/2033317/
p628
sg3
V\u7f8e\u5973\u6216\u91ce\u517d / \u7f8e\u5973\u304b\u91ce\u7363
p629
sg14
V2033317
p630
sa(dp631
g9
Vrating1-t
p632
sg11
Vhttps://movie.douban.com/subject/22293087/
p633
sg3
V\u4eba\u7c7b\u8d44\u91d1 / \u4eba\u985e\u8cc7\u91d1
p634
sg14
V22293087
p635
sa(dp636
g9
Vcomment
p637
sg11
Vhttps://movie.douban.com/subject/3231742/
p638
sg3
V\u94a2\u94c1\u4fa03 / Iron Man 3
p639
sg14
V3231742
p640
sa(dp641
g9
Vrating1-t
p642
sg11
Vhttps://movie.douban.com/subject/24751754/
p643
sg3
V\u524d\u4efb\u653b\u7565
p644
sg14
V24751754
p645
sa(dp646
g9
Vcomment
p647
sg11
Vhttps://movie.douban.com/subject/6390823/
p648
sg3
V\u7f8e\u56fd\u961f\u957f2 / Captain America: The Winter Soldier
p649
sg14
V6390823
p650
sa(dp651
g9
Vcomment
p652
sg11
Vhttps://movie.douban.com/subject/10558406/
p653
sg3
V\u53e4\u7551\u4efb\u4e09\u90ce \u6700\u540e\u4e4b\u821e / \u53e4\u7551\u4efb\u4e09\u90ce\u30d5\u30a1\u30a4\u30ca\u30eb \u30e9\u30b9\u30c8\u30fb\u30c0\u30f3\u30b9
p654
sg14
V10558406
p655
sa(dp656
g9
Vcomment
p657
sg11
Vhttps://movie.douban.com/subject/4151286/
p658
sg3
V\u5708\u5957\u5267\u573a\u72483\uff1a\u7075\u5f02\u8005\u5927\u6df7\u6218 / \u5287\u5834\u7248TRICK \u970a\u80fd\u529b\u8005\u30d0\u30c8\u30eb\u30ed\u30a4\u30e4\u30eb
p659
sg14
V4151286
p660
sa(dp661
g9
Vcomment
p662
sg11
Vhttps://movie.douban.com/subject/4709563/
p663
sg3
V\u5708\u59572010\u7279\u522b\u7bc7 / TRICK2010 \u65b0\u4f5c\u30b9\u30da\u30b7\u30e3\u30eb2
p664
sg14
V4709563
p665
sa(dp666
g9
Vcomment
p667
sg11
Vhttps://movie.douban.com/subject/25825361/
p668
sg3
V\u9633\u5149\u7167\u8000\u7684\u672a\u6765SP / \u3044\u3064\u304b\u967d\u306e\u3042\u305f\u308b\u5834\u6240\u3067 \u30b9\u30da\u30b7\u30e3\u30eb
p669
sg14
V25825361
p670
sa(dp671
g9
Vcomment
p672
sg11
Vhttps://movie.douban.com/subject/2330733/
p673
sg3
V\u4e1c\u4eac\u5c11\u5973 / \u6771\u4eac\u5c11\u5973
p674
sg14
V2330733
p675
sa(dp676
g9
Vcomment
p677
sg11
Vhttps://movie.douban.com/subject/20513059/
p678
sg3
V\u88ab\u5077\u8d70\u7684\u90a3\u4e94\u5e74
p679
sg14
V20513059
p680
sa(dp681
g9
Vcomment
p682
sg11
Vhttps://movie.douban.com/subject/19943993/
p683
sg3
V\u5b85\u7537\u4e4b\u604b / \u7bb1\u5165\u308a\u606f\u5b50\u306e\u604b
p684
sg14
V19943993
p685
sa(dp686
g9
Vcomment
p687
sg11
Vhttps://movie.douban.com/subject/1900165/
p688
sg3
V\u5708\u5957\u5267\u573a\u72482 / Trick\u5287\u5834\u72482
p689
sg14
V1900165
p690
sa(dp691
g9
Vcomment
p692
sg11
Vhttps://movie.douban.com/subject/2892616/
p693
sg3
V\u5708\u5957\u7279\u522b\u7bc71~\u9884\u77e5\u6b7b\u4ea1\u4e4b\u65e5\u7684\u5973\u5360\u535c\u5e08 / TRICK\u65b0\u4f5c\u30b9\u30da\u30b7\u30e3\u30eb
p694
sg14
V2892616
p695
sa(dp696
g9
Vcomment
p697
sg11
Vhttps://movie.douban.com/subject/2209022/
p698
sg3
V\u5708\u5957\u5267\u573a\u72481 / \u30c8\u30ea\u30c3\u30af \u5287\u5834\u7248
p699
sg14
V2209022
p700
sa(dp701
g9
Vcomment
p702
sg11
Vhttps://movie.douban.com/subject/1465689/
p703
sg3
V\u5708\u59573 / \u30c8\u30ea\u30c3\u30af3
p704
sg14
V1465689
p705
sa(dp706
g9
Vcomment
p707
sg11
Vhttps://movie.douban.com/subject/25760591/
p708
sg3
V\u5931\u604b\u5de7\u514b\u529b\u804c\u4eba / \u5931\u604b\u30b7\u30e7\u30b3\u30e9\u30c6\u30a3\u30a8
p709
sg14
V25760591
p710
sa(dp711
g9
Vcomment
p712
sg11
Vhttps://movie.douban.com/subject/25723209/
p713
sg3
VS-\u6700\u540e\u7684\u8b66\u5b98 / S-\u6700\u5f8c\u306e\u8b66\u5b98-
p714
sg14
V25723209
p715
sa(dp716
g9
Vcomment
p717
sg11
Vhttps://movie.douban.com/subject/24695275/
p718
sg3
V\u5ba1\u5224 \u771f\u4eba\u7248 / JUDGE
p719
sg14
V24695275
p720
sa(dp721
g9
Vcomment
p722
sg11
Vhttps://movie.douban.com/subject/25764438/
p723
sg3
V\u6211\u8ba8\u538c\u7684\u4fa6\u63a2 / \u79c1\u306e\u5acc\u3044\u306a\u63a2\u5075
p724
sg14
V25764438
p725
sa(dp726
g9
Vcomment
p727
sg11
Vhttps://movie.douban.com/subject/6402151/
p728
sg3
V\u52c7\u8005\u4e49\u5f66\u4e0e\u9b54\u738b\u57ce / \u52c7\u8005\u30e8\u30b7\u30d2\u30b3\u3068\u9b54\u738b\u306e\u57ce
p729
sg14
V6402151
p730
sa(dp731
g9
Vcomment
p732
sg11
Vhttps://movie.douban.com/subject/25750179/
p733
sg3
V\u6c89\u7761\u7684\u68ee\u6797 / \u7720\u308a\u306e\u68ee
p734
sg14
V25750179
p735
sa(dp736
g9
Vcomment
p737
sg11
Vhttps://movie.douban.com/subject/24719090/
p738
sg3
VSUMMER NUDE
p739
sg14
V24719090
p740
sa(dp741
g9
Vcomment
p742
sg11
Vhttps://movie.douban.com/subject/25723905/
p743
sg3
V\u91d1\u7530\u4e00\u5c11\u5e74\u4e8b\u4ef6\u7c3f \u72f1\u95e8\u587e\u6740\u4eba\u4e8b\u4ef6 / \u91d1\u7530\u4e00\u5c11\u5e74\u306e\u4e8b\u4ef6\u7c3f \u7344\u9580\u587e\u6bba\u4eba\u4e8b\u4ef6
p744
sg14
V25723905
p745
sa(dp746
g9
Vcomment
p747
sg11
Vhttps://movie.douban.com/subject/10558405/
p748
sg3
V\u53e4\u7551\u4efb\u4e09\u90ce \u91cd\u751f\u4e4b\u6b7b / \u53e4\u7551\u4efb\u4e09\u90ce\u30d5\u30a1\u30a4\u30ca\u30eb \u4eca\u3001\u7526\u308b\u6b7b
p749
sg14
V10558405
p750
sa(dp751
g9
Vcomment
p752
sg11
Vhttps://movie.douban.com/subject/5908508/
p753
sg3
V\u53e4\u7551\u4efb\u4e09\u90ce \u516c\u5e73\u7684\u6740\u4eba\u8005 / \u53e4\u7551\u4efb\u4e09\u90ce\u30d5\u30a1\u30a4\u30ca\u30eb \u30d5\u30a7\u30a2\u306a\u6bba\u4eba\u8005
p754
sg14
V5908508
p755
sa(dp756
g9
Vrating2-t
p757
sg11
Vhttps://movie.douban.com/subject/5967829/
p758
sg3
V\u6c38\u8fdc\u7684\u4e09\u4e01\u76ee\u7684\u5915\u9633\u4e4b1964 / Always \u4e09\u4e01\u76ee\u306e\u5915\u65e5'64
p759
sg14
V5967829
p760
sa(dp761
g9
Vcomment
p762
sg11
Vhttps://movie.douban.com/subject/1483813/
p763
sg3
V\u5927\u548c\u629a\u5b50 / \u3084\u307e\u3068\u306a\u3067\u3057\u3053
p764
sg14
V1483813
p765
sa(dp766
g9
Vcomment
p767
sg11
Vhttps://movie.douban.com/subject/11534824/
p768
sg3
V\u7a3b\u8349\u4e4b\u76fe / \u85c1\u306e\u696f
p769
sg14
V11534824
p770
sa(dp771
g9
Vcomment
p772
sg11
Vhttps://movie.douban.com/subject/4927336/
p773
sg3
V\u72d7\u72d7\u4e0e\u4f60\u7684\u6545\u4e8b / \u72ac\u3068\u3042\u306a\u305f\u306e\u7269\u8a9e \u3044\u306c\u306e\u3048\u3044\u304c
p774
sg14
V4927336
p775
sa(dp776
g9
Vcomment
p777
sg11
Vhttps://movie.douban.com/subject/1464837/
p778
sg3
V\u9b54\u5973\u7684\u6761\u4ef6 / \u9b54\u5973\u306e\u6761\u4ef6
p779
sg14
V1464837
p780
sa(dp781
g9
Vcomment
p782
sg11
Vhttps://movie.douban.com/subject/5355155/
p783
sg3
VLADY~\u6700\u540e\u7684\u72af\u7f6a\u5fc3\u7406\u5206\u6790\u5b98~ / LADY\u301c\u6700\u5f8c\u306e\u72af\u7f6a\u30d7\u30ed\u30d5\u30a1\u30a4\u30eb\u301c
p784
sg14
V5355155
p785
sa(dp786
g9
Vrating3-t
p787
sg11
Vhttps://movie.douban.com/subject/2075971/
p788
sg3
V\u62dc\u6258\u4e86\u8001\u5e08 / \u304a\u306d\u304c\u3044\u2606\u30c6\u30a3\u30fc\u30c1\u30e3\u30fc
p789
sg14
V2075971
p790
sa(dp791
g9
Vcomment
p792
sg11
Vhttps://movie.douban.com/subject/10777783/
p793
sg3
V\u63a8\u7406\u8981\u5728\u665a\u9910\u540e \u7535\u5f71\u7248 / \u6620\u753b \u8b0e\u89e3\u304d\u306f\u30c7\u30a3\u30ca\u30fc\u306e\u3042\u3068\u3067
p794
sg14
V10777783
p795
sa(dp796
g9
Vcomment
p797
sg11
Vhttps://movie.douban.com/subject/1465687/
p798
sg3
V\u5708\u59572 / \u30c8\u30ea\u30c3\u30af2
p799
sg14
V1465687
p800
sa(dp801
g9
Vcomment
p802
sg11
Vhttps://movie.douban.com/subject/24325518/
p803
sg3
V\u661f\u7537\uff1a\u8fd9\u4e2a\u661f\u7403\u4e0a\u7684\u604b\u7231 / \u30b9\u30bf\u30fc\u30de\u30f3\u30fb\u3053\u306e\u661f\u306e\u604b
p804
sg14
V24325518
p805
sa(dp806
g9
Vcomment
p807
sg11
Vhttps://movie.douban.com/subject/4942513/
p808
sg3
V\u4e0e\u9b54\u9b3c\u7f14\u7ed3\u5951\u7ea6\u4e4b\u5973 / \u30ae\u30eb\u30c6\u30a3 \u60aa\u9b54\u3068\u5951\u7d04\u3057\u305f\u5973
p809
sg14
V4942513
p810
sa(dp811
g9
Vcomment
p812
sg11
Vhttps://movie.douban.com/subject/6999253/
p813
sg3
V\u604b\u7231neet \uff5e\u5fd8\u8bb0\u4e86\u7684\u604b\u7231\u5f00\u59cb\u65b9\u6cd5\uff5e / \u604b\u611b\u30cb\u30fc\u30c8\uff5e\u5fd8\u308c\u305f\u604b\u306e\u306f\u3058\u3081\u65b9\uff5e
p814
sg14
V6999253
p815
sa(dp816
g9
Vcomment
p817
sg11
Vhttps://movie.douban.com/subject/6428136/
p818
sg3
V\u4e1c\u91ce\u572d\u543e3\u5468\u8fde\u7eedSP / \u6771\u91ce\u572d\u543e3\u9031\u9023\u7d9a\u30b9\u30da\u30b7\u30e3\u30eb
p819
sg14
V6428136
p820
sa(dp821
g9
Vcomment
p822
sg11
Vhttps://movie.douban.com/subject/3683641/
p823
sg3
V\u661f\u964d\u5927\u6d17\u57ce / \u5927\u6d17\u306b\u3082\u661f\u306f\u3075\u308b\u306a\u308a
p824
sg14
V3683641
p825
sa(dp826
g9
Vcomment
p827
sg11
Vhttps://movie.douban.com/subject/1298744/
p828
sg3
V\u5341\u4e8c\u7334\u5b50 / Twelve Monkeys
p829
sg14
V1298744
p830
sa(dp831
g9
Vcomment
p832
sg11
Vhttps://movie.douban.com/subject/4930397/
p833
sg3
V\u56fd\u7a0e\u5c40\u67fb\u5bdf\u5b98 / \u30ca\u30b5\u30b1\u306e\u5973 \u301c\u56fd\u7a0e\u5c40\u67fb\u5bdf\u5b98\u301c
p834
sg14
V4930397
p835
sa(dp836
g9
Vcomment
p837
sg11
Vhttps://movie.douban.com/subject/1465679/
p838
sg3
V\u5708\u5957 / \u30c8\u30ea\u30c3\u30af
p839
sg14
V1465679
p840
sa(dp841
g9
Vcomment
p842
sg11
Vhttps://movie.douban.com/subject/20388281/
p843
sg3
V\u6d41\u6c13\u86cb\u7cd5\u5e97
p844
sg14
V20388281
p845
sa(dp846
g9
Vcomment
p847
sg11
Vhttps://movie.douban.com/subject/25774757/
p848
sg3
V\u5708\u59572014\u7279\u522b\u7bc7 / \u30c8\u30ea\u30c3\u30af \u65b0\u4f5c\u30b9\u30da\u30b7\u30e3\u30eb3
p849
sg14
V25774757
p850
sa(dp851
g9
Vcomment
p852
sg11
Vhttps://movie.douban.com/subject/24284844/
p853
sg3
V\u5927\u7a7a\u6e2f2013
p854
sg14
V24284844
p855
sa(dp856
g9
Vcomment
p857
sg11
Vhttps://movie.douban.com/subject/1903286/
p858
sg3
V\u6e29\u67d4\u65f6\u523b / \u512a\u3057\u3044\u6642\u9593
p859
sg14
V1903286
p860
sa(dp861
g9
Vcomment
p862
sg11
Vhttps://movie.douban.com/subject/3793783/
p863
sg3
V\u5730\u5fc3\u5f15\u529b / Gravity
p864
sg14
V3793783
p865
sa(dp866
g9
Vcomment
p867
sg11
Vhttps://movie.douban.com/subject/25727519/
p868
sg3
V\u4e0a\u9501\u7684\u623f\u95f4SP / \u9375\u306e\u304b\u304b\u3063\u305f\u90e8\u5c4b \u30b9\u30da\u30b7\u30e3\u30eb
p869
sg14
V25727519
p870
sa(dp871
g9
Vcomment
p872
sg11
Vhttps://movie.douban.com/subject/4862211/
p873
sg3
V\u81ea\u604b\u5211\u8b66 / \u3046\u306c\u307c\u308c\u5211\u4e8b
p874
sg14
V4862211
p875
sa(dp876
g9
Vcomment
p877
sg11
Vhttps://movie.douban.com/subject/25800971/
p878
sg3
V\u7231\u60c5\u9009\u62e9\u9898 / \u30de\u30c3\u30c1\u30f3\u30b0\u30fb\u30e9\u30d6
p879
sg14
V25800971
p880
sa(dp881
g9
Vcomment
p882
sg11
Vhttps://movie.douban.com/subject/24876428/
p883
sg3
V\u6b22\u8fce\u6765\u5230\u9634\u9633\u5c4b / \u3088\u308d\u305a\u5360\u3044\u51e6 \u9670\u967d\u5c4b\u3078\u3088\u3046\u3053\u305d
p884
sg14
V24876428
p885
sa(dp886
g9
Vcomment
p887
sg11
Vhttps://movie.douban.com/subject/25718136/
p888
sg3
V\u6d77\u4e0a\u8bca\u7597\u6240 / \u6d77\u306e\u4e0a\u306e\u8a3a\u7642\u6240
p889
sg14
V25718136
p890
sa(dp891
g9
Vcomment
p892
sg11
Vhttps://movie.douban.com/subject/25784266/
p893
sg3
V\u604b\u7231\u5e73\u5b89\u591c / \u604b\u3059\u308b\u30a4\u30f4
p894
sg14
V25784266
p895
sa(dp896
g9
Vcomment
p897
sg11
Vhttps://movie.douban.com/subject/23997724/
p898
sg3
V\u80dc\u8005\u5373\u662f\u6b63\u4e492 / \u30ea\u30fc\u30ac\u30eb\u30cf\u30a42
p899
sg14
V23997724
p900
sa(dp901
g9
Vcomment
p902
sg11
Vhttps://movie.douban.com/subject/4848115/
p903
sg3
V\u4f60\u770b\u8d77\u6765\u597d\u50cf\u5f88\u597d\u5403 / \u304a\u307e\u3048\u3046\u307e\u305d\u3046\u3060\u306a
p904
sg14
V4848115
p905
sa(dp906
g9
Vcomment
p907
sg11
Vhttps://movie.douban.com/subject/1462839/
p908
sg3
V\u91d1\u7530\u4e00\u5c11\u5e74\u4e8b\u4ef6\u7c3f\u4e4b\u4e0a\u6d77\u4eba\u9c7c\u4f20\u8bf4 / \u91d1\u7530\u4e00\u5c11\u5e74\u306e\u4e8b\u4ef6\u7c3f \u4e0a\u6d77\u9b5a\u4eba\u4f1d\u8aac
p909
sg14
V1462839
p910
sa(dp911
g9
Vcomment
p912
sg11
Vhttps://movie.douban.com/subject/3197010/
p913
sg3
V\u91d1\u7530\u4e00\u5c11\u5e74\u4e8b\u4ef6\u7c3f\u7279\u522b\u7bc7 \u9b54\u672f\u5217\u8f66\u6740\u4eba\u4e8b\u4ef6 / \u91d1\u7530\u4e00\u5c11\u5e74\u4e8b\u4ef6\u7c3fSP.\u9b54\u8853\u5217\u8eca\u6bba\u4eba\u4e8b\u4ef6
p914
sg14
V3197010
p915
sa(dp916
g9
Vcomment
p917
sg11
Vhttps://movie.douban.com/subject/25711542/
p918
sg3
V\u5355\u8eab\u8d35\u65cf / \u72ec\u8eab\u8cb4\u65cf
p919
sg14
V25711542
p920
sa(dp921
g9
Vrating1-t
p922
sg11
Vhttps://movie.douban.com/subject/4133988/
p923
sg3
V\u67aa\u738b\u4e4b\u738b
p924
sg14
V4133988
p925
sa(dp926
g9
Vcomment
p927
sg11
Vhttps://movie.douban.com/subject/20427168/
p928
sg3
VSPEC\uff1a\u96f6 / SPEC\u301c\u96f6\u301c
p929
sg14
V20427168
p930
sa(dp931
g9
Vcomment
p932
sg11
Vhttps://movie.douban.com/subject/24861720/
p933
sg3
V\u63a8\u7406\u8981\u5728\u665a\u9910\u540eSP\uff1a\u8239\u4e0a\u4fa6\u63a2\u5f71\u5c71 / \u8b0e\u89e3\u304d\u306f\u30c7\u30a3\u30ca\u30fc\u306e\u3042\u3068\u3067\u30b9\u30da\u30b7\u30e3\u30eb \u8239\u4e0a\u63a2\u5075\u30fb\u5f71\u5c71
p934
sg14
V24861720
p935
sa(dp936
g9
Vcomment
p937
sg11
Vhttps://movie.douban.com/subject/21350570/
p938
sg3
V\u91d1\u7530\u4e00\u8015\u52a9VS\u660e\u667a\u5c0f\u4e94\u90ce
p939
sg14
V21350570
p940
sa(dp941
g9
Vrating3-t
p942
sg11
Vhttps://movie.douban.com/subject/2152245/
p943
sg3
V\u5c18\u5c01\u7b14\u8bb0\u672c / \u30af\u30ed\u30fc\u30ba\u30c9\u30fb\u30ce\u30fc\u30c8
p944
sg14
V2152245
p945
sa(dp946
g9
Vcomment
p947
sg11
Vhttps://movie.douban.com/subject/24697949/
p948
sg3
V\u534a\u6cfd\u76f4\u6811 / \u534a\u6ca2\u76f4\u6a39
p949
sg14
V24697949
p950
sa(dp951
g9
Vcomment
p952
sg11
Vhttps://movie.douban.com/subject/20416430/
p953
sg3
V\u6700\u5b8c\u7f8e\u7684\u79bb\u5a5a / \u6700\u9ad8\u306e\u96e2\u5a5a
p954
sg14
V20416430
p955
sa(dp956
g9
Vcomment
p957
sg11
Vhttps://movie.douban.com/subject/21353042/
p958
sg3
V\u98de\u7fd4\u60c5\u62a5\u5ba4 / \u7a7a\u98db\u3076\u5e83\u5831\u5ba4
p959
sg14
V21353042
p960
sa(dp961
g9
Vcomment
p962
sg11
Vhttps://movie.douban.com/subject/5337544/
p963
sg3
V\u91d1\u7530\u4e00\u5c11\u5e74\u4e4b\u4e8b\u4ef6\u7c3fSP1\uff1a\u6b7b\u795e\u75c5\u9662\u6740\u4eba\u4e8b\u4ef6 / \u91d1\u7530\u4e00\u5c11\u5e74\u306e\u4e8b\u4ef6\u7c3f\u30b9\u30da\u30b7\u30e3\u30eb\uff1a\u6b7b\u795e\u75c5\u9662\u6bba\u4eba\u4e8b\u4ef6
p964
sg14
V5337544
p965
sa(dp966
g9
Vrating5-t
p967
sg11
Vhttps://movie.douban.com/subject/5337545/
p968
sg3
V\u91d1\u7530\u4e00\u5c11\u5e74\u4e4b\u4e8b\u4ef6\u7c3fSP3\uff1a\u5438\u8840\u9b3c\u4f20\u8bf4\u6740\u4eba\u4e8b\u4ef6 / \u5438\u8840\u9b3c\u4f1d\u8aac\u6bba\u4eba\u4e8b\u4ef6
p969
sg14
V5337545
p970
sa(dp971
g9
Vrating5-t
p972
sg11
Vhttps://movie.douban.com/subject/4139887/
p973
sg3
V\u91d1\u7530\u4e00\u5c11\u5e74\u4e8b\u4ef6\u7c3f\uff1a\u6b4c\u5267\u9662\u6700\u540e\u7684\u6740\u4eba / \u91d1\u7530\u4e00\u5c11\u5e74\u306e\u4e8b\u4ef6\u7c3fSP \u30aa\u30da\u30e9\u5ea7\u9928\u30fb\u6700\u5f8c\u306e\u6bba\u4eba
p974
sg14
V4139887
p975
sa(dp976
g9
Vcomment
p977
sg11
Vhttps://movie.douban.com/subject/2303758/
p978
sg3
V\u91d1\u7530\u4e00\u5c11\u5e74\u4e8b\u4ef6\u7c3f2 \u6740\u622e\u7684\u6df1\u84dd / \u91d1\u7530\u4e00\u5c11\u5e74\u306e\u4e8b\u4ef6\u7c3f\uff12 \u6bba\u622e\u306e\u30c7\u30a3\u30fc\u30d7\u30d6\u30eb\u30fc
p979
sg14
V2303758
p980
sa(dp981
g9
Vrating5-t
p982
sg11
Vhttps://movie.douban.com/subject/2286777/
p983
sg3
V\u91d1\u7530\u4e00\u5c11\u5e74\u4e4b\u4e8b\u4ef6\u7c3f \u5267\u573a\u72481\uff1a\u6b4c\u5267\u9662\u65b0\u6740\u4eba\u4e8b\u4ef6 / \u91d1\u7530\u4e00\u5c11\u5e74\u306e\u4e8b\u4ef6\u7c3f\u30fb\u30aa\u30da\u30e9\u5ea7\u9928\u30fb\u65b0\u305f\u306a\u308b\u6bba\u4eba
p984
sg14
V2286777
p985
sa(dp986
g9
Vcomment
p987
sg11
Vhttps://movie.douban.com/subject/11636427/
p988
sg3
V\u91d1\u7530\u4e00\u5c11\u5e74\u4e8b\u4ef6\u7c3f \u9ed1\u9b54\u672f\u6740\u4eba\u4e8b\u4ef6 \u540e\u7bc7 / \u91d1\u7530\u4e00\u5c11\u5e74\u306e\u4e8b\u4ef6\u7c3f \u9ed2\u9b54\u8853\u6bba\u4eba\u4e8b\u4ef6 \u5f8c\u7de8
p989
sg14
V11636427
p990
sa(dp991
g9
Vrating4-t
p992
sg11
Vhttps://movie.douban.com/subject/11636395/
p993
sg3
V\u91d1\u7530\u4e00\u5c11\u5e74\u4e8b\u4ef6\u7c3f \u9ed1\u9b54\u672f\u6740\u4eba\u4e8b\u4ef6 \u524d\u7bc7 / \u91d1\u7530\u4e00\u5c11\u5e74\u306e\u4e8b\u4ef6\u7c3f \u9ed2\u9b54\u8853\u6bba\u4eba\u4e8b\u4ef6 \u524d\u7de8
p994
sg14
V11636395
p995
sa(dp996
g9
Vcomment
p997
sg11
Vhttps://movie.douban.com/subject/24843396/
p998
sg3
V\u63a8\u7406\u8981\u5728\u665a\u9910\u540eSP\uff1a\u98ce\u796d\u8b66\u90e8\u7684\u4e8b\u4ef6\u7c3f / \u8b0e\u89e3\u304d\u306f\u30c7\u30a3\u30ca\u30fc\u306e\u3042\u3068\u3067 \u30b9\u30da\u30b7\u30e3\u30eb\uff5e\u98a8\u796d\u8b66\u90e8\u306e\u4e8b\u4ef6\u7c3f\uff5e
p999
sg14
V24843396
p1000
sa(dp1001
g9
Vcomment
p1002
sg11
Vhttps://movie.douban.com/subject/1484163/
p1003
sg3
V\u91d1\u7530\u4e00\u5c11\u5e74\u4e8b\u4ef6\u7c3f\uff1a\u5438\u8840\u9b3c\u4f20\u8bf4\u6740\u4eba\u4e8b\u4ef6 / \u91d1\u7530\u4e00\u5c11\u5e74\u306e\u4e8b\u4ef6\u7c3f \u5438\u8840\u9b3c\u4f1d\u8aac\u6bba\u4eba\u4e8b\u4ef6
p1004
sg14
V1484163
p1005
sa(dp1006
g9
Vcomment
p1007
sg11
Vhttps://movie.douban.com/subject/5262338/
p1008
sg3
V\u865e\u7f8e\u4eba\u76db\u5f00\u7684\u5c71\u5761 / \u30b3\u30af\u30ea\u30b3\u5742\u304b\u3089
p1009
sg14
V5262338
p1010
sa(dp1011
g9
Vrating2-t
p1012
sg11
Vhttps://movie.douban.com/subject/6422080/
p1013
sg3
V\u592b\u59bb\u6210\u957f\u65e5\u8bb0\u7535\u5f71\u7248 / \u6620\u753b\u7248 \u3075\u305f\u308a\u30a8\u30c3\u30c1
p1014
sg14
V6422080
p1015
sa(dp1016
g9
Vcomment
p1017
sg11
Vhttps://movie.douban.com/subject/6872273/
p1018
sg3
V\u76f2\u63a2
p1019
sg14
V6872273
p1020
sa(dp1021
g9
Vcomment
p1022
sg11
Vhttps://movie.douban.com/subject/20426994/
p1023
sg3
V\u6211\u4eec\u90fd\u662f\u8d85\u80fd\u8005 / \u307f\u3093\u306a\uff01\u30a8\u30b9\u30d1\u30fc\u3060\u3088\uff01
p1024
sg14
V20426994
p1025
sa(dp1026
g9
Vcomment
p1027
sg11
Vhttps://movie.douban.com/subject/22278383/
p1028
sg3
V\u30bf\u30ac\u30fc\u30ea\u30f3
p1029
sg14
V22278383
p1030
sa(dp1031
g9
Vcomment
p1032
sg11
Vhttps://movie.douban.com/subject/20268721/
p1033
sg3
V\u795e\u63a2\u4f3d\u5229\u7565 \u7b2c\u4e8c\u5b63 / \u30ac\u30ea\u30ec\u30aa \u7b2c2\u30b7\u30fc\u30ba\u30f3
p1034
sg14
V20268721
p1035
sa(dp1036
g9
Vcomment
p1037
sg11
Vhttps://movie.douban.com/subject/3011308/
p1038
sg3
V\u5b64\u513f\u6028 / Orphan
p1039
sg14
V3011308
p1040
sa(dp1041
g9
Vcomment
p1042
sg11
Vhttps://movie.douban.com/subject/24719853/
p1043
sg3
V\u795e\u63a2\u4f3d\u5229\u7565XX \u5185\u6d77\u85b0\u6700\u540e\u7684\u6848\u4ef6 \u611a\u5f04 / \u30ac\u30ea\u30ec\u30aaXX \u5185\u6d77\u85ab\u6700\u5f8c\u306e\u4e8b\u4ef6 \u611a\u5f04\u3076
p1044
sg14
V24719853
p1045
sa(dp1046
g9
Vcomment
p1047
sg11
Vhttps://movie.douban.com/subject/3591756/
p1048
sg3
V\u604b\u6781\u661f / \u604b\u6975\u661f
p1049
sg14
V3591756
p1050
sa(dp1051
g9
Vrating3-t
p1052
sg11
Vhttps://movie.douban.com/subject/1308685/
p1053
sg3
V\u70df\u82b1 / \u6253\u3061\u4e0a\u3052\u82b1\u706b\u3001\u4e0b\u304b\u3089\u898b\u308b\u304b\u3001\u6a2a\u304b\u3089\u898b\u308b\u304b
p1054
sg14
V1308685
p1055
sa(dp1056
g9
Vrating2-t
p1057
sg11
Vhttps://movie.douban.com/subject/1796053/
p1058
sg3
V\u8702\u871c\u4e0e\u56db\u53f6\u8349 / \u30cf\u30c1\u30df\u30c4\u3068\u30af\u30ed\u30fc\u30d0\u30fc
p1059
sg14
V1796053
p1060
sa(dp1061
g9
Vcomment
p1062
sg11
Vhttps://movie.douban.com/subject/1291583/
p1063
sg3
V\u5929\u7a7a\u4e4b\u57ce / \u5929\u7a7a\u306e\u57ce\u30e9\u30d4\u30e5\u30bf
p1064
sg14
V1291583
p1065
sa(dp1066
g9
Vcomment
p1067
sg11
Vhttps://movie.douban.com/subject/1291838/
p1068
sg3
V\u7ea2\u732a / \u7d05\u306e\u8c5a
p1069
sg14
V1291838
p1070
sa(dp1071
g9
Vrating4-t
p1072
sg11
Vhttps://movie.douban.com/subject/6880497/
p1073
sg3
V\u76d7\u94a5\u5319\u7684\u65b9\u6cd5 / \u9375\u6ce5\u68d2\u306e\u30e1\u30bd\u30c3\u30c9
p1074
sg14
V6880497
p1075
sa(dp1076
g9
Vcomment
p1077
sg11
Vhttps://movie.douban.com/subject/1291560/
p1078
sg3
V\u9f99\u732b / \u3068\u306a\u308a\u306e\u30c8\u30c8\u30ed
p1079
sg14
V1291560
p1080
sa(dp1081
g9
Vcomment
p1082
sg11
Vhttps://movie.douban.com/subject/6788284/
p1083
sg3
V\u5bb6\u653f\u5987\u4e09\u7530 / \u5bb6\u653f\u5a66\u306e\u30df\u30bf
p1084
sg14
V6788284
p1085
sa(dp1086
g9
Vcomment
p1087
sg11
Vhttps://movie.douban.com/subject/1292371/
p1088
sg3
V\u56db\u6708\u7269\u8bed / \u56db\u6708\u7269\u8a9e
p1089
sg14
V1292371
p1090
sa(dp1091
g9
Vrating2-t
p1092
sg11
Vhttps://movie.douban.com/subject/6396367/
p1093
sg3
V\u86c7\u874e\u7f8e\u4eba \u7b2c\u4e00\u5b63 / Femme Fatales Season 1
p1094
sg14
V6396367
p1095
sa(dp1096
g9
Vrating2-t
p1097
sg11
Vhttps://movie.douban.com/subject/3088556/
p1098
sg3
V\u7fa4\u9752 / \u7fa4\u9752 \u611b\u304c\u6c88\u3093\u3060\u6d77\u306e\u8272
p1099
sg14
V3088556
p1100
sa(dp1101
g9
Vrating2-t
p1102
sg11
Vhttps://movie.douban.com/subject/3878004/
p1103
sg3
V\u5f2f\u66f2\u5427\uff01\u6c64\u5319 / \u66f2\u304c\u308c!\u30b9\u30d7\u30fc\u30f3
p1104
sg14
V3878004
p1105
sa(dp1106
g9
Vrating3-t
p1107
sg11
Vhttps://movie.douban.com/subject/1905577/
p1108
sg3
V\u6211\u7684\u8001\u5927\u3001\u6211\u7684\u82f1\u96c4 / \u30de\u30a4\u2605\u30dc\u30b9 \u30de\u30a4\u2605\u30d2\u30fc\u30ed\u30fc
p1109
sg14
V1905577
p1110
sa(dp1111
g9
Vrating3-t
p1112
sg11
Vhttps://movie.douban.com/subject/3660428/
p1113
sg3
V\u91d1\u8272\u68a6\u4e61 / \u30b4\u30fc\u30eb\u30c7\u30f3\u30b9\u30e9\u30f3\u30d0\u30fc
p1114
sg14
V3660428
p1115
sa(dp1116
g9
Vrating4-t
p1117
sg11
Vhttps://movie.douban.com/subject/1297359/
p1118
sg3
V\u5e7d\u7075\u516c\u4e3b / \u3082\u306e\u306e\u3051\u59eb
p1119
sg14
V1297359
p1120
sa(dp1121
g9
Vrating4-t
p1122
sg11
Vhttps://movie.douban.com/subject/1307811/
p1123
sg3
V\u9b54\u5973\u5b85\u6025\u4fbf / \u9b54\u5973\u306e\u5b85\u6025\u4fbf
p1124
sg14
V1307811
p1125
sa(dp1126
g9
Vcomment
p1127
sg11
Vhttps://movie.douban.com/subject/2276934/
p1128
sg3
V\u91d1\u7530\u4e00\u5c11\u5e74\u4e8b\u4ef6\u7c3f1 / \u91d1\u7530\u4e00\u5c11\u5e74\u306e\u4e8b\u4ef6\u7c3f \u7b2c1\u30b7\u30ea\u30fc\u30ba
p1129
sg14
V2276934
p1130
sa(dp1131
g9
Vcomment
p1132
sg11
Vhttps://movie.douban.com/subject/21332518/
p1133
sg3
V\u80dc\u8005\u5373\u662f\u6b63\u4e49SP / \u30ea\u30fc\u30ac\u30eb\u30fb\u30cf\u30a4SP
p1134
sg14
V21332518
p1135
sa(dp1136
g9
Vcomment
p1137
sg11
Vhttps://movie.douban.com/subject/1297052/
p1138
sg3
V\u4fa7\u8033\u503e\u542c / \u8033\u3092\u3059\u307e\u305b\u3070
p1139
sg14
V1297052
p1140
sa(dp1141
g9
Vcomment
p1142
sg11
Vhttps://movie.douban.com/subject/2148784/
p1143
sg3
V\u4e0b\u5317\u9633\u5149\u707f\u70c2\u7684\u65e5\u5b50 / \u4e0b\u5317GLORY DAYS
p1144
sg14
V2148784
p1145
sa(dp1146
g9
Vrating2-t
p1147
sg11
Vhttps://movie.douban.com/subject/5247059/
p1148
sg3
V\u5929\u5802\u4e4b\u543b / \u30d1\u30e9\u30c0\u30a4\u30b9\u30fb\u30ad\u30b9
p1149
sg14
V5247059
p1150
sa(dp1151
g9
Vrating2-t
p1152
sg11
Vhttps://movie.douban.com/subject/2158166/
p1153
sg3
V\u5bcc\u8c6a\u5211\u4e8b2 / \u5bcc\u8c6a\u5211\u4e8b\u30c7\u30e9\u30c3\u30af\u30b9
p1154
sg14
V2158166
p1155
sa(dp1156
g9
Vrating3-t
p1157
sg11
Vhttps://movie.douban.com/subject/10453701/
p1158
sg3
V\u30ca\u30cb\u30ab \u305d\u306e\u65c5\u304c\u304f\u308c\u308b\u3082\u306e
p1159
sg14
V10453701
p1160
sa(dp1161
g9
Vrating2-t
p1162
sg11
Vhttps://movie.douban.com/subject/1305257/
p1163
sg3
V\u91d1\u9e212
p1164
sg14
V1305257
p1165
sa(dp1166
g9
Vrating2-t
p1167
sg11
Vhttps://movie.douban.com/subject/4827466/
p1168
sg3
V\u602a\u8c08\u9910\u5385 \u5267\u573a\u7248 / \u5287\u5834\u7248 \u602a\u8ac7\u30ec\u30b9\u30c8\u30e9\u30f3
p1169
sg14
V4827466
p1170
sa(dp1171
g9
Vrating3-t
p1172
sg11
Vhttps://movie.douban.com/subject/5294338/
p1173
sg3
V\u5267\u573a\u7248\u52a8\u753b \u5fcd\u8005\u4e71\u592a\u90ce \u5fcd\u672f\u5b66\u56ed \u5168\u5458\u51fa\u52a8\uff01 / \u5287\u5834\u7248\u30a2\u30cb\u30e1 \u5fcd\u305f\u307e\u4e71\u592a\u90ce \u5fcd\u8853\u5b66\u5712 \u5168\u54e1\u51fa\u52d5\uff01\u306e\u6bb5
p1174
sg14
V5294338
p1175
sa(dp1176
g9
Vcomment
p1177
sg11
Vhttps://movie.douban.com/subject/4847822/
p1178
sg3
V\u5fcd\u8005\u4e71\u592a\u90ce / \u5fcd\u305f\u307e\u4e71\u592a\u90ce
p1179
sg14
V4847822
p1180
sa(dp1181
g9
Vrating1-t
p1182
sg11
Vhttps://movie.douban.com/subject/10484036/
p1183
sg3
V\u90fd\u5e02\u4f20\u8bf4\u4e4b\u5973 / \u90fd\u5e02\u4f1d\u8aac\u306e\u5973
p1184
sg14
V10484036
p1185
sa(dp1186
g9
Vrating1-t
p1187
sg11
Vhttps://movie.douban.com/subject/10439358/
p1188
sg3
V\u72fc\u72c8 / \u30d8\u30eb\u30bf\u30fc\u30b9\u30b1\u30eb\u30bf\u30fc
p1189
sg14
V10439358
p1190
sa(dp1191
g9
Vcomment
p1192
sg11
Vhttps://movie.douban.com/subject/10574468/
p1193
sg3
V\u5317\u4eac\u9047\u4e0a\u897f\u96c5\u56fe
p1194
sg14
V10574468
p1195
sa(dp1196
g9
Vcomment
p1197
sg11
Vhttps://movie.douban.com/subject/6114876/
p1198
sg3
V3D\u8089\u84b2\u56e2\u4e4b\u6781\u4e50\u5b9d\u9274 / 3D\u8089\u84b2\u5718\u4e4b\u6975\u6a02\u5bf6\u9451
p1199
sg14
V6114876
p1200
sa(dp1201
g9
Vcomment
p1202
sg11
Vhttps://movie.douban.com/subject/4290704/
p1203
sg3
V\u6708\u4ee3\u5934\u5e03\u4e01 / \u3061\u3087\u3093\u307e\u3052\u3077\u308a\u3093
p1204
sg14
V4290704
p1205
sa(dp1206
g9
Vcomment
p1207
sg11
Vhttps://movie.douban.com/subject/4246125/
p1208
sg3
V\u8ffd\u9010\u7e41\u661f\u7684\u5b69\u5b50 / \u661f\u3092\u8ffd\u3046\u5b50\u3069\u3082
p1209
sg14
V4246125
p1210
sa(dp1211
g9
Vcomment
p1212
sg11
Vhttps://movie.douban.com/subject/7152895/
p1213
sg3
V\u542c\u8bf4\u6850\u5c9b\u8981\u9000\u90e8 / \u6850\u5cf6\u3001\u90e8\u6d3b\u3084\u3081\u308b\u3063\u3066\u3088
p1214
sg14
V7152895
p1215
sa(dp1216
g9
Vrating2-t
p1217
sg11
Vhttps://movie.douban.com/subject/11606336/
p1218
sg3
V\u6076\u68a6\u5c0f\u59d0 / \u60aa\u5922\u3061\u3083\u3093
p1219
sg14
V11606336
p1220
sa(dp1221
g9
Vcomment
p1222
sg11
Vhttps://movie.douban.com/subject/1818263/
p1223
sg3
V\u91d1\u7530\u4e00\u5c11\u5e74\u4e8b\u4ef6\u7c3f / \u91d1\u7530\u4e00\u5c11\u5e74\u306e\u4e8b\u4ef6\u7c3f
p1224
sg14
V1818263
p1225
sa(dp1226
g9
Vrating2-t
p1227
sg11
Vhttps://movie.douban.com/subject/13935372/
p1228
sg3
V\u4e66\u5e97\u5458\u7f8e\u77e5\u7559\u7684\u6545\u4e8b / \u66f8\u5e97\u54e1\u30df\u30c1\u30eb\u306e\u8eab\u306e\u4e0a\u8a71
p1229
sg14
V13935372
p1230
sa(dp1231
g9
Vcomment
p1232
sg11
Vhttps://movie.douban.com/subject/11524486/
p1233
sg3
V\u91d1\u7530\u4e00\u5c11\u5e74\u4e8b\u4ef6\u7c3f \u9999\u6e2f\u4e5d\u9f99\u8d22\u5b9d\u6740\u4eba\u4e8b\u4ef6 / \u91d1\u7530\u4e00\u5c11\u5e74\u306e\u4e8b\u4ef6\u7c3f \u9999\u6e2f\u4e5d\u9f8d\u8ca1\u5b9d\u6bba\u4eba\u4e8b\u4ef6
p1234
sg14
V11524486
p1235
sa(dp1236
g9
Vrating3-t
p1237
sg11
Vhttps://movie.douban.com/subject/1301168/
p1238
sg3
V\u5367\u864e\u85cf\u9f99 / \u81e5\u864e\u85cf\u9f8d
p1239
sg14
V1301168
p1240
sa(dp1241
g9
Vrating5-t
p1242
sg11
Vhttps://movie.douban.com/subject/3402975/
p1243
sg3
V\u8d25\u72ac\u5973\u738b / \u6557\u72ac\u5973\u738b
p1244
sg14
V3402975
p1245
sa(dp1246
g9
Vcomment
p1247
sg11
Vhttps://movie.douban.com/subject/3737098/
p1248
sg3
V\u96f6\u79d2\u51fa\u624b\uff1a\u60ac\u5d16\u4e0a\u7684\u82f1\u96c4 / \u30d6\u30b6\u30fc\u30fb\u30d3\u30fc\u30c8\u301c\u5d16\u3063\u3077\u3061\u306e\u30d2\u30fc\u30ed\u30fc\u301c
p1249
sg14
V3737098
p1250
sa(dp1251
g9
Vcomment
p1252
sg11
Vhttps://movie.douban.com/subject/4271533/
p1253
sg3
V\u6bd5\u4e1a\u4e4b\u6b4c / \u5352\u3046\u305f
p1254
sg14
V4271533
p1255
sa(dp1256
g9
Vcomment
p1257
sg11
Vhttps://movie.douban.com/subject/3685955/
p1258
sg3
V\u8bc8\u6b3a\u6e38\u620f2 / \u30e9\u30a4\u30a2\u30fc\u30b2\u30fc\u30e02
p1259
sg14
V3685955
p1260
sa(dp1261
g9
Vcomment
p1262
sg11
Vhttps://movie.douban.com/subject/4944035/
p1263
sg3
V\u6253\u5de5\u4ed4\u7684\u68a6\u60f3\u623f / \u30d5\u30ea\u30fc\u30bf\u30fc\u3001\u5bb6\u3092\u8cb7\u3046\u3002
p1264
sg14
V4944035
p1265
sa(dp1266
g9
Vrating2-t
p1267
sg11
Vhttps://movie.douban.com/subject/3237723/
p1268
sg3
V\u4e09\u56fd
p1269
sg14
V3237723
p1270
sa(dp1271
g9
Vrating4-t
p1272
sg11
Vhttps://movie.douban.com/subject/6430841/
p1273
sg3
V\u5802\u5409\u8bc3\u5fb7 / \u30c9\u30f3\u2605\u30ad\u30db\u30fc\u30c6
p1274
sg14
V6430841
p1275
sa(dp1276
g9
Vrating5-t
p1277
sg11
Vhttps://movie.douban.com/subject/6989744/
p1278
sg3
V\u5012\u6570\u7b2c\u4e8c\u6b21\u604b\u7231 / \u6700\u5f8c\u304b\u3089\u4e8c\u756a\u76ee\u306e\u604b
p1279
sg14
V6989744
p1280
sa(dp1281
g9
Vcomment
p1282
sg11
Vhttps://movie.douban.com/subject/2377585/
p1283
sg3
V\u6ca1\u6709\u73ab\u7470\u7684\u82b1\u5e97 / \u8594\u8587\u306e\u306a\u3044\u82b1\u5c4b
p1284
sg14
V2377585
p1285
sa(dp1286
g9
Vcomment
p1287
sg11
Vhttps://movie.douban.com/subject/3244428/
p1288
sg3
V\u85e4\u5b50\u30fb\uff26\u30fb\u4e0d\u4e8c\u96c4\u7684\u5e76\u884c\u30fb\u7a7a\u95f4 / \u85e4\u5b50\u30fb\uff26\u30fb\u4e0d\u4e8c\u96c4\u306e\u30d1\u30e9\u30ec\u30eb\u30fb\u30b9\u30da\u30fc\u30b9
p1289
sg14
V3244428
p1290
sa(dp1291
g9
Vrating2-t
p1292
sg11
Vhttps://movie.douban.com/subject/6714090/
p1293
sg3
VLily
p1294
sg14
V6714090
p1295
sa(dp1296
g9
Vcomment
p1297
sg11
Vhttps://movie.douban.com/subject/10759909/
p1298
sg3
V\u901d\u7231 / \u30b7\u30cb\u30ab\u30ec
p1299
sg14
V10759909
p1300
sa(dp1301
g9
Vcomment
p1302
sg11
Vhttps://movie.douban.com/subject/11629291/
p1303
sg3
V\u8fdf\u5f00\u7684\u5411\u65e5\u8475 / \u9045\u54b2\u304d\u306e\u30d2\u30de\u30ef\u30ea\u301c\u30dc\u30af\u306e\u4eba\u751f\u3001\u30ea\u30cb\u30e5\u30fc\u30a2\u30eb\u301c
p1304
sg14
V11629291
p1305
sa(dp1306
g9
Vcomment
p1307
sg11
Vhttps://movie.douban.com/subject/2270569/
p1308
sg3
V\u771f\u7231 / \u30c8\u30a5\u30eb\u30fc\u30e9\u30d6
p1309
sg14
V2270569
p1310
sa(dp1311
g9
Vcomment
p1312
sg11
Vhttps://movie.douban.com/subject/10752040/
p1313
sg3
V\u4e00\u8def\u5411\u897f
p1314
sg14
V10752040
p1315
sa(dp1316
g9
Vcomment
p1317
sg11
Vhttps://movie.douban.com/subject/3268241/
p1318
sg3
V\u6d41\u661f\u4e4b\u7eca / \u6d41\u661f\u306e\u7d46
p1319
sg14
V3268241
p1320
sa(dp1321
g9
Vcomment
p1322
sg11
Vhttps://movie.douban.com/subject/6717573/
p1323
sg3
VSPEC\uff1a\u5929 / \u5287\u5834\u7248 SPEC\u301c\u5929\u301c
p1324
sg14
V6717573
p1325
sa(dp1326
g9
Vcomment
p1327
sg11
Vhttps://movie.douban.com/subject/19962302/
p1328
sg3
V\u60c5\u70ed\u5927\u9646  \u65b0\u57a3\u7ed3\u8863\u7bc7
p1329
sg14
V19962302
p1330
sa(dp1331
g9
Vcomment
p1332
sg11
Vhttps://movie.douban.com/subject/6007281/
p1333
sg3
V\u540d\u4fa6\u63a2\u67ef\u5357\uff1a\u6c89\u9ed8\u768415\u5206\u949f / \u540d\u63a2\u5075\u30b3\u30ca\u30f3 \u6c88\u9ed9\u306e15\u5206
p1334
sg14
V6007281
p1335
sa(dp1336
g9
Vrating1-t
p1337
sg11
Vhttps://movie.douban.com/subject/19964166/
p1338
sg3
V180 \u4e4b\u53cc\u9c7c&\u5904\u5973
p1339
sg14
V19964166
p1340
sa(dp1341
g9
Vcomment
p1342
sg11
Vhttps://movie.douban.com/subject/6110568/
p1343
sg3
V\u540d\u4fa6\u63a2\u67ef\u5357OVA11\uff1a\u6765\u81ea\u4f26\u6566\u7684\u79d8\u5bc6\u6307\u4ee4 / \u540d\u63a2\u5075\u30b3\u30ca\u30f3 \u30ed\u30f3\u30c9\u30f3\u304b\u3089\u306e\u79d8\u6307\u4ee4
p1344
sg14
V6110568
p1345
sa(dp1346
g9
Vcomment
p1347
sg11
Vhttps://movie.douban.com/subject/4886302/
p1348
sg3
V\u540d\u4fa6\u63a2\u67ef\u5357OVA10\uff1a\u602a\u76d7\u57fa\u5fb7\u5b64\u5c9b\u51b3\u6218 / \u540d\u63a2\u5075\u30b3\u30ca\u30f3 KID in TRAP ISLAND
p1349
sg14
V4886302
p1350
sa(dp1351
g9
Vcomment
p1352
sg11
Vhttps://movie.douban.com/subject/3993582/
p1353
sg3
V\u540d\u4fa6\u63a2\u67ef\u5357OVA8\uff1a\u5973\u5b50\u9ad8\u4e2d\u751f\u4fa6\u63a2 \u94c3\u6728\u56ed\u5b50\u7684\u4e8b\u4ef6\u7c3f / \u540d\u63a2\u5075\u30b3\u30ca\u30f3 \u5973\u5b50\u9ad8\u751f\u63a2\u5075 \u9234\u6728\u5712\u5b50\u306e\u4e8b\u4ef6\u7c3f
p1354
sg14
V3993582
p1355
sa(dp1356
g9
Vrating4-t
p1357
sg11
Vhttps://movie.douban.com/subject/3993581/
p1358
sg3
V\u540d\u4fa6\u63a2\u67ef\u5357OVA7\uff1a\u6765\u81ea\u963f\u7b20\u7684\u6311\u6218\u4e66\uff01\u963f\u7b20\u5bf9\u51b3\u67ef\u5357\u548c\u5c11\u5e74\u4fa6\u63a2\u56e2 / \u540d\u63a2\u5075\u30b3\u30ca\u30f3 \u963f\u7b20\u304b\u3089\u306e\u6311\u6226\u72b6! \u963f\u7b20vs\u30b3\u30ca\u30f3&\u5c11\u5e74\u63a2\u5075\u56e3
p1359
sg14
V3993581
p1360
sa(dp1361
g9
Vcomment
p1362
sg11
Vhttps://movie.douban.com/subject/3993580/
p1363
sg3
V\u540d\u4fa6\u63a2\u67ef\u5357OVA6\uff1a\u8ffd\u8e2a\u5931\u8e2a\u7684\u94bb\u77f3\uff0c\u67ef\u5357\u3001\u5e73\u6b21VS\u57fa\u5fb7 / \u540d\u63a2\u5075\u30b3\u30ca\u30f3 \u6d88\u3048\u305f\u30c0\u30a4\u30e4\u3092\u8ffd\u3048! \u30b3\u30ca\u30f3\u30fb\u5e73\u6b21vs\u30ad\u30c3\u30c9!
p1364
sg14
V3993580
p1365
sa(dp1366
g9
Vrating4-t
p1367
sg11
Vhttps://movie.douban.com/subject/3993579/
p1368
sg3
V\u540d\u4fa6\u63a2\u67ef\u5357OVA5\uff1a\u76ee\u6807\u662f\u5c0f\u4e94\u90ce\uff01\u5c11\u5e74\u4fa6\u63a2\u56e2\u7684\u79d8\u5bc6\u8c03\u67e5 / \u540d\u63a2\u5075\u30b3\u30ca\u30f3 \u6a19\u7684\u306f\u5c0f\u4e94\u90ce!! \u5c11\u5e74\u63a2\u5075\u56e3\u30de\u30eb\u79d8\u8abf\u67fb
p1369
sg14
V3993579
p1370
sa(dp1371
g9
Vcomment
p1372
sg11
Vhttps://movie.douban.com/subject/3993578/
p1373
sg3
V\u540d\u4fa6\u63a2\u67ef\u5357OVA4\uff1a\u67ef\u5357\u3001\u57fa\u5fb7\u548c\u6c34\u6676\u4e4b\u6bcd / \u540d\u63a2\u5075\u30b3\u30ca\u30f3 \u30b3\u30ca\u30f3\u3068\u30ad\u30c3\u30c9\u3068\u30af\u30ea\u30b9\u30bf\u30eb\u30fb\u30de\u30b6\u30fc
p1374
sg14
V3993578
p1375
sa(dp1376
g9
Vcomment
p1377
sg11
Vhttps://movie.douban.com/subject/3993576/
p1378
sg3
V\u540d\u4fa6\u63a2\u67ef\u5357OVA3\uff1a\u67ef\u5357\u3001\u5e73\u6b21\u4e0e\u6d88\u5931\u7684\u5c11\u5e74 / \u540d\u63a2\u5075\u30b3\u30ca\u30f3 \u30b3\u30ca\u30f3\u3068\u5e73\u6b21\u3068\u6d88\u3048\u305f\u5c11\u5e74
p1379
sg14
V3993576
p1380
sa(dp1381
g9
Vrating4-t
p1382
sg11
Vhttps://movie.douban.com/subject/3986596/
p1383
sg3
V\u540d\u4fa6\u63a2\u67ef\u5357OVA2\uff1a16\u4eba\u7684\u5acc\u7591\u72af / \u540d\u63a2\u5075\u30b3\u30ca\u30f3 16\u4eba\u306e\u5bb9\u7591\u8005
p1384
sg14
V3986596
p1385
sa(dp1386
g9
Vrating4-t
p1387
sg11
Vhttps://movie.douban.com/subject/3862363/
p1388
sg3
V\u540d\u4fa6\u63a2\u67ef\u5357OVA1\uff1a\u5b9d\u5200\u4e89\u593a\u5927\u4f5c\u6218 / \u540d\u63a2\u5075\u30b3\u30ca\u30f3 \u30b3\u30ca\u30f3vs\u30ad\u30c3\u30c9vs\u30e4\u30a4\u30d0 \u5b9d\u5200\u4e89\u596a\u5927\u6c7a\u6226!!
p1389
sg14
V3862363
p1390
sa(dp1391
g9
Vcomment
p1392
sg11
Vhttps://movie.douban.com/subject/5153329/
p1393
sg3
V\u540d\u4fa6\u63a2\u67ef\u5357\uff1a\u5929\u7a7a\u7684\u9047\u96be\u8239 / \u540d\u63a2\u5075\u30b3\u30ca\u30f3 \u5929\u7a7a\u306e\u96e3\u7834\u8239
p1394
sg14
V5153329
p1395
sa(dp1396
g9
Vcomment
p1397
sg11
Vhttps://movie.douban.com/subject/10748109/
p1398
sg3
V\u4e1c\u91ce\u572d\u543e \u60ac\u7591\u6545\u4e8b / \u6771\u91ce\u572d\u543e\u30df\u30b9\u30c6\u30ea\u30fc\u30ba
p1399
sg14
V10748109
p1400
sa(dp1401
g9
Vrating4-t
p1402
sg11
Vhttps://movie.douban.com/subject/2357717/
p1403
sg3
V\u540d\u4fa6\u63a2\u67ef\u5357\uff1a\u6df1\u84dd\u8272\u7684\u6d77\u76d7\u65d7 / \u540d\u63a2\u5075\u30b3\u30ca\u30f3 \u7d3a\u78a7\u306e\u68fa
p1404
sg14
V2357717
p1405
sa(dp1406
g9
Vcomment
p1407
sg11
Vhttps://movie.douban.com/subject/1827955/
p1408
sg3
V\u540d\u4fa6\u63a2\u67ef\u5357\uff1a\u4fa6\u63a2\u4eec\u7684\u9547\u9b42\u6b4c / \u540d\u63a2\u5075\u30b3\u30ca\u30f3 \u63a2\u5075\u305f\u3061\u306e\u93ae\u9b42\u6b4c
p1409
sg14
V1827955
p1410
sa(dp1411
g9
Vcomment
p1412
sg11
Vhttps://movie.douban.com/subject/2357713/
p1413
sg3
V\u540d\u4fa6\u63a2\u67ef\u5357\uff1a\u6c34\u5e73\u7ebf\u4e0a\u7684\u9634\u8c0b / \u540d\u63a2\u5075\u30b3\u30ca\u30f3 \u6c34\u5e73\u7dda\u4e0a\u306e\u9670\u8b00
p1414
sg14
V2357713
p1415
sa(dp1416
g9
Vcomment
p1417
sg11
Vhttps://movie.douban.com/subject/2357711/
p1418
sg3
V\u540d\u4fa6\u63a2\u67ef\u5357\uff1a\u94f6\u7ffc\u7684\u9b54\u672f\u5e08 / \u540d\u63a2\u5075\u30b3\u30ca\u30f3 \u9280\u7ffc\u306e\u5947\u8853\u5e2b
p1419
sg14
V2357711
p1420
sa(dp1421
g9
Vcomment
p1422
sg11
Vhttps://movie.douban.com/subject/2357707/
p1423
sg3
V\u540d\u4fa6\u63a2\u67ef\u5357\uff1a\u8ff7\u5bab\u7684\u5341\u5b57\u8def\u53e3 / \u540d\u63a2\u5075\u30b3\u30ca\u30f3 \u8ff7\u5bae\u306e\u5341\u5b57\u8def
p1424
sg14
V2357707
p1425
sa(dp1426
g9
Vcomment
p1427
sg11
Vhttps://movie.douban.com/subject/2286642/
p1428
sg3
V\u540d\u4fa6\u63a2\u67ef\u5357\uff1a\u8d1d\u514b\u8857\u7684\u4ea1\u7075 / \u540d\u63a2\u5075\u30b3\u30ca\u30f3 \u30d9\u30a4\u30ab\u30fc\u8857\u306e\u4ea1\u970a
p1429
sg14
V2286642
p1430
sa(dp1431
g9
Vcomment
p1432
sg11
Vhttps://movie.douban.com/subject/10756863/
p1433
sg3
V\u6709\u94b1\u7537\u4e0e\u8d2b\u7a77\u5973 / \u30ea\u30c3\u30c1\u30de\u30f3\u3001\u30d7\u30a2\u30a6\u30fc\u30de\u30f3
p1434
sg14
V10756863
p1435
sa(dp1436
g9
Vcomment
p1437
sg11
Vhttps://movie.douban.com/subject/2357703/
p1438
sg3
V\u540d\u4fa6\u63a2\u67ef\u5357\uff1a\u901a\u5411\u5929\u56fd\u7684\u5012\u8ba1\u65f6 / \u540d\u63a2\u5075\u30b3\u30ca\u30f3 \u5929\u56fd\u3078\u306e\u30ab\u30a6\u30f3\u30c8\u30c0\u30a6\u30f3
p1439
sg14
V2357703
p1440
sa(dp1441
g9
Vcomment
p1442
sg11
Vhttps://movie.douban.com/subject/2357701/
p1443
sg3
V\u540d\u4fa6\u63a2\u67ef\u5357\uff1a\u77b3\u5b54\u4e2d\u7684\u6697\u6740\u8005 / \u540d\u63a2\u5075\u30b3\u30ca\u30f3 \u77b3\u306e\u4e2d\u306e\u6697\u6bba\u8005
p1444
sg14
V2357701
p1445
sa(dp1446
g9
Vcomment
p1447
sg11
Vhttps://movie.douban.com/subject/2279152/
p1448
sg3
V\u540d\u4fa6\u63a2\u67ef\u5357\uff1a\u4e16\u7eaa\u672b\u7684\u9b54\u672f\u5e08 / \u540d\u63a2\u5075\u30b3\u30ca\u30f3 \u4e16\u7d00\u672b\u306e\u9b54\u8853\u5e2b
p1449
sg14
V2279152
p1450
sa(dp1451
g9
Vrating5-t
p1452
sg11
Vhttps://movie.douban.com/subject/2357699/
p1453
sg3
V\u540d\u4fa6\u63a2\u67ef\u5357\uff1a\u7b2c\u5341\u56db\u4e2a\u76ee\u6807 / \u540d\u63a2\u5075\u30b3\u30ca\u30f3 14\u756a\u76ee\u306e\u6a19\u7684
p1454
sg14
V2357699
p1455
sa(dp1456
g9
Vcomment
p1457
sg11
Vhttps://movie.douban.com/subject/3794489/
p1458
sg3
V\u540d\u4fa6\u63a2\u67ef\u5357OVA9\uff1a\u5341\u5e74\u540e\u7684\u964c\u751f\u4eba / \u540d\u63a2\u5075\u30b3\u30ca\u30f3 10\u5e74\u5f8c\u306e\u7570\u90a6\u4eba
p1459
sg14
V3794489
p1460
sa(dp1461
g9
Vrating5-t
p1462
sg11
Vhttps://movie.douban.com/subject/1439579/
p1463
sg3
V\u540d\u4fa6\u63a2\u67ef\u5357\uff1a\u5f15\u7206\u6469\u5929\u697c / \u540d\u63a2\u5075\u30b3\u30ca\u30f3 \u6642\u8a08\u3058\u304b\u3051\u306e\u6469\u5929\u697c
p1464
sg14
V1439579
p1465
sa(dp1466
g9
Vcomment
p1467
sg11
Vhttps://movie.douban.com/subject/3387546/
p1468
sg3
V\u540d\u4fa6\u63a2\u67ef\u5357\uff1a\u6f06\u9ed1\u7684\u8ffd\u8e2a\u8005 / \u540d\u63a2\u5075\u30b3\u30ca\u30f3 \u6f06\u9ed2\u306e\u8ffd\u8de1\u8005
p1469
sg14
V3387546
p1470
sa(dp1471
g9
Vrating3-t
p1472
sg11
Vhttps://movie.douban.com/subject/3143647/
p1473
sg3
V\u5566\u5566\u961f\u5c11\u5973 / \u30d5\u30ec\u30d5\u30ec\u5c11\u5973
p1474
sg14
V3143647
p1475
sa(dp1476
g9
Vcomment
p1477
sg11
Vhttps://movie.douban.com/subject/10573510/
p1478
sg3
V\u521d\u604b / \u306f\u3064\u604b
p1479
sg14
V10573510
p1480
sa(dp1481
g9
Vcomment
p1482
sg11
Vhttps://movie.douban.com/subject/2361269/
p1483
sg3
V\u6211\u4eec\u4e0e\u9a7b\u5728\u5148\u751f\u7684700\u65e5\u6218\u4e89 / \u307c\u304f\u305f\u3061\u3068\u99d0\u5728\u3055\u3093\u306e700\u65e5\u6226\u4e89
p1484
sg14
V2361269
p1485
sa(dp1486
g9
Vcomment
p1487
sg11
Vhttps://movie.douban.com/subject/5968334/
p1488
sg3
V\u4e08\u592b\u5f97\u4e86\u6291\u90c1\u75c7 / \u30c4\u30ec\u304c\u3046\u3064\u306b\u306a\u308a\u307e\u3057\u3066\u3002
p1489
sg14
V5968334
p1490
sa(dp1491
g9
Vrating2-t
p1492
sg11
Vhttps://movie.douban.com/subject/6984042/
p1493
sg3
V\u5206\u8eab
p1494
sg14
V6984042
p1495
sa(dp1496
g9
Vcomment
p1497
sg11
Vhttps://movie.douban.com/subject/6808702/
p1498
sg3
V\u6211\u65e0\u6cd5\u604b\u7231\u7684\u7406\u7531 / \u79c1\u304c\u604b\u611b\u3067\u304d\u306a\u3044\u7406\u7531
p1499
sg14
V6808702
p1500
sa(dp1501
g9
Vrating2-t
p1502
sg11
Vhttps://movie.douban.com/subject/6091398/
p1503
sg3
V\u5544\u6728\u9e1f\u548c\u96e8 / \u30ad\u30c4\u30c4\u30ad\u3068\u96e8
p1504
sg14
V6091398
p1505
sa(dp1506
g9
Vrating2-t
p1507
sg11
Vhttps://movie.douban.com/subject/5279593/
p1508
sg3
V\u5e78\u798f\u7684\u9762\u5305 / \u3057\u3042\u308f\u305b\u306e\u30d1\u30f3
p1509
sg14
V5279593
p1510
sa(dp1511
g9
Vcomment
p1512
sg11
Vhttps://movie.douban.com/subject/6402464/
p1513
sg3
V\u9e92\u9e9f\u4e4b\u7ffc \u65b0\u53c2\u8005\u5267\u573a\u7248 / \u9e92\u9e9f\u306e\u7ffc \u5287\u5834\u7248\u65b0\u53c2\u8005
p1514
sg14
V6402464
p1515
sa(dp1516
g9
Vcomment
p1517
sg11
Vhttps://movie.douban.com/subject/4935011/
p1518
sg3
V\u767d\u5154\u7cd6 / \u3046\u3055\u304e\u30c9\u30ed\u30c3\u30d7
p1519
sg14
V4935011
p1520
sa(dp1521
g9
Vrating1-t
p1522
sg11
Vhttps://movie.douban.com/subject/6952646/
p1523
sg3
V\u4e86\u4e0d\u8d77\u7684\u5077\u62cd \u5b8c\u7f8e\u65e0\u7f3a\u7684\u95e8\u623f / \u30b9\u30c6\u30ad\u306a\u96a0\u3057\u64ae\u308a \u5b8c\u5168\u7121\u6b20\u306e\u30b3\u30f3\u30b7\u30a7\u30eb\u30b8\u30e5
p1524
sg14
V6952646
p1525
sa(dp1526
g9
Vcomment
p1527
sg11
Vhttps://movie.douban.com/subject/11503638/
p1528
sg3
V\u5341\u4e07\u4e2a\u51b7\u7b11\u8bdd \u7b2c\u4e00\u5b63
p1529
sg14
V11503638
p1530
sa(dp1531
g9
Vrating1-t
p1532
sg11
Vhttps://movie.douban.com/subject/6957273/
p1533
sg3
V\u5927\u6b66\u5f53\u4e4b\u5929\u5730\u5bc6\u7801
p1534
sg14
V6957273
p1535
sa(dp1536
g9
Vcomment
p1537
sg11
Vhttps://movie.douban.com/subject/10491666/
p1538
sg3
V\u80dc\u8005\u5373\u662f\u6b63\u4e49 / \u30ea\u30fc\u30ac\u30eb\u30fb\u30cf\u30a4
p1539
sg14
V10491666
p1540
sa(dp1541
g9
Vcomment
p1542
sg11
Vhttps://movie.douban.com/subject/10521668/
p1543
sg3
V\u4e0a\u9501\u7684\u623f\u95f4 / \u9375\u306e\u304b\u304b\u3063\u305f\u90e8\u5c4b
p1544
sg14
V10521668
p1545
sa(dp1546
g9
Vcomment
p1547
sg11
Vhttps://movie.douban.com/subject/6005591/
p1548
sg3
V\u5c4b\u9876\u7684\u516c\u5bd3 / \u5c4b\u4e0a\u306e\u3042\u308b\u30a2\u30d1\u30fc\u30c8
p1549
sg14
V6005591
p1550
sa(dp1551
g9
Vrating4-t
p1552
sg11
Vhttps://movie.douban.com/subject/6041194/
p1553
sg3
V\u809a\u5b50\u75db\u7684\u6838\u7535\u7ad9\u541b / \u304a\u306a\u304b\u304c\u3044\u305f\u304f\u306a\u3063\u305f\u539f\u767a\u304f\u3093
p1554
sg14
V6041194
p1555
sa(dp1556
g9
Vcomment
p1557
sg11
Vhttps://movie.douban.com/subject/4217426/
p1558
sg3
V\u5927\u5965
p1559
sg14
V4217426
p1560
sa(dp1561
g9
Vrating1-t
p1562
sg11
Vhttps://movie.douban.com/subject/1776117/
p1563
sg3
V\u751c\u5fc3\u7a7a\u59d0 / \u30a2\u30c6\u30f3\u30b7\u30e7\u30f3\u30d7\u30ea\u30fc\u30ba
p1564
sg14
V1776117
p1565
sa(dp1566
g9
Vrating3-t
p1567
sg11
Vhttps://movie.douban.com/subject/6041222/
p1568
sg3
V\u6843\u82b1\u671f / \u30e2\u30c6\u30ad
p1569
sg14
V6041222
p1570
sa(dp1571
g9
Vcomment
p1572
sg11
Vhttps://movie.douban.com/subject/6386345/
p1573
sg3
V\u6625\u5a07\u4e0e\u5fd7\u660e / \u6625\u5b0c\u8207\u5fd7\u660e
p1574
sg14
V6386345
p1575
sa(dp1576
g9
Vcomment
p1577
sg11
Vhttps://movie.douban.com/subject/3168086/
p1578
sg3
V\u632a\u5a01\u7684\u68ee\u6797 / \u30ce\u30eb\u30a6\u30a7\u30a4\u306e\u68ee
p1579
sg14
V3168086
p1580
sa(dp1581
g9
Vrating1-t
p1582
sg11
Vhttps://movie.douban.com/subject/3448362/
p1583
sg3
V\u9c7c\u7684\u6545\u4e8b / \u30d5\u30a3\u30c3\u30b7\u30e5\u30b9\u30c8\u30fc\u30ea\u30fc
p1584
sg14
V3448362
p1585
sa(dp1586
g9
Vrating1-t
p1587
sg11
Vhttps://movie.douban.com/subject/3642835/
p1588
sg3
V\u9ed1\u8863\u4eba3 / Men in Black III
p1589
sg14
V3642835
p1590
sa(dp1591
g9
Vcomment
p1592
sg11
Vhttps://movie.douban.com/subject/1866479/
p1593
sg3
V\u590d\u4ec7\u8005\u8054\u76df / The Avengers
p1594
sg14
V1866479
p1595
sa(dp1596
g9
Vrating2-t
p1597
sg11
Vhttps://movie.douban.com/subject/6974542/
p1598
sg3
VHUNGRY! / \u30cf\u30f3\u30b0\u30ea\u30fc
p1599
sg14
V6974542
p1600
sa(dp1601
g9
Vcomment
p1602
sg11
Vhttps://movie.douban.com/subject/4293234/
p1603
sg3
V\u65b0\u53c2\u8005
p1604
sg14
V4293234
p1605
sa(dp1606
g9
Vrating3-t
p1607
sg11
Vhttps://movie.douban.com/subject/3610047/
p1608
sg3
V\u53d8\u5f62\u91d1\u521a3 / Transformers: Dark of the Moon
p1609
sg14
V3610047
p1610
sa(dp1611
g9
Vrating1-t
p1612
sg11
Vhttps://movie.douban.com/subject/5318665/
p1613
sg3
V\u6211\u7231HK \u5f00\u5fc3\u4e07\u5c81 / \u6211\u611bHK \u958b\u5fc3\u842c\u6b72
p1614
sg14
V5318665
p1615
sa(dp1616
g9
Vrating2-t
p1617
sg11
Vhttps://movie.douban.com/subject/4920528/
p1618
sg3
V\u90a3\u4e9b\u5e74\uff0c\u6211\u4eec\u4e00\u8d77\u8ffd\u7684\u5973\u5b69 / \u90a3\u4e9b\u5e74\uff0c\u6211\u5011\u4e00\u8d77\u8ffd\u7684\u5973\u5b69
p1619
sg14
V4920528
p1620
sa(dp1621
g9
Vcomment
p1622
sg11
Vhttps://movie.douban.com/subject/3532614/
p1623
sg3
V\u593a\u547d\u91d1 / \u596a\u547d\u91d1
p1624
sg14
V3532614
p1625
sa(dp1626
g9
Vcomment
p1627
sg11
Vhttps://movie.douban.com/subject/1438760/
p1628
sg3
V\u4e1c\u4eac\u7231\u60c5\u6545\u4e8b / \u6771\u4eac\u30e9\u30d6\u30b9\u30c8\u30fc\u30ea\u30fc
p1629
sg14
V1438760
p1630
sa(dp1631
g9
Vrating5-t
p1632
sg11
Vhttps://movie.douban.com/subject/10462924/
p1633
sg3
V\u63a8\u7406\u8981\u5728\u665a\u9910\u540eSP / \u8b0e\u89e3\u304d\u306f\u30c7\u30a3\u30ca\u30fc\u306e\u3042\u3068\u3067 \u30b9\u30da\u30b7\u30e3\u30eb
p1634
sg14
V10462924
p1635
sa(dp1636
g9
Vcomment
p1637
sg11
Vhttps://movie.douban.com/subject/4087098/
p1638
sg3
V\u6740\u624b\u5a5a\u793c\u4e4b\u8def / \u30ad\u30e9\u30fc\u30fb\u30f4\u30a1\u30fc\u30b8\u30f3\u30ed\u30fc\u30c9
p1639
sg14
V4087098
p1640
sa(dp1641
g9
Vcomment
p1642
sg11
Vhttps://movie.douban.com/subject/6717574/
p1643
sg3
VSPEC\uff1a\u7fd4 / SPEC\u301c\u7fd4\u301c
p1644
sg14
V6717574
p1645
sa(dp1646
g9
Vrating1-t
p1647
sg11
Vhttps://movie.douban.com/subject/4233625/
p1648
sg3
V\u65b0\u719f\u5973\u65f6\u4ee3 / \u5973\u305f\u3061\u306f\u4e8c\u5ea6\u904a\u3076
p1649
sg14
V4233625
p1650
sa(dp1651
g9
Vcomment
p1652
sg11
Vhttps://movie.douban.com/subject/4206436/
p1653
sg3
V\u6218\u9a6c / War Horse
p1654
sg14
V4206436
p1655
sa(dp1656
g9
Vcomment
p1657
sg11
Vhttps://movie.douban.com/subject/6116967/
p1658
sg3
V\u8352\u5ddd\u7206\u7b11\u56e2 / \u8352\u5ddd\u30a2\u30f3\u30c0\u30fc \u30b6 \u30d6\u30ea\u30c3\u30b8
p1659
sg14
V6116967
p1660
sa(dp1661
g9
Vcomment
p1662
sg11
Vhttps://movie.douban.com/subject/4913200/
p1663
sg3
V\u5927\u9b54\u672f\u5e08 / \u5927\u9b54\u8853\u5e2b
p1664
sg14
V4913200
p1665
sa(dp1666
g9
Vcomment
p1667
sg11
Vhttps://movie.douban.com/subject/2238659/
p1668
sg3
V\u5979\u7684\u60c5\u4e66 / \u5f7c\u5973\u306e\u604b\u6587
p1669
sg14
V2238659
p1670
sa(dp1671
g9
Vcomment
p1672
sg11
Vhttps://movie.douban.com/subject/2065046/
p1673
sg3
V\u672a\u6765\u9884\u60f3\u56fe / \u672a\u6765\u4e88\u60f3\u56f3
p1674
sg14
V2065046
p1675
sa(dp1676
g9
Vrating5-t
p1677
sg11
Vhttps://movie.douban.com/subject/6846495/
p1678
sg3
V\u8c03\u97f3\u5e08 / L'accordeur
p1679
sg14
V6846495
p1680
sa(dp1681
g9
Vcomment
p1682
sg11
Vhttps://movie.douban.com/subject/3730667/
p1683
sg3
V\u6211\u7684\u59b9\u59b9 / \u307c\u304f\u306e\u59b9
p1684
sg14
V3730667
p1685
sa(dp1686
g9
Vrating1-t
p1687
sg11
Vhttps://movie.douban.com/subject/1796946/
p1688
sg3
V\u8fa3\u59b9\u638c\u95e8\u4eba / \u30ae\u30e3\u30eb\u30b5\u30fc
p1689
sg14
V1796946
p1690
sa(dp1691
g9
Vcomment
p1692
sg11
Vhttps://movie.douban.com/subject/3003830/
p1693
sg3
V\u604b\u7a7a
p1694
sg14
V3003830
p1695
sa(dp1696
g9
Vcomment
p1697
sg11
Vhttps://movie.douban.com/subject/6973370/
p1698
sg3
V\u518d\u4e5f\u4e0d\u8bf1\u62d0\u4e86 / \u3082\u3046\u8a98\u62d0\u306a\u3093\u3066\u3057\u306a\u3044
p1699
sg14
V6973370
p1700
sa(dp1701
g9
Vcomment
p1702
sg11
Vhttps://movie.douban.com/subject/3335463/
p1703
sg3
V\u4ea4\u54cd\u60c5\u4eba\u68a6 \u6700\u7ec8\u4e50\u7ae0 \u524d\u7bc7 / \u306e\u3060\u3081\u30ab\u30f3\u30bf\u30fc\u30d3\u30ec \u6700\u7d42\u697d\u7ae0 \u524d\u7de8
p1704
sg14
V3335463
p1705
sa(dp1706
g9
Vcomment
p1707
sg11
Vhttps://movie.douban.com/subject/3006302/
p1708
sg3
V\u4ea4\u54cd\u60c5\u4eba\u68a6\u4e4b\u6b27\u6d32\u7279\u522b\u7bc7 / \u306e\u3060\u3081\u30ab\u30f3\u30bf\u30fc\u30d3\u30ec in \u30e8\u30fc\u30ed\u30c3\u30d1
p1709
sg14
V3006302
p1710
sa(dp1711
g9
Vcomment
p1712
sg11
Vhttps://movie.douban.com/subject/4307476/
p1713
sg3
V\u65e0\u6cd5\u5766\u8bda\u76f8\u5bf9 / \u7d20\u76f4\u306b\u306a\u308c\u306a\u304f\u3066
p1714
sg14
V4307476
p1715
sa(dp1716
g9
Vcomment
p1717
sg11
Vhttps://movie.douban.com/subject/1315570/
p1718
sg3
V\u5728\u4e16\u754c\u4e2d\u5fc3\u547c\u5524\u7231 / \u4e16\u754c\u306e\u4e2d\u5fc3\u3067\u3001\u611b\u3092\u3055\u3051\u3076
p1719
sg14
V1315570
p1720
sa(dp1721
g9
Vcomment
p1722
sg11
Vhttps://movie.douban.com/subject/5422105/
p1723
sg3
V\u7a83\u542c\u98ce\u4e912
p1724
sg14
V5422105
p1725
sa(dp1726
g9
Vcomment
p1727
sg11
Vhttps://movie.douban.com/subject/6793351/
p1728
sg3
V\u63a8\u7406\u8981\u5728\u665a\u9910\u540e / \u8b0e\u89e3\u304d\u306f\u30c7\u30a3\u30ca\u30fc\u306e\u3042\u3068\u3067
p1729
sg14
V6793351
p1730
sa(dp1731
g9
Vcomment
p1732
sg11
Vhttps://movie.douban.com/subject/3011091/
p1733
sg3
V\u5fe0\u72ac\u516b\u516c\u7684\u6545\u4e8b / Hachi: A Dog's Tale
p1734
sg14
V3011091
p1735
sa(dp1736
g9
Vcomment
p1737
sg11
Vhttps://movie.douban.com/subject/2149806/
p1738
sg3
V\u5165\u6b93\u5e08 / \u304a\u304f\u308a\u3073\u3068
p1739
sg14
V2149806
p1740
sa(dp1741
g9
Vcomment
p1742
sg11
Vhttps://movie.douban.com/subject/6815102/
p1743
sg3
VHUNTER / HUNTER\uff5e\u305d\u306e\u5973\u305f\u3061\u3001\u8cde\u91d1\u7a3c\u304e\uff5e
p1744
sg14
V6815102
p1745
sa(dp1746
g9
Vcomment
p1747
sg11
Vhttps://movie.douban.com/subject/1465088/
p1748
sg3
V\u6f02\u6d41\u6559\u5ba4 / \u30ed\u30f3\u30b0\u30fb\u30e9\u30d6\u30ec\u30bf\u30fc\u301c\u6f02\u6d41\u6559\u5ba4\u301c
p1749
sg14
V1465088
p1750
sa(dp1751
g9
Vcomment
p1752
sg11
Vhttps://movie.douban.com/subject/4888052/
p1753
sg3
V\u5341\u5e74\u540e\u6211\u4f9d\u7136\u7231\u4f60 / \u5341\u5e74\u5148\u3082\u541b\u306b\u604b\u3057\u3066
p1754
sg14
V4888052
p1755
sa(dp1756
g9
Vcomment
p1757
sg11
Vhttps://movie.douban.com/subject/6861618/
p1758
sg3
V\u771f\u4eba\u7248 \u4e71\u9a6c1/2 / \u3089\u3093\u307e1/2
p1759
sg14
V6861618
p1760
sa(dp1761
g9
Vrating1-t
p1762
sg11
Vhttps://movie.douban.com/subject/5908477/
p1763
sg3
V\u9e3f\u95e8\u5bb4\u4f20\u5947
p1764
sg14
V5908477
p1765
sa(dp1766
g9
Vcomment
p1767
sg11
Vhttps://movie.douban.com/subject/1783772/
p1768
sg3
V\u5df4\u9ece\uff0c\u6211\u7231\u4f60 / Paris, je t'aime
p1769
sg14
V1783772
p1770
sa(dp1771
g9
Vrating1-t
p1772
sg11
Vhttps://movie.douban.com/subject/6068516/
p1773
sg3
V\u4e1c\u6210\u897f\u5c312011
p1774
sg14
V6068516
p1775
sa(dp1776
g9
Vrating1-t
p1777
sg11
Vhttps://movie.douban.com/subject/4191644/
p1778
sg3
V\u4e00\u5929 / One Day
p1779
sg14
V4191644
p1780
sa(dp1781
g9
Vrating2-t
p1782
sg11
Vhttps://movie.douban.com/subject/4172621/
p1783
sg3
V\u5b8c\u7f8e\u5c0f\u59d0\u8fdb\u5316\u8bba / \u30e4\u30de\u30c8\u30ca\u30c7\u30b7\u30b3\u4e03\u5909\u5316
p1784
sg14
V4172621
p1785
sa(dp1786
g9
Vcomment
p1787
sg11
Vhttps://movie.douban.com/subject/4043763/
p1788
sg3
V\u604b\u4eba\u7d6e\u8bed / \u6200\u4eba\u7d6e\u8a9e
p1789
sg14
V4043763
p1790
sa(dp1791
g9
Vrating2-t
p1792
sg11
Vhttps://movie.douban.com/subject/2326676/
p1793
sg3
V\u8d8a\u72f1\u5154 \u7b2c\u4e00\u5b63 / \u30a6\u30b5\u30d3\u30c3\u30c1
p1794
sg14
V2326676
p1795
sa(dp1796
g9
Vcomment
p1797
sg11
Vhttps://movie.douban.com/subject/3075287/
p1798
sg3
V\u6e90\u4ee3\u7801 / Source Code
p1799
sg14
V3075287
p1800
sa(dp1801
g9
Vcomment
p1802
sg11
Vhttps://movie.douban.com/subject/6515363/
p1803
sg3
V\u4eba\u7ea6\u79bb\u5a5a\u540e / \u4eba\u7d04\u96e2\u5a5a\u5f8c
p1804
sg14
V6515363
p1805
sa(dp1806
g9
Vcomment
p1807
sg11
Vhttps://movie.douban.com/subject/1780330/
p1808
sg3
V\u81f4\u547d\u9b54\u672f / The Prestige
p1809
sg14
V1780330
p1810
sa(dp1811
g9
Vcomment
p1812
sg11
Vhttps://movie.douban.com/subject/2078864/
p1813
sg3
V\u7eef\u95fb\u5973\u5b69 \u7b2c\u4e00\u5b63 / Gossip Girl Season 1
p1814
sg14
V2078864
p1815
sa(dp1816
g9
Vrating1-t
p1817
sg11
Vhttps://movie.douban.com/subject/4942778/
p1818
sg3
V\u767d\u86c7\u4f20\u8bf4
p1819
sg14
V4942778
p1820
sa(dp1821
g9
Vcomment
p1822
sg11
Vhttps://movie.douban.com/subject/1865703/
p1823
sg3
V\u7ea2\u8fa3\u6912 / \u30d1\u30d7\u30ea\u30ab
p1824
sg14
V1865703
p1825
sa(dp1826
g9
Vcomment
p1827
sg11
Vhttps://movie.douban.com/subject/1304447/
p1828
sg3
V\u8bb0\u5fc6\u788e\u7247 / Memento
p1829
sg14
V1304447
p1830
sa(dp1831
g9
Vrating1-t
p1832
sg11
Vhttps://movie.douban.com/subject/4942776/
p1833
sg3
V\u6b66\u4fa0
p1834
sg14
V4942776
p1835
sa(dp1836
g9
Vcomment
p1837
sg11
Vhttps://movie.douban.com/subject/6436751/
p1838
sg3
V\u5168\u5f00\u5973\u5b69 / \u5168\u958b\u30ac\u30fc\u30eb
p1839
sg14
V6436751
p1840
sa(dp1841
g9
Vcomment
p1842
sg11
Vhttps://movie.douban.com/subject/2245491/
p1843
sg3
V\u68ee\u4e4b\u7231\u60c5
p1844
sg14
V2245491
p1845
sa(dp1846
g9
Vcomment
p1847
sg11
Vhttps://movie.douban.com/subject/1309163/
p1848
sg3
V\u604b\u604b\u7b14\u8bb0\u672c / The Notebook
p1849
sg14
V1309163
p1850
sa(dp1851
g9
Vcomment
p1852
sg11
Vhttps://movie.douban.com/subject/3813779/
p1853
sg3
V\u5251\u96e8
p1854
sg14
V3813779
p1855
sa(dp1856
g9
Vcomment
p1857
sg11
Vhttps://movie.douban.com/subject/6796160/
p1858
sg3
V\u871c\u6843\u6210\u719f\u65f633D / \u871c\u6843\u6210\u719f\u664233D
p1859
sg14
V6796160
p1860
sa(dp1861
g9
Vcomment
p1862
sg11
Vhttps://movie.douban.com/subject/4319218/
p1863
sg3
V\u5348\u591c\u5df4\u9ece / Midnight in Paris
p1864
sg14
V4319218
p1865
sa(dp1866
g9
Vcomment
p1867
sg11
Vhttps://movie.douban.com/subject/2018131/
p1868
sg3
V\u6c42\u5a5a\u5927\u4f5c\u6218 / \u30d7\u30ed\u30dd\u30fc\u30ba\u5927\u4f5c\u6226
p1869
sg14
V2018131
p1870
sa(dp1871
g9
Vcomment
p1872
sg11
Vhttps://movie.douban.com/subject/2229596/
p1873
sg3
V\u4e1c\u6e38\u8bb0
p1874
sg14
V2229596
p1875
sa(dp1876
g9
Vcomment
p1877
sg11
Vhttps://movie.douban.com/subject/2158156/
p1878
sg3
V\u9876\u7ea7\u64ad\u97f3\u5458 / \u30c8\u30c3\u30d7\u30ad\u30e3\u30b9\u30bf\u30fc
p1879
sg14
V2158156
p1880
sa(dp1881
g9
Vcomment
p1882
sg11
Vhttps://movie.douban.com/subject/2028645/
p1883
sg3
V\u62c6\u5f39\u90e8\u961f / The Hurt Locker
p1884
sg14
V2028645
p1885
sa(dp1886
g9
Vcomment
p1887
sg11
Vhttps://movie.douban.com/subject/2142535/
p1888
sg3
V\u7236\u5973\u4e03\u65e5\u53d8 / \u30d1\u30d1\u3068\u30e0\u30b9\u30e1\u306e7\u65e5\u9593
p1889
sg14
V2142535
p1890
sa(dp1891
g9
Vcomment
p1892
sg11
Vhttps://movie.douban.com/subject/3217122/
p1893
sg3
V\u4e00\u9875\u53f0\u5317 / \u4e00\u9801\u53f0\u5317
p1894
sg14
V3217122
p1895
sa(dp1896
g9
Vcomment
p1897
sg11
Vhttps://movie.douban.com/subject/5908516/
p1898
sg3
V\u767d\u5154\u7cd6 / \u3046\u3055\u304e\u30c9\u30ed\u30c3\u30d7
p1899
sg14
V5908516
p1900
sa(dp1901
g9
Vcomment
p1902
sg11
Vhttps://movie.douban.com/subject/3777800/
p1903
sg3
V\u6708\u6ee1\u8f69\u5c3c\u8bd7 / \u6708\u6eff\u8ed2\u5c3c\u8a69
p1904
sg14
V3777800
p1905
sa(dp1906
g9
Vcomment
p1907
sg11
Vhttps://movie.douban.com/subject/3578981/
p1908
sg3
V\u53f6\u95ee2\uff1a\u5b97\u5e08\u4f20\u5947
p1909
sg14
V3578981
p1910
sa(dp1911
g9
Vrating4-t
p1912
sg11
Vhttps://movie.douban.com/subject/2146991/
p1913
sg3
V\u53d8\u5f62\u91d1\u521a2 / Transformers: Revenge of the Fallen
p1914
sg14
V2146991
p1915
sa(dp1916
g9
Vcomment
p1917
sg11
Vhttps://movie.douban.com/subject/2270380/
p1918
sg3
V\u62b9\u5e03\u5973\u5b69 / \u30e2\u30c3\u30d7\u30ac\u30fc\u30eb
p1919
sg14
V2270380
p1920
sa(dp1921
g9
Vcomment
p1922
sg11
Vhttps://movie.douban.com/subject/4821046/
p1923
sg3
V\u5173\u4e91\u957f
p1924
sg14
V4821046
p1925
sa(dp1926
g9
Vcomment
p1927
sg11
Vhttps://movie.douban.com/subject/5294324/
p1928
sg3
V\u9690\u5a5a\u7537\u5973
p1929
sg14
V5294324
p1930
sa(dp1931
g9
Vcomment
p1932
sg11
Vhttps://movie.douban.com/subject/1292343/
p1933
sg3
V\u8774\u8776\u6548\u5e94 / The Butterfly Effect
p1934
sg14
V1292343
p1935
sa(dp1936
g9
Vcomment
p1937
sg11
Vhttps://movie.douban.com/subject/2065045/
p1938
sg3
V\u7ade\u901f\u4e4b\u738b / \u30b9\u30d4\u30fc\u30c9\u30de\u30b9\u30bf\u30fc
p1939
sg14
V2065045
p1940
sa(dp1941
g9
Vcomment
p1942
sg11
Vhttps://movie.douban.com/subject/4118060/
p1943
sg3
VB+\u4fa6\u63a2 / B+\u5075\u63a2
p1944
sg14
V4118060
p1945
sa(dp1946
g9
Vrating4-t
p1947
sg11
Vhttps://movie.douban.com/subject/2270545/
p1948
sg3
V\u6625\u5149\u707f\u70c2\u732a\u516b\u6212
p1949
sg14
V2270545
p1950
sa(dp1951
g9
Vcomment
p1952
sg11
Vhttps://movie.douban.com/subject/4724739/
p1953
sg3
V\u5355\u8eab\u7537\u5973 / \u55ae\u8eab\u7537\u5973
p1954
sg14
V4724739
p1955
sa(dp1956
g9
Vcomment
p1957
sg11
Vhttps://movie.douban.com/subject/1292052/
p1958
sg3
V\u8096\u7533\u514b\u7684\u6551\u8d4e / The Shawshank Redemption
p1959
sg14
V1292052
p1960
sa(dp1961
g9
Vcomment
p1962
sg11
Vhttps://movie.douban.com/subject/2131640/
p1963
sg3
V\u4eb2\u7231\u7684\u670b\u53cb / Dear Friends \u30c7\u30a3\u30a2\u30d5\u30ec\u30f3\u30ba
p1964
sg14
V2131640
p1965
sa(dp1966
g9
Vrating1-t
p1967
sg11
Vhttps://movie.douban.com/subject/2082013/
p1968
sg3
V\u6b32\u671b\u90fd\u5e02 / Sex and the City
p1969
sg14
V2082013
p1970
sa(dp1971
g9
Vcomment
p1972
sg11
Vhttps://movie.douban.com/subject/1361254/
p1973
sg3
V\u6447\u6446\u5c11\u5973 / \u30b9\u30a6\u30a3\u30f3\u30b0\u30ac\u30fc\u30eb\u30ba
p1974
sg14
V1361254
p1975
sa(dp1976
g9
Vcomment
p1977
sg11
Vhttps://movie.douban.com/subject/1786833/
p1978
sg3
V\u60c5\u5b9a\u5927\u996d\u5e97 / \ud638\ud154\ub9ac\uc5b4
p1979
sg14
V1786833
p1980
sa(dp1981
g9
Vcomment
p1982
sg11
Vhttps://movie.douban.com/subject/3546152/
p1983
sg3
V\u88ab\u8feb\u5f52\u6765\u768433\u5206\u949f\u4fa6\u63a2 / \u5e30\u3063\u3066\u3053\u3055\u305b\u3089\u308c\u305f 33\u5206\u63a2\u5075
p1984
sg14
V3546152
p1985
sa(dp1986
g9
Vcomment
p1987
sg11
Vhttps://movie.douban.com/subject/3395437/
p1988
sg3
V\u5f1f\u5f1f / \u304a\u3068\u3046\u3068
p1989
sg14
V3395437
p1990
sa(dp1991
g9
Vcomment
p1992
sg11
Vhttps://movie.douban.com/subject/4074009/
p1993
sg3
V\u82b1\u6c34\u6728 / \u30cf\u30ca\u30df\u30ba\u30ad
p1994
sg14
V4074009
p1995
sa(dp1996
g9
Vcomment
p1997
sg11
Vhttps://movie.douban.com/subject/1291557/
p1998
sg3
V\u82b1\u6837\u5e74\u534e / \u82b1\u6a23\u5e74\u83ef
p1999
sg14
V1291557
p2000
sa(dp2001
g9
Vcomment
p2002
sg11
Vhttps://movie.douban.com/subject/2023864/
p2003
sg3
V\u4e00\u5e74\u4e4b\u521d
p2004
sg14
V2023864
p2005
sa(dp2006
g9
Vcomment
p2007
sg11
Vhttps://movie.douban.com/subject/1291999/
p2008
sg3
V\u91cd\u5e86\u68ee\u6797 / \u91cd\u6176\u68ee\u6797
p2009
sg14
V1291999
p2010
sa(dp2011
g9
Vcomment
p2012
sg11
Vhttps://movie.douban.com/subject/3156609/
p2013
sg3
V\u5341\u5206\u949f\u60c5 / \u5341\u5206\u937e\u60c5
p2014
sg14
V3156609
p2015
sa(dp2016
g9
Vcomment
p2017
sg11
Vhttps://movie.douban.com/subject/3078609/
p2018
sg3
V\u7231\u60c5\u4e0e\u7075\u836f / Love & Other Drugs
p2019
sg14
V3078609
p2020
sa(dp2021
g9
Vcomment
p2022
sg11
Vhttps://movie.douban.com/subject/1796986/
p2023
sg3
V\u65f6\u6548\u8b66\u5bdf / \u6642\u52b9\u8b66\u5bdf
p2024
sg14
V1796986
p2025
sa(dp2026
g9
Vcomment
p2027
sg11
Vhttps://movie.douban.com/subject/3744603/
p2028
sg3
V\u4e1c\u4eac\u5730\u97078.0 / \u6771\u4eac\u30de\u30b0\u30cb\u30c1\u30e5\u30fc\u30c98.0
p2029
sg14
V3744603
p2030
sa(dp2031
g9
Vcomment
p2032
sg11
Vhttps://movie.douban.com/subject/5977389/
p2033
sg3
V\u6c42\u5a5a\u5144\u5f1f\uff5e\u6309\u51fa\u751f\u987a\u5e8f \u7537\u4eba\u7ed3\u5a5a\u7684\u65b9\u6cd5\uff5e / \u30d7\u30ed\u30dd\u30fc\u30ba\u5144\u5f1f\u301c\u751f\u307e\u308c\u9806\u5225 \u7537\u304c\u7d50\u5a5a\u3059\u308b\u65b9\u6cd5\u301c
p2034
sg14
V5977389
p2035
sa(dp2036
g9
Vcomment
p2037
sg11
Vhttps://movie.douban.com/subject/1478186/
p2038
sg3
V\u5c04\u96d5\u82f1\u96c4\u4f20 / \u5c04\u9d70\u82f1\u96c4\u50b3
p2039
sg14
V1478186
p2040
sa(dp2041
g9
Vcomment
p2042
sg11
Vhttps://movie.douban.com/subject/2416910/
p2043
sg3
V\u4f24 / Kids
p2044
sg14
V2416910
p2045
sa(dp2046
g9
Vcomment
p2047
sg11
Vhttps://movie.douban.com/subject/4268598/
p2048
sg3
V\u544a\u767d
p2049
sg14
V4268598
p2050
sa(dp2051
g9
Vrating4-t
p2052
sg11
Vhttps://movie.douban.com/subject/3062897/
p2053
sg3
V\u846b\u82a6\u5144\u5f1f
p2054
sg14
V3062897
p2055
sa(dp2056
g9
Vcomment
p2057
sg11
Vhttps://movie.douban.com/subject/1794171/
p2058
sg3
V\u53d8\u5f62\u91d1\u521a / Transformers
p2059
sg14
V1794171
p2060
sa(dp2061
g9
Vcomment
p2062
sg11
Vhttps://movie.douban.com/subject/4271832/
p2063
sg3
V\u5b8c\u7f8e\u5ac1\u8863 / \u62b1\u62b1\u4fcf\u4f73\u4eba
p2064
sg14
V4271832
p2065
sa(dp2066
g9
Vcomment
p2067
sg11
Vhttps://movie.douban.com/subject/1307106/
p2068
sg3
V\u65e0\u95f4\u90532 / \u7121\u9593\u9053II
p2069
sg14
V1307106
p2070
sa(dp2071
g9
Vcomment
p2072
sg11
Vhttps://movie.douban.com/subject/3041806/
p2073
sg3
V\u53f6\u95ee / \u8449\u554f
p2074
sg14
V3041806
p2075
sa(dp2076
g9
Vcomment
p2077
sg11
Vhttps://movie.douban.com/subject/1433360/
p2078
sg3
V\u96cf\u83ca / \ub370\uc774\uc9c0
p2079
sg14
V1433360
p2080
sa(dp2081
g9
Vcomment
p2082
sg11
Vhttps://movie.douban.com/subject/1927686/
p2083
sg3
V\u7231\u60c5\u547c\u53eb\u8f6c\u79fb
p2084
sg14
V1927686
p2085
sa(dp2086
g9
Vcomment
p2087
sg11
Vhttps://movie.douban.com/subject/3836187/
p2088
sg3
V\u706b\u5929\u4e4b\u57ce / \u706b\u5929\u306e\u57ce
p2089
sg14
V3836187
p2090
sa(dp2091
g9
Vcomment
p2092
sg11
Vhttps://movie.douban.com/subject/1297258/
p2093
sg3
V\u65b0\u706b\u70e7\u7ea2\u83b2\u5bfa
p2094
sg14
V1297258
p2095
sa(dp2096
g9
Vcomment
p2097
sg11
Vhttps://movie.douban.com/subject/3991933/
p2098
sg3
V\u6df1\u591c\u98df\u5802
p2099
sg14
V3991933
p2100
sa(dp2101
g9
Vcomment
p2102
sg11
Vhttps://movie.douban.com/subject/1298898/
p2103
sg3
V\u6697\u6218 / \u6697\u6230
p2104
sg14
V1298898
p2105
sa(dp2106
g9
Vrating2-t
p2107
sg11
Vhttps://movie.douban.com/subject/3027015/
p2108
sg3
V\u4e16\u754c\u5947\u5999\u7269\u8bed 2008\u6625\u4e4b\u7279\u522b\u7bc7 / \u4e16\u306b\u3082\u5947\u5999\u306a\u7269\u8a9e 08\u6625\u306e\u7279\u5225\u7de8
p2109
sg14
V3027015
p2110
sa(dp2111
g9
Vcomment
p2112
sg11
Vhttps://movie.douban.com/subject/3732780/
p2113
sg3
V\u7b2c36\u4e2a\u6545\u4e8b
p2114
sg14
V3732780
p2115
sa(dp2116
g9
Vcomment
p2117
sg11
Vhttps://movie.douban.com/subject/1796245/
p2118
sg3
V\u53d8\u8eab / \u5909\u8eab
p2119
sg14
V1796245
p2120
sa(dp2121
g9
Vrating3-t
p2122
sg11
Vhttps://movie.douban.com/subject/2053668/
p2123
sg3
V\u5bc4\u751f\u4eba
p2124
sg14
V2053668
p2125
sa(dp2126
g9
Vcomment
p2127
sg11
Vhttps://movie.douban.com/subject/1796939/
p2128
sg3
V\u6b7b\u4ea1\u7b14\u8bb0\uff1a\u6700\u540e\u7684\u540d\u5b57 / \u30c7\u30b9\u30ce\u30fc\u30c8 the Last name
p2129
sg14
V1796939
p2130
sa(dp2131
g9
Vrating4-t
p2132
sg11
Vhttps://movie.douban.com/subject/1867408/
p2133
sg3
V\u4f24\u57ce
p2134
sg14
V1867408
p2135
sa(dp2136
g9
Vcomment
p2137
sg11
Vhttps://movie.douban.com/subject/1419581/
p2138
sg3
V\u5343\u676f\u4e0d\u9189
p2139
sg14
V1419581
p2140
sa(dp2141
g9
Vrating4-t
p2142
sg11
Vhttps://movie.douban.com/subject/1303674/
p2143
sg3
V\u5e72\u67f4\u70c8\u706b / \u4e7e\u67f4\u70c8\u706b
p2144
sg14
V1303674
p2145
sa(dp2146
g9
Vrating3-t
p2147
sg11
Vhttps://movie.douban.com/subject/1853160/
p2148
sg3
V\u72d7\u54ac\u72d7
p2149
sg14
V1853160
p2150
sa(dp2151
g9
Vcomment
p2152
sg11
Vhttps://movie.douban.com/subject/5344178/
p2153
sg3
V11\u5ea6\u9752\u6625\u4e4b\u300a\u8001\u7537\u5b69\u300b
p2154
sg14
V5344178
p2155
sa(dp2156
g9
Vcomment
p2157
sg11
Vhttps://movie.douban.com/subject/1307449/
p2158
sg3
V\u516d\u697c\u540e\u5ea7 / \u516d\u6a13\u5f8c\u5ea7
p2159
sg14
V1307449
p2160
sa(dp2161
g9
Vcomment
p2162
sg11
Vhttps://movie.douban.com/subject/3077791/
p2163
sg3
V\u5728\u4e91\u7aef / Up in the Air
p2164
sg14
V3077791
p2165
sa(dp2166
g9
Vcomment
p2167
sg11
Vhttps://movie.douban.com/subject/2361826/
p2168
sg3
V\u5982\u6708\u7591\u4e91 / \u30ad\u30b5\u30e9\u30ae
p2169
sg14
V2361826
p2170
sa(dp2171
g9
Vcomment
p2172
sg11
Vhttps://movie.douban.com/subject/4139888/
p2173
sg3
V\u7a7f\u8d8a\u65f6\u7a7a\u7684\u5c11\u5973 / \u6642\u3092\u304b\u3051\u308b\u5c11\u5973
p2174
sg14
V4139888
p2175
sa(dp2176
g9
Vcomment
p2177
sg11
Vhttps://movie.douban.com/subject/4862213/
p2178
sg3
V\u6843\u82b1\u671f / \u30e2\u30c6\u30ad
p2179
sg14
V4862213
p2180
sa(dp2181
g9
Vcomment
p2182
sg11
Vhttps://movie.douban.com/subject/2035594/
p2183
sg3
V\u5929\u624d\u5609\u5e74\u534e / Genius Party
p2184
sg14
V2035594
p2185
sa(dp2186
g9
Vrating3-t
p2187
sg11
Vhttps://movie.douban.com/subject/1498818/
p2188
sg3
V\u901a\u5929\u5854 / Babel
p2189
sg14
V1498818
p2190
sa(dp2191
g9
Vcomment
p2192
sg11
Vhttps://movie.douban.com/subject/4739986/
p2193
sg3
V\u4e1c\u98ce\u7834 / \u6771\u98a8\u7834
p2194
sg14
V4739986
p2195
sa(dp2196
g9
Vcomment
p2197
sg11
Vhttps://movie.douban.com/subject/4145476/
p2198
sg3
V\u5f97\u95f2\u7092\u996d / \u5f97\u9592\u7092\u98ef
p2199
sg14
V4145476
p2200
sa(dp2201
g9
Vrating4-t
p2202
sg11
Vhttps://movie.douban.com/subject/4888039/
p2203
sg3
V\u5c0f\u80d6\u599e
p2204
sg14
V4888039
p2205
sa(dp2206
g9
Vcomment
p2207
sg11
Vhttps://movie.douban.com/subject/4709904/
p2208
sg3
V\u524d\u5ea6
p2209
sg14
V4709904
p2210
sa(dp2211
g9
Vcomment
p2212
sg11
Vhttps://movie.douban.com/subject/4312232/
p2213
sg3
V\u4eba\u95f4\u559c\u5267 / \u4eba\u9593\u559c\u5287
p2214
sg14
V4312232
p2215
sa(dp2216
g9
Vcomment
p2217
sg11
Vhttps://movie.douban.com/subject/3788587/
p2218
sg3
V\u518d\u751f\u53f7 / \u518d\u751f\u865f
p2219
sg14
V3788587
p2220
sa(dp2221
g9
Vrating3-t
p2222
sg11
Vhttps://movie.douban.com/subject/2044102/
p2223
sg3
V\u5bfc\u706b\u7ebf / \u5c0e\u706b\u7dda
p2224
sg14
V2044102
p2225
sa(dp2226
g9
Vrating3-t
p2227
sg11
Vhttps://movie.douban.com/subject/1859036/
p2228
sg3
V\u5b9d\u8d1d\u8ba1\u5212 / \u5bf6\u8c9d\u8a08\u5283
p2229
sg14
V1859036
p2230
sa(dp2231
g9
Vrating3-t
p2232
sg11
Vhttps://movie.douban.com/subject/1478926/
p2233
sg3
V\u9f99\u864e\u95e8
p2234
sg14
V1478926
p2235
sa(dp2236
g9
Vcomment
p2237
sg11
Vhttps://movie.douban.com/subject/1788392/
p2238
sg3
V\u591c\u4e0a\u6d77
p2239
sg14
V1788392
p2240
sa(dp2241
g9
Vcomment
p2242
sg11
Vhttps://movie.douban.com/subject/1427834/
p2243
sg3
V\u7ae5\u68a6\u5947\u7f18
p2244
sg14
V1427834
p2245
sa(dp2246
g9
Vrating3-t
p2247
sg11
Vhttps://movie.douban.com/subject/1947114/
p2248
sg3
V\u8ddf\u8e2a / \u8ddf\u8e64
p2249
sg14
V1947114
p2250
sa(dp2251
g9
Vcomment
p2252
sg11
Vhttps://movie.douban.com/subject/1463787/
p2253
sg3
V\u68d2\u7403\u82f1\u8c6a / \u30bf\u30c3\u30c1
p2254
sg14
V1463787
p2255
sa(dp2256
g9
Vcomment
p2257
sg11
Vhttps://movie.douban.com/subject/3552307/
p2258
sg3
V\u7ec3\u604b\u821e / \u7df4\u6200\u821e
p2259
sg14
V3552307
p2260
sa(dp2261
g9
Vcomment
p2262
sg11
Vhttps://movie.douban.com/subject/4160441/
p2263
sg3
V\u54c6\u5566A\u68a6\uff1a\u5927\u96c4\u7684\u4eba\u9c7c\u5927\u6d77\u6218 / \u6620\u753b\u30c9\u30e9\u3048\u3082\u3093 \u306e\u3073\u592a\u306e\u4eba\u9b5a\u5927\u6d77\u6226
p2264
sg14
V4160441
p2265
sa(dp2266
g9
Vcomment
p2267
sg11
Vhttps://movie.douban.com/subject/3250484/
p2268
sg3
V\u771f\u6211\u9713\u88f3 SP / \u30ea\u30a2\u30eb\u30fb\u30af\u30ed\u30fc\u30ba SP
p2269
sg14
V3250484
p2270
sa(dp2271
g9
Vcomment
p2272
sg11
Vhttps://movie.douban.com/subject/2042193/
p2273
sg3
V\u604b\u7231\u90e8\u5c4b / \u604b\u3059\u308b\u30de\u30c9\u30ea
p2274
sg14
V2042193
p2275
sa(dp2276
g9
Vcomment
p2277
sg11
Vhttps://movie.douban.com/subject/4061061/
p2278
sg3
V\u7d27\u6025\u6551\u547d2 / \u30b3\u30fc\u30c9\u30fb\u30d6\u30eb\u30fc\uff5e\u30c9\u30af\u30bf\u30fc\u30d8\u30ea\u7dca\u6025\u6551\u547d 2nd season
p2279
sg14
V4061061
p2280
sa(dp2281
g9
Vcomment
p2282
sg11
Vhttps://movie.douban.com/subject/1978709/
p2283
sg3
V\u9ed1\u5929\u9e45 / Black Swan
p2284
sg14
V1978709
p2285
sa(dp2286
g9
Vcomment
p2287
sg11
Vhttps://movie.douban.com/subject/3335464/
p2288
sg3
V\u4ea4\u54cd\u60c5\u4eba\u68a6 \u6700\u7ec8\u4e50\u7ae0 \u540e\u7bc7 / \u306e\u3060\u3081\u30ab\u30f3\u30bf\u30fc\u30d3\u30ec \u6700\u7d42\u697d\u7ae0 \u5f8c\u7de8
p2289
sg14
V3335464
p2290
sa(dp2291
g9
Vcomment
p2292
sg11
Vhttps://movie.douban.com/subject/1783457/
p2293
sg3
V\u529f\u592b\u718a\u732b / Kung Fu Panda
p2294
sg14
V1783457
p2295
sa(dp2296
g9
Vcomment
p2297
sg11
Vhttps://movie.douban.com/subject/3792799/
p2298
sg3
V\u5c81\u6708\u795e\u5077 / \u6b72\u6708\u795e\u5077
p2299
sg14
V3792799
p2300
sa(dp2301
g9
Vcomment
p2302
sg11
Vhttps://movie.douban.com/subject/3908423/
p2303
sg3
V\u590f\u65e5\u5927\u4f5c\u6218 / \u30b5\u30de\u30fc\u30a6\u30a9\u30fc\u30ba
p2304
sg14
V3908423
p2305
sa(dp2306
g9
Vcomment
p2307
sg11
Vhttps://movie.douban.com/subject/3742360/
p2308
sg3
V\u8ba9\u5b50\u5f39\u98de
p2309
sg14
V3742360
p2310
sa(dp2311
g9
Vcomment
p2312
sg11
Vhttps://movie.douban.com/subject/3239700/
p2313
sg3
V\u7d27\u6025\u6551\u547d \u65b0\u6625\u7279\u522b\u7bc7 / \u30b3\u30fc\u30c9\u30fb\u30d6\u30eb\u30fc -\u30c9\u30af\u30bf\u30fc\u30d8\u30ea\u7dca\u6025\u6551\u547d- \u65b0\u6625\u30b9\u30da\u30b7\u30e3\u30eb
p2314
sg14
V3239700
p2315
sa(dp2316
g9
Vcomment
p2317
sg11
Vhttps://movie.douban.com/subject/1915403/
p2318
sg3
V\u53ea\u662f\u7231\u7740\u4f60 / \u305f\u3060\u3001\u541b\u3092\u611b\u3057\u3066\u308b
p2319
sg14
V1915403
p2320
sa(dp2321
g9
Vrating5-t
p2322
sg11
Vhttps://movie.douban.com/subject/2282477/
p2323
sg3
V\u6b66\u6797\u5916\u53f2
p2324
sg14
V2282477
p2325
sa(dp2326
g9
Vrating5-t
p2327
sg11
Vhttps://movie.douban.com/subject/1786735/
p2328
sg3
V\u501a\u5929\u5c60\u9f99\u8bb0 / \u501a\u5929\u5c60\u9f8d\u8a18
p2329
sg14
V1786735
p2330
sa(dp2331
g9
Vcomment
p2332
sg11
Vhttps://movie.douban.com/subject/3212120/
p2333
sg3
V\u4e5d\u964d\u98ce / \u4e5d\u964d\u98a8
p2334
sg14
V3212120
p2335
sa(dp2336
g9
Vrating5-t
p2337
sg11
Vhttps://movie.douban.com/subject/4917705/
p2338
sg3
VSPEC / SPEC\u301c\u8b66\u8996\u5e81\u516c\u5b89\u90e8\u516c\u5b89\u7b2c\u4e94\u8ab2 \u672a\u8a73\u4e8b\u4ef6\u7279\u5225\u5bfe\u7b56\u4fc2\u4e8b\u4ef6\u7c3f\u301c
p2339
sg14
V4917705
p2340
sa(dp2341
g9
Vrating5-t
p2342
sg11
Vhttps://movie.douban.com/subject/2355732/
p2343
sg3
V\u4e00\u5bb6\u4e4b\u4e3b
p2344
sg14
V2355732
p2345
sa(dp2346
g9
Vcomment
p2347
sg11
Vhttps://movie.douban.com/subject/3718665/
p2348
sg3
V\u8bc8\u6b3a\u6e38\u620f \u7535\u5f71\u7248 / \u30e9\u30a4\u30a2\u30fc\u30b2\u30fc\u30e0\u3000\u30b6\u30fb\u30d5\u30a1\u30a4\u30ca\u30eb\u30b9\u30c6\u30fc\u30b8
p2349
sg14
V3718665
p2350
sa(dp2351
g9
Vrating4-t
p2352
sg11
Vhttps://movie.douban.com/subject/2995112/
p2353
sg3
V\u5929\u4e0b\u65e0\u53cc
p2354
sg14
V2995112
p2355
sa(dp2356
g9
Vrating3-t
p2357
sg11
Vhttps://movie.douban.com/subject/3647523/
p2358
sg3
V\u91d1\u94b1\u5e1d\u56fd
p2359
sg14
V3647523
p2360
sa(dp2361
g9
Vrating5-t
p2362
sg11
Vhttps://movie.douban.com/subject/4176688/
p2363
sg3
V\u641e\u7b11\u6f2b\u753b\u65e5\u548c4 / \u30ae\u30e3\u30b0\u30de\u30f3\u30ac\u65e5\u548c+
p2364
sg14
V4176688
p2365
sa(dp2366
g9
Vrating5-t
p2367
sg11
Vhttps://movie.douban.com/subject/3017339/
p2368
sg3
V\u641e\u7b11\u6f2b\u753b\u65e5\u548c3 / \u30ae\u30e3\u30b0\u30de\u30f3\u30ac\u65e5\u548c3
p2369
sg14
V3017339
p2370
sa(dp2371
g9
Vrating5-t
p2372
sg11
Vhttps://movie.douban.com/subject/2249535/
p2373
sg3
V\u641e\u7b11\u6f2b\u753b\u65e5\u548c2 / \u30ae\u30e3\u30b0\u30de\u30f3\u30ac\u65e5\u548c2
p2374
sg14
V2249535
p2375
sa(dp2376
g9
Vrating5-t
p2377
sg11
Vhttps://movie.douban.com/subject/2249531/
p2378
sg3
V\u641e\u7b11\u6f2b\u753b\u65e5\u548c / \u30ae\u30e3\u30b0\u30de\u30f3\u30ac\u65e5\u548c
p2379
sg14
V2249531
p2380
sa(dp2381
g9
Vrating3-t
p2382
sg11
Vhttps://movie.douban.com/subject/3134345/
p2383
sg3
V\u5495\u5495\u662f\u4e00\u53ea\u732b / \u30b0\u30fc\u30b0\u30fc\u3060\u3063\u3066\u732b\u3067\u3042\u308b
p2384
sg14
V3134345
p2385
sa(dp2386
g9
Vcomment
p2387
sg11
Vhttps://movie.douban.com/subject/1428291/
p2388
sg3
VJose\u4e0e\u864e\u4e0e\u9c7c\u4eec / \u30b8\u30e7\u30bc\u3068\u864e\u3068\u9c7c\u305f\u3061
p2389
sg14
V1428291
p2390
sa(dp2391
g9
Vcomment
p2392
sg11
Vhttps://movie.douban.com/subject/3642866/
p2393
sg3
V\u7ef4\u591a\u5229\u4e9a\u4e00\u53f7 / \u7dad\u591a\u5229\u4e9e\u58f9\u865f
p2394
sg14
V3642866
p2395
sa(dp2396
g9
Vcomment
p2397
sg11
Vhttps://movie.douban.com/subject/4843013/
p2398
sg3
V\u6e05\u871c\u661f\u4f53\u9a8c
p2399
sg14
V4843013
p2400
sa(dp2401
g9
Vcomment
p2402
sg11
Vhttps://movie.douban.com/subject/3737102/
p2403
sg3
V\u824b\u823a
p2404
sg14
V3737102
p2405
sa(dp2406
g9
Vcomment
p2407
sg11
Vhttps://movie.douban.com/subject/1291856/
p2408
sg3
V\u620f\u68a6\u5df4\u9ece / The Dreamers
p2409
sg14
V1291856
p2410
sa(dp2411
g9
Vrating1-t
p2412
sg11
Vhttps://movie.douban.com/subject/3990500/
p2413
sg3
V\u673a\u5668\u4fa0
p2414
sg14
V3990500
p2415
sa(dp2416
g9
Vrating5-t
p2417
sg11
Vhttps://movie.douban.com/subject/1299059/
p2418
sg3
V\u501a\u5929\u5c60\u9f99\u8bb0\u4e4b\u9b54\u6559\u6559\u4e3b / \u501a\u5929\u5c60\u9f8d\u8a18\u4e4b\u9b54\u6559\u6559\u4e3b
p2419
sg14
V1299059
p2420
sa(dp2421
g9
Vcomment
p2422
sg11
Vhttps://movie.douban.com/subject/3184587/
p2423
sg3
V\u592a\u9633\u4e0e\u6d77\u7684\u6559\u5ba4 / \u592a\u967d\u3068\u6d77\u306e\u6559\u5ba4
p2424
sg14
V3184587
p2425
sa(dp2426
g9
Vcomment
p2427
sg11
Vhttps://movie.douban.com/subject/4196129/
p2428
sg3
V\u5929\u4f7f\u4e4b\u604b / \u5929\u4f7f\u306e\u604b
p2429
sg14
V4196129
p2430
sa(dp2431
g9
Vrating5-t
p2432
sg11
Vhttps://movie.douban.com/subject/3541415/
p2433
sg3
V\u76d7\u68a6\u7a7a\u95f4 / Inception
p2434
sg14
V3541415
p2435
sa(dp2436
g9
Vrating1-t
p2437
sg11
Vhttps://movie.douban.com/subject/4151110/
p2438
sg3
V\u5c71\u6942\u6811\u4e4b\u604b
p2439
sg14
V4151110
p2440
sa(dp2441
g9
Vcomment
p2442
sg11
Vhttps://movie.douban.com/subject/2042235/
p2443
sg3
V\u7b49\u5f85\uff0c\u53ea\u4e3a\u4e0e\u4f60\u76f8\u9047 / \u305d\u306e\u3068\u304d\u306f\u5f7c\u306b\u3088\u308d\u3057\u304f
p2444
sg14
V2042235
p2445
sa(dp2446
g9
Vcomment
p2447
sg11
Vhttps://movie.douban.com/subject/4896296/
p2448
sg3
VOh!\u6211\u7684\u6c42\u5a5a / Oh\uff01my PROPOSE
p2449
sg14
V4896296
p2450
sa(dp2451
g9
Vcomment
p2452
sg11
Vhttps://movie.douban.com/subject/4011034/
p2453
sg3
V\u5927\u5973\u5f53\u5ac1
p2454
sg14
V4011034
p2455
sa(dp2456
g9
Vcomment
p2457
sg11
Vhttps://movie.douban.com/subject/1293359/
p2458
sg3
V\u83ca\u6b21\u90ce\u7684\u590f\u5929 / \u83ca\u6b21\u90ce\u306e\u590f
p2459
sg14
V1293359
p2460
sa(dp2461
g9
Vcomment
p2462
sg11
Vhttps://movie.douban.com/subject/1937946/
p2463
sg3
V\u7a7f\u8d8a\u65f6\u7a7a\u7684\u5c11\u5973 / \u6642\u3092\u304b\u3051\u308b\u5c11\u5973
p2464
sg14
V1937946
p2465
sa(dp2466
g9
Vcomment
p2467
sg11
Vhttps://movie.douban.com/subject/1915312/
p2468
sg3
V\u9f99\u6a31 / \u30c9\u30e9\u30b4\u30f3\u685c
p2469
sg14
V1915312
p2470
sa(dp2471
g9
Vrating5-t
p2472
sg11
Vhttps://movie.douban.com/subject/3733799/
p2473
sg3
V\u6539\u53d8\u4eba\u7c7b\u7684\u8d5b\u535a\u683c\u6280\u672f / \u7acb\u82b1\u9686 \u6700\u524d\u7dda\u5831\u544a \u30b5\u30a4\u30dc\u30fc\u30b0\u6280\u8853\u304c\u4eba\u985e\u3092\u5909\u3048\u308b
p2474
sg14
V3733799
p2475
sa(dp2476
g9
Vcomment
p2477
sg11
Vhttps://movie.douban.com/subject/2147129/
p2478
sg3
V\u8424\u4e4b\u5149 / \u30db\u30bf\u30eb\u30ce\u30d2\u30ab\u30ea
p2479
sg14
V2147129
p2480
sa(dp2481
g9
Vrating4-t
p2482
sg11
Vhttps://movie.douban.com/subject/2270496/
p2483
sg3
V\u9752\u7a7a
p2484
sg14
V2270496
p2485
sa(dp2486
g9
Vrating4-t
p2487
sg11
Vhttps://movie.douban.com/subject/4226741/
p2488
sg3
V\u674e\u732e\u8ba1\u5386\u9669\u8bb0
p2489
sg14
V4226741
p2490
sa(dp2491
g9
Vcomment
p2492
sg11
Vhttps://movie.douban.com/subject/3182493/
p2493
sg3
V\u767e\u5206\u767e\u611f\u89c9 / \u767e\u5206\u767e\u611f\u89ba
p2494
sg14
V3182493
p2495
sa(dp2496
g9
Vrating3-t
p2497
sg11
Vhttps://movie.douban.com/subject/3811342/
p2498
sg3
VLaughing Gor\u4e4b\u53d8\u8282 / Laughing Gor\u4e4b\u8b8a\u7bc0
p2499
sg14
V3811342
p2500
sa(dp2501
g9
Vcomment
p2502
sg11
Vhttps://movie.douban.com/subject/2993217/
p2503
sg3
V\u672a\u6765\u6218\u8b66 / Surrogates
p2504
sg14
V2993217
p2505
sa(dp2506
g9
Vcomment
p2507
sg11
Vhttps://movie.douban.com/subject/2081098/
p2508
sg3
V\u6e3a\u6e3a
p2509
sg14
V2081098
p2510
sa(dp2511
g9
Vrating5-t
p2512
sg11
Vhttps://movie.douban.com/subject/1302425/
p2513
sg3
V\u559c\u5267\u4e4b\u738b / \u559c\u5287\u4e4b\u738b
p2514
sg14
V1302425
p2515
sa(dp2516
g9
Vcomment
p2517
sg11
Vhttps://movie.douban.com/subject/3011225/
p2518
sg3
V\u6700\u540e\u7684\u670b\u53cb / \u30e9\u30b9\u30c8\u30fb\u30d5\u30ec\u30f3\u30ba
p2519
sg14
V3011225
p2520
sa(dp2521
g9
Vrating3-t
p2522
sg11
Vhttps://movie.douban.com/subject/1308843/
p2523
sg3
V\u6211\uff0c\u673a\u5668\u4eba / I, Robot
p2524
sg14
V1308843
p2525
sa(dp2526
g9
Vrating4-t
p2527
sg11
Vhttps://movie.douban.com/subject/2000271/
p2528
sg3
V\u4e00\u9a91\u5f53\u5343 / \u4e00\u9a0e\u5f53\u5343
p2529
sg14
V2000271
p2530
sa(dp2531
g9
Vrating5-t
p2532
sg11
Vhttps://movie.douban.com/subject/3734350/
p2533
sg3
V\u66b4\u529b\u4e91\u4e0e\u9001\u5b50\u9e73 / Partly Cloudy
p2534
sg14
V3734350
p2535
sa(dp2536
g9
Vrating1-t
p2537
sg11
Vhttps://movie.douban.com/subject/3193266/
p2538
sg3
V\u5929\u9ed1\uff0e\u590f\u5348\uff0e\u9616\u5bb6\u89c2\u8d4f
p2539
sg14
V3193266
p2540
sa(dp2541
g9
Vcomment
p2542
sg11
Vhttps://movie.douban.com/subject/3218596/
p2543
sg3
V\u4f3d\u5229\u7565\u7279\u522b\u7bc7 / \u30ac\u30ea\u30ec\u30aa\u03a6
p2544
sg14
V3218596
p2545
sa(dp2546
g9
Vrating3-t
p2547
sg11
Vhttps://movie.douban.com/subject/3290456/
p2548
sg3
V\u7edd\u4ee3\u53cc\u5a07 / \u7d55\u4ee3\u96d9\u5b0c
p2549
sg14
V3290456
p2550
sa(dp2551
g9
Vrating4-t
p2552
sg11
Vhttps://movie.douban.com/subject/2228624/
p2553
sg3
V\u918b\u6e9c\u65cf
p2554
sg14
V2228624
p2555
sa(dp2556
g9
Vrating4-t
p2557
sg11
Vhttps://movie.douban.com/subject/3102668/
p2558
sg3
V\u5929\u964d\u7f8e\u98df / Cloudy with a Chance of Meatballs
p2559
sg14
V3102668
p2560
sa(dp2561
g9
Vrating5-t
p2562
sg11
Vhttps://movie.douban.com/subject/4305436/
p2563
sg3
V\u5fd7\u660e\u4e0e\u6625\u5a07 / \u5fd7\u660e\u8207\u6625\u5b0c
p2564
sg14
V4305436
p2565
sa(dp2566
g9
Vrating4-t
p2567
sg11
Vhttps://movie.douban.com/subject/3442220/
p2568
sg3
V\u6d77\u8c5a\u6e7e / The Cove
p2569
sg14
V3442220
p2570
sa(dp2571
g9
Vrating5-t
p2572
sg11
Vhttps://movie.douban.com/subject/3148748/
p2573
sg3
V\u6d77\u6241\u738b / Kick-Ass
p2574
sg14
V3148748
p2575
sa(dp2576
g9
Vrating3-t
p2577
sg11
Vhttps://movie.douban.com/subject/4720806/
p2578
sg3
V\u5973\u5e1d \u85b0\u5b50 / \u5973\u5e1d \u85ab\u5b50
p2579
sg14
V4720806
p2580
sa(dp2581
g9
Vcomment
p2582
sg11
Vhttps://movie.douban.com/subject/1299661/
p2583
sg3
V\u82cf\u5dde\u6cb3
p2584
sg14
V1299661
p2585
sa(dp2586
g9
Vrating4-t
p2587
sg11
Vhttps://movie.douban.com/subject/1432146/
p2588
sg3
V\u94a2\u94c1\u4fa0 / Iron Man
p2589
sg14
V1432146
p2590
sa(dp2591
g9
Vcomment
p2592
sg11
Vhttps://movie.douban.com/subject/2032996/
p2593
sg3
V\u6599\u7406\u65b0\u9c9c\u4eba / \u30d0\u30f3\u30d3\u301c\u30ce!
p2594
sg14
V2032996
p2595
sa(dp2596
g9
Vcomment
p2597
sg11
Vhttps://movie.douban.com/subject/2279829/
p2598
sg3
V\u5927\u7ea2\u706f\u7b3c\u9ad8\u9ad8\u6302 / \u5927\u7d05\u71c8\u7c60\u9ad8\u9ad8\u639b
p2599
sg14
V2279829
p2600
sa(dp2601
g9
Vrating5-t
p2602
sg11
Vhttps://movie.douban.com/subject/1830563/
p2603
sg3
V\u4e00\u8def\u98ce\u5c18 / \u4e00\u8def\u98a8\u5875
p2604
sg14
V1830563
p2605
sa(dp2606
g9
Vcomment
p2607
sg11
Vhttps://movie.douban.com/subject/3312344/
p2608
sg3
V\u8bc1\u4eba
p2609
sg14
V3312344
p2610
sa(dp2611
g9
Vcomment
p2612
sg11
Vhttps://movie.douban.com/subject/1463872/
p2613
sg3
V\u661f\u4e4b\u58f0 / \u307b\u3057\u306e\u3053\u3048
p2614
sg14
V1463872
p2615
sa(dp2616
g9
Vrating5-t
p2617
sg11
Vhttps://movie.douban.com/subject/1830558/
p2618
sg3
V\u795e\u96d5\u4fa0\u4fa3
p2619
sg14
V1830558
p2620
sa(dp2621
g9
Vrating2-t
p2622
sg11
Vhttps://movie.douban.com/subject/4300525/
p2623
sg3
V\u5f85\u4e1a\u9752\u5e74
p2624
sg14
V4300525
p2625
sa(dp2626
g9
Vrating5-t
p2627
sg11
Vhttps://movie.douban.com/subject/1388216/
p2628
sg3
V\u649e\u8f66 / Crash
p2629
sg14
V1388216
p2630
sa(dp2631
g9
Vcomment
p2632
sg11
Vhttps://movie.douban.com/subject/1305164/
p2633
sg3
V\u751c\u871c\u871c
p2634
sg14
V1305164
p2635
sa(dp2636
g9
Vcomment
p2637
sg11
Vhttps://movie.douban.com/subject/3279107/
p2638
sg3
V\u5927\u5175\u5c0f\u5c06
p2639
sg14
V3279107
p2640
sa(dp2641
g9
Vcomment
p2642
sg11
Vhttps://movie.douban.com/subject/2369845/
p2643
sg3
V\u5acc\u7591\u4ebaX\u7684\u732e\u8eab / \u5bb9\u7591\u8005X\u306e\u732e\u8eab
p2644
sg14
V2369845
p2645
sa(dp2646
g9
Vcomment
p2647
sg11
Vhttps://movie.douban.com/subject/3156600/
p2648
sg3
V\u5f39\uff0e\u9053
p2649
sg14
V3156600
p2650
sa(dp2651
g9
Vcomment
p2652
sg11
Vhttps://movie.douban.com/subject/3073124/
p2653
sg3
V\u6708\u7403 / Moon
p2654
sg14
V3073124
p2655
sa(dp2656
g9
Vcomment
p2657
sg11
Vhttps://movie.douban.com/subject/2018076/
p2658
sg3
V\u8bc8\u6b3a\u6e38\u620f / \u30e9\u30a4\u30a2\u30fc\u30b2\u30fc\u30e0
p2659
sg14
V2018076
p2660
sa(dp2661
g9
Vcomment
p2662
sg11
Vhttps://movie.douban.com/subject/4062922/
p2663
sg3
V72\u5bb6\u79df\u5ba2
p2664
sg14
V4062922
p2665
sa(dp2666
g9
Vcomment
p2667
sg11
Vhttps://movie.douban.com/subject/1807495/
p2668
sg3
V\u590f\u65e5\u65f6\u5149\u673a / \u30b5\u30de\u30fc\u30bf\u30a4\u30e0\u30de\u30b7\u30f3\u30fb\u30d6\u30eb\u30fc\u30b9
p2669
sg14
V1807495
p2670
sa(dp2671
g9
Vcomment
p2672
sg11
Vhttps://movie.douban.com/subject/3184572/
p2673
sg3
V\u7d27\u6025\u6551\u547d / \u30b3\u30fc\u30c9\u30fb\u30d6\u30eb\u30fc -\u30c9\u30af\u30bf\u30fc\u30d8\u30ea\u7dca\u6025\u6551\u547d-
p2674
sg14
V3184572
p2675
sa(dp2676
g9
Vcomment
p2677
sg11
Vhttps://movie.douban.com/subject/1828115/
p2678
sg3
V\u8272\uff0c\u6212
p2679
sg14
V1828115
p2680
sa(dp2681
g9
Vrating5-t
p2682
sg11
Vhttps://movie.douban.com/subject/1294194/
p2683
sg3
V\u60b2\u60c5\u57ce\u5e02
p2684
sg14
V1294194
p2685
sa(dp2686
g9
Vrating4-t
p2687
sg11
Vhttps://movie.douban.com/subject/3168993/
p2688
sg3
V\u6c42\u5a5a\u5927\u4f5c\u6218\u7279\u522b\u7bc7 / \u30d7\u30ed\u30dd\u30fc\u30ba\u5927\u4f5c\u6226\u30b9\u30da\u30b7\u30e3\u30eb
p2689
sg14
V3168993
p2690
sa(dp2691
g9
Vcomment
p2692
sg11
Vhttps://movie.douban.com/subject/3692611/
p2693
sg3
V\u8001\u5927 / BOSS
p2694
sg14
V3692611
p2695
sa(dp2696
g9
Vcomment
p2697
sg11
Vhttps://movie.douban.com/subject/1652587/
p2698
sg3
V\u963f\u51e1\u8fbe / Avatar
p2699
sg14
V1652587
p2700
sa(dp2701
g9
Vrating5-t
p2702
sg11
Vhttps://movie.douban.com/subject/2270390/
p2703
sg3
V\u795e\u63a2\u4f3d\u5229\u7565 / \u30ac\u30ea\u30ec\u30aa
p2704
sg14
V2270390
p2705
sa(dp2706
g9
Vcomment
p2707
sg11
Vhttps://movie.douban.com/subject/3602965/
p2708
sg3
V\u7231\u60c5\u6d17\u724c / Love Shuffle
p2709
sg14
V3602965
p2710
sa(dp2711
g9
Vrating4-t
p2712
sg11
Vhttps://movie.douban.com/subject/3904343/
p2713
sg3
V\u771f\u6211\u9713\u88f3 / \u30ea\u30a2\u30eb\u30fb\u30af\u30ed\u30fc\u30ba
p2714
sg14
V3904343
p2715
sa(dp2716
g9
Vcomment
p2717
sg11
Vhttps://movie.douban.com/subject/3179758/
p2718
sg3
V\u90bb\u5bb6\u7279\u5de5 / The Spy Next Door
p2719
sg14
V3179758
p2720
sa(dp2721
g9
Vcomment
p2722
sg11
Vhttps://movie.douban.com/subject/3754946/
p2723
sg3
V\u9526\u8863\u536b
p2724
sg14
V3754946
p2725
sa(dp2726
g9
Vrating1-t
p2727
sg11
Vhttps://movie.douban.com/subject/3606975/
p2728
sg3
V\u5b54\u5b50
p2729
sg14
V3606975
p2730
sa(dp2731
g9
Vcomment
p2732
sg11
Vhttps://movie.douban.com/subject/3765274/
p2733
sg3
V\u9ec4\u91d1\u8def
p2734
sg14
V3765274
p2735
sa(dp2736
g9
Vrating2-t
p2737
sg11
Vhttps://movie.douban.com/subject/2268359/
p2738
sg3
V\u66ae\u5149\u4e4b\u57ce / Twilight
p2739
sg14
V2268359
p2740
sa(dp2741
g9
Vcomment
p2742
sg11
Vhttps://movie.douban.com/subject/3626416/
p2743
sg3
V\u5341\u6708\u56f4\u57ce
p2744
sg14
V3626416
p2745
sa(dp2746
g9
Vrating5-t
p2747
sg11
Vhttps://movie.douban.com/subject/1292289/
p2748
sg3
V\u5fc3\u52a8 / \u5fc3\u52d5
p2749
sg14
V1292289
p2750
sa(dp2751
g9
Vrating3-t
p2752
sg11
Vhttps://movie.douban.com/subject/1455979/
p2753
sg3
V\u58a8\u653b
p2754
sg14
V1455979
p2755
sa(dp2756
g9
Vcomment
p2757
sg11
Vhttps://movie.douban.com/subject/3103405/
p2758
sg3
V\u6bd2\u6c14\u98ce\u66b4 / M.W.
p2759
sg14
V3103405
p2760
sa(dp2761
g9
Vrating3-t
p2762
sg11
Vhttps://movie.douban.com/subject/3395460/
p2763
sg3
V\u540c\u95e8 / \u540c\u9580
p2764
sg14
V3395460
p2765
sa(dp2766
g9
Vrating4-t
p2767
sg11
Vhttps://movie.douban.com/subject/4011164/
p2768
sg3
V\u6b7b\u795e\u50bb\u4e86
p2769
sg14
V4011164
p2770
sa(dp2771
g9
Vcomment
p2772
sg11
Vhttps://movie.douban.com/subject/2354729/
p2773
sg3
V\u795e\u79d8\u4ee3\u7801 / Knowing
p2774
sg14
V2354729
p2775
sa(dp2776
g9
Vrating4-t
p2777
sg11
Vhttps://movie.douban.com/subject/2209368/
p2778
sg3
V\u65b0\u5bbf\u4e8b\u4ef6
p2779
sg14
V2209368
p2780
sa(dp2781
g9
Vcomment
p2782
sg11
Vhttps://movie.douban.com/subject/3445526/
p2783
sg3
V\u767d\u94f6\u5e1d\u56fd
p2784
sg14
V3445526
p2785
sa(dp2786
g9
Vcomment
p2787
sg11
Vhttps://movie.douban.com/subject/3302627/
p2788
sg3
V\u590d\u4ec7 / Vengeance
p2789
sg14
V3302627
p2790
sa(dp2791
g9
Vrating5-t
p2792
sg11
Vhttps://movie.douban.com/subject/2053515/
p2793
sg3
V\u66fe\u7ecf / Once
p2794
sg14
V2053515
p2795
sa(dp2796
g9
Vcomment
p2797
sg11
Vhttps://movie.douban.com/subject/3552301/
p2798
sg3
V\u7231\u5230\u5e95
p2799
sg14
V3552301
p2800
sa(dp2801
g9
Vrating5-t
p2802
sg11
Vhttps://movie.douban.com/subject/3734112/
p2803
sg3
V\u98ce\u58f0
p2804
sg14
V3734112
p2805
sa(dp2806
g9
Vrating4-t
p2807
sg11
Vhttps://movie.douban.com/subject/3005875/
p2808
sg3
V2012
p2809
sg14
V3005875
p2810
sa(dp2811
g9
Vcomment
p2812
sg11
Vhttps://movie.douban.com/subject/3227266/
p2813
sg3
V\u6211\u7684\u5510\u671d\u5144\u5f1f
p2814
sg14
V3227266
p2815
sa(dp2816
g9
Vrating3-t
p2817
sg11
Vhttps://movie.douban.com/subject/4074027/
p2818
sg3
V2\u520620\u79d2
p2819
sg14
V4074027
p2820
sa(dp2821
g9
Vrating1-t
p2822
sg11
Vhttps://movie.douban.com/subject/3264045/
p2823
sg3
V\u82b1\u6728\u5170
p2824
sg14
V3264045
p2825
sa(dp2826
g9
Vrating4-t
p2827
sg11
Vhttps://movie.douban.com/subject/3013580/
p2828
sg3
V\u610f\u5916
p2829
sg14
V3013580
p2830
sa(dp2831
g9
Vrating5-t
p2832
sg11
Vhttps://movie.douban.com/subject/1878605/
p2833
sg3
V\u5927\u65f6\u4ee3 / \u5927\u6642\u4ee3
p2834
sg14
V1878605
p2835
sa(dp2836
g9
Vrating5-t
p2837
sg11
Vhttps://movie.douban.com/subject/2137069/
p2838
sg3
V\u5927\u65f6\u4ee3II\u4e16\u7eaa\u4e4b\u6218
p2839
sg14
V2137069
p2840
sa(dp2841
g9
Vrating4-t
p2842
sg11
Vhttps://movie.douban.com/subject/3447591/
p2843
sg3
V\u4fdd\u6301\u7231\u4f60 / \u4fdd\u6301\u611b\u4f60
p2844
sg14
V3447591
p2845
sa(dp2846
g9
Vrating5-t
p2847
sg11
Vhttps://movie.douban.com/subject/2241052/
p2848
sg3
V\u4e7e\u9686\u5927\u5e1d
p2849
sg14
V2241052
p2850
sa(dp2851
g9
Vrating2-t
p2852
sg11
Vhttps://movie.douban.com/subject/3683409/
p2853
sg3
V\u591c\u5e97
p2854
sg14
V3683409
p2855
sa(dp2856
g9
Vcomment
p2857
sg11
Vhttps://movie.douban.com/subject/3006772/
p2858
sg3
V\u7b2c\u4e5d\u533a / District 9
p2859
sg14
V3006772
p2860
sa(dp2861
g9
Vrating5-t
p2862
sg11
Vhttps://movie.douban.com/subject/3412882/
p2863
sg3
V\u7a83\u542c\u98ce\u4e91 / \u7aca\u807d\u98a8\u96f2
p2864
sg14
V3412882
p2865
sa(dp2866
g9
Vrating4-t
p2867
sg11
Vhttps://movie.douban.com/subject/2157176/
p2868
sg3
V\u653e\u7f8a\u7684\u661f\u661f
p2869
sg14
V2157176
p2870
sa(dp2871
g9
Vcomment
p2872
sg11
Vhttps://movie.douban.com/subject/1291543/
p2873
sg3
V\u529f\u592b
p2874
sg14
V1291543
p2875
sa(dp2876
g9
Vrating5-t
p2877
sg11
Vhttps://movie.douban.com/subject/1418640/
p2878
sg3
V\u542c\u5230\u6d9b\u58f0 / \u6d77\u304c\u304d\u3053\u3048\u308b
p2879
sg14
V1418640
p2880
sa(dp2881
g9
Vrating5-t
p2882
sg11
Vhttps://movie.douban.com/subject/3670447/
p2883
sg3
V\u5927\u5185\u5bc6\u63a2\u7075\u7075\u72d7 / \u5927\u5167\u5bc6\u63a2\u9748\u9748\u72d7
p2884
sg14
V3670447
p2885
sa(dp2886
g9
Vrating3-t
p2887
sg11
Vhttps://movie.douban.com/subject/1308838/
p2888
sg3
V\u9f99\u51e4\u6597 / \u9f8d\u9cf3\u9b25
p2889
sg14
V1308838
p2890
sa(dp2891
g9
Vrating4-t
p2892
sg11
Vhttps://movie.douban.com/subject/1796255/
p2893
sg3
V\u4e4c\u9f9f\u610f\u5916\u4e4b\u901f\u6e38 / \u4e80\u306f\u610f\u5916\u3068\u901f\u304f\u6cf3\u3050
p2894
sg14
V1796255
p2895
sa(dp2896
g9
Vrating5-t
p2897
sg11
Vhttps://movie.douban.com/subject/3120912/
p2898
sg3
V\u6cb3\u4e1c\u72ee\u543c
p2899
sg14
V3120912
p2900
sa(dp2901
g9
Vdate
p2902
sg11
Vhttps://movie.douban.com/subject/2972166/
p2903
sg3
V\u9b54\u5973\u67d4\u7199 / \ub9c8\ub140\uc720\ud76c
p2904
sg14
V2972166
p2905
sa(dp2906
g9
Vrating5-t
p2907
sg11
Vhttps://movie.douban.com/subject/1308779/
p2908
sg3
V\u540e\u5929 / The Day After Tomorrow
p2909
sg14
V1308779
p2910
sa(dp2911
g9
Vrating3-t
p2912
sg11
Vhttps://movie.douban.com/subject/3244128/
p2913
sg3
V\u4eb2\u5bc6
p2914
sg14
V3244128
p2915
sa(dp2916
g9
Vrating1-t
p2917
sg11
Vhttps://movie.douban.com/subject/3305873/
p2918
sg3
V\u7231\u7684\u53d1\u58f0\u7ec3\u4e60 / \u611b\u7684\u767c\u8072\u7df4\u7fd2
p2919
sg14
V3305873
p2920
sa(dp2921
g9
Vrating5-t
p2922
sg11
Vhttps://movie.douban.com/subject/1863923/
p2923
sg3
V\u9e7f\u9f0e\u8bb0
p2924
sg14
V1863923
p2925
sa(dp2926
g9
Vrating5-t
p2927
sg11
Vhttps://movie.douban.com/subject/1863941/
p2928
sg3
V\u5929\u9f99\u516b\u90e8 / \u5929\u9f8d\u516b\u90e8
p2929
sg14
V1863941
p2930
sa(dp2931
g9
Vcomment
p2932
sg11
Vhttps://movie.douban.com/subject/2294268/
p2933
sg3
V\u65b0\u9f99\u95e8\u5ba2\u6808
p2934
sg14
V2294268
p2935
sa(dp2936
g9
Vrating1-t
p2937
sg11
Vhttps://movie.douban.com/subject/3011465/
p2938
sg3
V\u672a\u6765\u6218\u4e892022 / Recon 2022: The Mezzo Incident
p2939
sg14
V3011465
p2940
sa(dp2941
g9
Vrating5-t
p2942
sg11
Vhttps://movie.douban.com/subject/3244162/
p2943
sg3
V\u5bb6\u6709\u559c\u4e8b2009
p2944
sg14
V3244162
p2945
sa(dp2946
g9
Vrating2-t
p2947
sg11
Vhttps://movie.douban.com/subject/1396313/
p2948
sg3
V\u604b\u7231\u5730\u56fe / \u6200\u611b\u5730\u5716
p2949
sg14
V1396313
p2950
sa(dp2951
g9
Vrating4-t
p2952
sg11
Vhttps://movie.douban.com/subject/3148571/
p2953
sg3
V\u5185\u8863\u5c11\u5973
p2954
sg14
V3148571
p2955
sa(dp2956
g9
Vrating5-t
p2957
sg11
Vhttps://movie.douban.com/subject/2124703/
p2958
sg3
V\u75af\u72c2\u7684\u8d5b\u8f66
p2959
sg14
V2124703
p2960
sa(dp2961
g9
Vrating5-t
p2962
sg11
Vhttps://movie.douban.com/subject/3263169/
p2963
sg3
V\u5047\u9762 / \uac00\uba74
p2964
sg14
V3263169
p2965
sa(dp2966
g9
Vrating4-t
p2967
sg11
Vhttps://movie.douban.com/subject/1309220/
p2968
sg3
V\u9ed1\u793e\u4f1a / \u9ed1\u793e\u6703
p2969
sg14
V1309220
p2970
sa(dp2971
g9
Vrating5-t
p2972
sg11
Vhttps://movie.douban.com/subject/3291930/
p2973
sg3
V\u8d64\u58c1(\u4e0b)
p2974
sg14
V3291930
p2975
sa(dp2976
g9
Vrating4-t
p2977
sg11
Vhttps://movie.douban.com/subject/2346881/
p2978
sg3
V\u7834\u4e8b\u513f / \u7834\u4e8b\u5152
p2979
sg14
V2346881
p2980
sa(dp2981
g9
Vrating5-t
p2982
sg11
Vhttps://movie.douban.com/subject/2153527/
p2983
sg3
V\u65b0\u767d\u5a18\u5b50\u4f20\u5947 / \u65b0\u767d\u5a18\u5b50\u50b3\u5947
p2984
sg14
V2153527
p2985
sa(dp2986
g9
Vrating5-t
p2987
sg11
Vhttps://movie.douban.com/subject/2359431/
p2988
sg3
V\u4fdd\u6301\u901a\u8bdd
p2989
sg14
V2359431
p2990
sa(dp2991
g9
Vrating5-t
p2992
sg11
Vhttps://movie.douban.com/subject/1309297/
p2993
sg3
V\u795e\u7ecf\u4fa0\u4fa3 / \u795e\u7d93\u4fe0\u4fb6
p2994
sg14
V1309297
p2995
sa(dp2996
g9
Vrating2-t
p2997
sg11
Vhttps://movie.douban.com/subject/2976123/
p2998
sg3
V\u6587\u96c0
p2999
sg14
V2976123
p3000
sa(dp3001
g9
Vrating4-t
p3002
sg11
Vhttps://movie.douban.com/subject/2027923/
p3003
sg3
V\u7b2c\u4e00\u8beb
p3004
sg14
V2027923
p3005
sa(dp3006
g9
Vrating3-t
p3007
sg11
Vhttps://movie.douban.com/subject/1304337/
p3008
sg3
V\u53f0\u5317\u665a\u4e5d\u671d\u4e94
p3009
sg14
V1304337
p3010
sa(dp3011
g9
Vrating4-t
p3012
sg11
Vhttps://movie.douban.com/subject/3040909/
p3013
sg3
V\u7231\u60c5\u4e07\u5c81 / \u611b\u60c5\u842c\u5d57
p3014
sg14
V3040909
p3015
sa(dp3016
g9
Vrating5-t
p3017
sg11
Vhttps://movie.douban.com/subject/1308587/
p3018
sg3
V\u5411\u5de6\u8d70\uff0e\u5411\u53f3\u8d70
p3019
sg14
V1308587
p3020
sa(dp3021
g9
Vrating5-t
p3022
sg11
Vhttps://movie.douban.com/subject/1997685/
p3023
sg3
V\u4ea4\u54cd\u60c5\u4eba\u68a6 / \u306e\u3060\u3081\u30ab\u30f3\u30bf\u30fc\u30d3\u30ec
p3024
sg14
V1997685
p3025
sa(dp3026
g9
Vrating4-t
p3027
sg11
Vhttps://movie.douban.com/subject/1966464/
p3028
sg3
V\u82f9\u679c
p3029
sg14
V1966464
p3030
sa(dp3031
g9
Vrating4-t
p3032
sg11
Vhttps://movie.douban.com/subject/2075501/
p3033
sg3
V\u4e00\u697c\u4e00\u9b3c
p3034
sg14
V2075501
p3035
sa(dp3036
g9
Vrating5-t
p3037
sg11
Vhttps://movie.douban.com/subject/3015835/
p3038
sg3
V\u6211\u7684\u6700\u7231 / \u6211\u7684\u6700\u611b
p3039
sg14
V3015835
p3040
sa(dp3041
g9
Vrating2-t
p3042
sg11
Vhttps://movie.douban.com/subject/3074303/
p3043
sg3
V\u505c\u8f66 / \u505c\u8eca
p3044
sg14
V3074303
p3045
sa(dp3046
g9
Vcomment
p3047
sg11
Vhttps://movie.douban.com/subject/1465829/
p3048
sg3
V\u8d64\u58c1(\u4e0a)
p3049
sg14
V1465829
p3050
sa(dp3051
g9
Vrating5-t
p3052
sg11
Vhttps://movie.douban.com/subject/1451430/
p3053
sg3
V\u91ce\u732a\u5927\u6539\u9020 / \u91ce\u30d6\u30bf\u3002\u3092\u30d7\u30ed\u30c7\u30e5\u30fc\u30b9
p3054
sg14
V1451430
p3055
sa(dp3056
g9
Vcomment
p3057
sg11
Vhttps://movie.douban.com/subject/2983389/
p3058
sg3
V\u5bfb\u79e6\u8bb0
p3059
sg14
V2983389
p3060
sa(dp3061
g9
Vrating5-t
p3062
sg11
Vhttps://movie.douban.com/subject/1820156/
p3063
sg3
V\u6211\u662f\u4f20\u5947 / I Am Legend
p3064
sg14
V1820156
p3065
sa(dp3066
g9
Vrating5-t
p3067
sg11
Vhttps://movie.douban.com/subject/1787277/
p3068
sg3
V\u5f69\u8679\u5973\u795e / \u8679\u306e\u5973\u795e
p3069
sg14
V1787277
p3070
sa(dp3071
g9
Vrating4-t
p3072
sg11
Vhttps://movie.douban.com/subject/1914831/
p3073
sg3
V\u76db\u590f\u5149\u5e74
p3074
sg14
V1914831
p3075
sa(dp3076
g9
Vrating5-t
p3077
sg11
Vhttps://movie.douban.com/subject/2124724/
p3078
sg3
V\u4e0d\u80fd\u8bf4\u7684\u79d8\u5bc6 / \u4e0d\u80fd\u8aaa\u7684\u79d8\u5bc6
p3079
sg14
V2124724
p3080
sa(dp3081
g9
Vcomment
p3082
sg11
Vhttps://movie.douban.com/subject/1308575/
p3083
sg3
V\u84dd\u8272\u5927\u95e8 / \u85cd\u8272\u5927\u9580
p3084
sg14
V1308575
p3085
sa(dp3086
g9
Vrating3-t
p3087
sg11
Vhttps://movie.douban.com/subject/2300586/
p3088
sg3
V\u8fd9\u4e2a\u7537\u4eba\u6765\u81ea\u5730\u7403 / The Man from Earth
p3089
sg14
V2300586
p3090
sa(dp3091
g9
Vrating4-t
p3092
sg11
Vhttps://movie.douban.com/subject/2043465/
p3093
sg3
V\u5341\u5206\u7231 / \u5341\u5206\u611b
p3094
sg14
V2043465
p3095
sa(dp3096
g9
Vrating5-t
p3097
sg11
Vhttps://movie.douban.com/subject/2027938/
p3098
sg3
V\u795e\u63a2
p3099
sg14
V2027938
p3100
sa(dp3101
g9
Vcomment
p3102
sg11
Vhttps://movie.douban.com/subject/3012257/
p3103
sg3
V\u72ec\u5bb6\u8bd5\u7231 / \u7368\u5bb6\u8a66\u611b
p3104
sg14
V3012257
p3105
sa(dp3106
g9
Vcomment
p3107
sg11
Vhttps://movie.douban.com/subject/2043546/
p3108
sg3
V\u79d2\u901f5\u5398\u7c73 / \u79d2\u901f5\u30bb\u30f3\u30c1\u30e1\u30fc\u30c8\u30eb
p3109
sg14
V2043546
p3110
sa(dp3111
g9
Vcomment
p3112
sg11
Vhttps://movie.douban.com/subject/2357381/
p3113
sg3
V\u6211\u5728\u57a6\u4e01\u5929\u6c14\u6674 / \u6211\u5728\u58be\u4e01\u5929\u6c14\u6674
p3114
sg14
V2357381
p3115
sa(dp3116
g9
Vcomment
p3117
sg11
Vhttps://movie.douban.com/subject/1950525/
p3118
sg3
V\u5927\u704c\u7bee
p3119
sg14
V1950525
p3120
sa(dp3121
g9
Vrating5-t
p3122
sg11
Vhttps://movie.douban.com/subject/1307914/
p3123
sg3
V\u65e0\u95f4\u9053 / \u7121\u9593\u9053
p3124
sg14
V1307914
p3125
sa(dp3126
g9
Vcomment
p3127
sg11
Vhttps://movie.douban.com/subject/1310185/
p3128
sg3
V\u4e09\u5c94\u53e3
p3129
sg14
V1310185
p3130
sa(dp3131
g9
Vcomment
p3132
sg11
Vhttps://movie.douban.com/subject/1307781/
p3133
sg3
V\u5927\u57ce\u5c0f\u4e8b
p3134
sg14
V1307781
p3135
sa(dp3136
g9
Vcomment
p3137
sg11
Vhttps://movie.douban.com/subject/2326212/
p3138
sg3
V\u590f\u5929\u7684\u5c3e\u5df4
p3139
sg14
V2326212
p3140
sa(dp3141
g9
Vcomment
p3142
sg11
Vhttps://movie.douban.com/subject/2230888/
p3143
sg3
V\u6700\u9065\u8fdc\u7684\u8ddd\u79bb / \u6700\u9059\u9060\u7684\u8ddd\u96e2
p3144
sg14
V2230888
p3145
sa(dp3146
g9
Vcomment
p3147
sg11
Vhttps://movie.douban.com/subject/2326215/
p3148
sg3
V\u6c89\u7761\u7684\u9752\u6625 / \u6c88\u7761\u7684\u9752\u6625
p3149
sg14
V2326215
p3150
sa(dp3151
g9
Vcomment
p3152
sg11
Vhttps://movie.douban.com/subject/2027925/
p3153
sg3
V\u516d\u53f7\u51fa\u53e3
p3154
sg14
V2027925
p3155
sa(dp3156
g9
Vcomment
p3157
sg11
Vhttps://movie.douban.com/subject/1947089/
p3158
sg3
V\u6295\u540d\u72b6
p3159
sg14
V1947089
p3160
sa(dp3161
g9
Vrating3-t
p3162
sg11
Vhttps://movie.douban.com/subject/1784989/
p3163
sg3
V\u8fde\u7406\u679d / \uc5f0\ub9ac\uc9c0
p3164
sg14
V1784989
p3165
sa(dp3166
g9
Vcomment
p3167
sg11
Vhttps://movie.douban.com/subject/1499148/
p3168
sg3
V\u84dd\u8393\u4e4b\u591c / My Blueberry Nights
p3169
sg14
V1499148
p3170
sa(dp3171
g9
Vrating5-t
p3172
sg11
Vhttps://movie.douban.com/subject/2070367/
p3173
sg3
V\u6bcf\u5f53\u53d8\u5e7b\u65f6
p3174
sg14
V2070367
p3175
sasS'num_wish'
p3176
I361
sS'collect_link'
p3177
Vhttps://movie.douban.com/people/jayeee000/collect
p3178
sS'wish_list'
p3179
(lp3180
(dp3181
g11
Vhttps://movie.douban.com/subject/25662337/
p3182
sg3
V\u60ca\u5929\u9b54\u76d7\u56e22 / Now You See Me 2
p3183
sg14
V25662337
p3184
sa(dp3185
g11
Vhttps://movie.douban.com/subject/10438917/
p3186
sg3
V\u975e\u516c\u8ba4\u6218\u961f\u79cb\u53f6\u539f\u8fde\u8005 / \u975e\u516c\u8a8d\u6226\u968a\u30a2\u30ad\u30d0\u30ec\u30f3\u30b8\u30e3\u30fc
p3187
sg14
V10438917
p3188
sa(dp3189
g11
Vhttps://movie.douban.com/subject/3087445/
p3190
sg3
V\u5bb6\u5ead\u8fde\u7eed\u5267 / \u30db\u30fc\u30e0\u30c9\u30e9\u30de!
p3191
sg14
V3087445
p3192
sa(dp3193
g11
Vhttps://movie.douban.com/subject/24859558/
p3194
sg3
V\u54c6\u5566A\u68a6\uff1a\u65b0\u5927\u96c4\u7684\u5927\u9b54\u5883 / \u6620\u753b\u30c9\u30e9\u3048\u3082\u3093 \u65b0\u30fb\u306e\u3073\u592a\u306e\u5927\u9b54\u5883 \uff5e\u30da\u30b3\u30685\u4eba\u306e\u63a2\u691c\u968a\uff5e
p3195
sg14
V24859558
p3196
sa(dp3197
g11
Vhttps://movie.douban.com/subject/25986688/
p3198
sg3
V\u6d41\u6d6a\u8005\u5e74\u4ee3\u8bb0 / \u30b9\u30c8\u30ec\u30a4\u30e4\u30fc\u30ba\u30fb\u30af\u30ed\u30cb\u30af\u30eb
p3199
sg14
V25986688
p3200
sa(dp3201
g11
Vhttps://movie.douban.com/subject/1293929/
p3202
sg3
V\u5eca\u6865\u9057\u68a6 / The Bridges of Madison County
p3203
sg14
V1293929
p3204
sa(dp3205
g11
Vhttps://movie.douban.com/subject/1292226/
p3206
sg3
V2001\u592a\u7a7a\u6f2b\u6e38 / 2001: A Space Odyssey
p3207
sg14
V1292226
p3208
sa(dp3209
g11
Vhttps://movie.douban.com/subject/25962720/
p3210
sg3
V\u548c\u6b4c\u5b50\u9152 \u7b2c1\u5b63 / \u30ef\u30ab\u30b3\u9152
p3211
sg14
V25962720
p3212
sa(dp3213
g11
Vhttps://movie.douban.com/subject/25807345/
p3214
sg3
V\u5f57\u661f\u6765\u7684\u90a3\u4e00\u591c / Coherence
p3215
sg14
V25807345
p3216
sa(dp3217
g11
Vhttps://movie.douban.com/subject/25900820/
p3218
sg3
V\u602a\u8c08\uff1a\u4e09\u5c9b\u5c4b\u5947\u5f02\u767e\u7269\u8bed / \u304a\u305d\u308d\u3057\uff5e\u4e09\u5cf6\u5c4b\u5909\u8abf\u767e\u7269\u8a9e
p3219
sg14
V25900820
p3220
sa(dp3221
g11
Vhttps://movie.douban.com/subject/1481065/
p3222
sg3
V\u590f\u4e4b\u96ea / Summer Snow
p3223
sg14
V1481065
p3224
sa(dp3225
g11
Vhttps://movie.douban.com/subject/6082518/
p3226
sg3
V\u8d85\u51e1\u8718\u86db\u4fa02 / The Amazing Spider-Man 2
p3227
sg14
V6082518
p3228
sa(dp3229
g11
Vhttps://movie.douban.com/subject/20389706/
p3230
sg3
V\u5c0f\u5c0f\u7684\u5bb6 / \u5c0f\u3055\u3044\u304a\u3046\u3061
p3231
sg14
V20389706
p3232
sa(dp3233
g11
Vhttps://movie.douban.com/subject/25845399/
p3234
sg3
V\u5e78\u8fd0\u60c5\u4eba\u8349 / \u30af\u30ed\u30fc\u30d0\u30fc
p3235
sg14
V25845399
p3236
sa(dp3237
g11
Vhttps://movie.douban.com/subject/5274857/
p3238
sg3
V\u9b3c\u602a\u6587\u8c6a\u602a\u8c084\uff1a\u540e\u65e5 / \u5996\u3057\u304d\u6587\u8c6a\u602a\u8ac7 \u5f8c\u306e\u65e5
p3239
sg14
V5274857
p3240
sa(dp3241
g11
Vhttps://movie.douban.com/subject/3077668/
p3242
sg3
V\u5929\u6c34\u56f4\u7684\u65e5\u4e0e\u591c / \u5929\u6c34\u570d\u7684\u65e5\u8207\u591c
p3243
sg14
V3077668
p3244
sa(dp3245
g11
Vhttps://movie.douban.com/subject/10561914/
p3246
sg3
V\u65f6\u5c1a\u6a21\u7279\u7269\u8bed / \u30d5\u30a1\u30c3\u30b7\u30e7\u30f3\u30b9\u30c8\u30fc\u30ea\u30fc
p3247
sg14
V10561914
p3248
sa(dp3249
g11
Vhttps://movie.douban.com/subject/1867420/
p3250
sg3
V\u5934\u6587\u5b57D \u7b2c\u4e00\u5b63 / \u982d\u6587\u5b57D First Stage
p3251
sg14
V1867420
p3252
sa(dp3253
g11
Vhttps://movie.douban.com/subject/10777710/
p3254
sg3
V\u56de\u6211\u7684\u5bb6 / \u30b4\u30fc\u30a4\u30f3\u30b0 \u30de\u30a4 \u30db\u30fc\u30e0
p3255
sg14
V10777710
p3256
sa(dp3257
g11
Vhttps://movie.douban.com/subject/25845383/
p3258
sg3
V\u9752\u6625\u4e4b\u65c5 / \u30a2\u30aa\u30cf\u30e9\u30a4\u30c9
p3259
sg14
V25845383
p3260
sa(dp3261
g11
Vhttps://movie.douban.com/subject/5352872/
p3262
sg3
V\u7f8e\u4e4b\u58f6 / \u7f8e\u306e\u58fa
p3263
sg14
V5352872
p3264
sa(dp3265
g11
Vhttps://movie.douban.com/subject/25823689/
p3266
sg3
V\u60c5\u4eba\u8ba2\u5236\u6307\u5357 / \u3055\u307e\u3088\u3046\u5c0f\u6307
p3267
sg14
V25823689
p3268
sa(dp3269
g11
Vhttps://movie.douban.com/subject/4176565/
p3270
sg3
V\u7b14\u8c08\u5973\u516c\u5173 / \u7b46\u8ac7\u30db\u30b9\u30c6\u30b9
p3271
sg14
V4176565
p3272
sa(dp3273
g11
Vhttps://movie.douban.com/subject/4016493/
p3274
sg3
V\u5fcf\u518d\u89c1\uff0c\u7edd\u671b\u5148\u751f \u756a\u5916\u5730 / \u61fa\u30fb\u3055\u3088\u306a\u3089\u7d76\u671b\u5148\u751f \u756a\u5916\u5730
p3275
sg14
V4016493
p3276
sa(dp3277
g11
Vhttps://movie.douban.com/subject/2276937/
p3278
sg3
V\u5c0f\u65e9\u5ddd\u4f38\u6728\u4e4b\u604b / \u5c0f\u65e9\u5ddd\u4f38\u6728\u306e\u604b
p3279
sg14
V2276937
p3280
sa(dp3281
g11
Vhttps://movie.douban.com/subject/25847563/
p3282
sg3
V\u76d1\u7763\u4e0d\u884c\u5c4a / \u76e3\u7763\u4e0d\u884c\u5c4a
p3283
sg14
V25847563
p3284
sa(dp3285
g11
Vhttps://movie.douban.com/subject/2270419/
p3286
sg3
V\u5de5\u4f5c\u72c2\u4eba / \u50cd\u304d\u30de\u30f3
p3287
sg14
V2270419
p3288
sa(dp3289
g11
Vhttps://movie.douban.com/subject/3904342/
p3290
sg3
V\u838e\u62c9\u516c\u4e3b / \u5c0f\u516c\u5973\u30bb\u30a4\u30e9
p3291
sg14
V3904342
p3292
sa(dp3293
g11
Vhttps://movie.douban.com/subject/3205683/
p3294
sg3
V\u65e0\u4eba\u5b88\u62a4 / \u8ab0\u3082\u5b88\u3063\u3066\u304f\u308c\u306a\u3044
p3295
sg14
V3205683
p3296
sa(dp3297
g11
Vhttps://movie.douban.com/subject/24875325/
p3298
sg3
V\u7535\u8111\u5947\u4fa0\u91cd\u542f / \u30ad\u30ab\u30a4\u30c0\u30fcREBOOT
p3299
sg14
V24875325
p3300
sa(dp3301
g11
Vhttps://movie.douban.com/subject/20380329/
p3302
sg3
V\u4fe1\u957f\u7684\u4e3b\u53a8 / \u4fe1\u9577\u306e\u30b7\u30a7\u30d5
p3303
sg14
V20380329
p3304
sa(dp3305
g11
Vhttps://movie.douban.com/subject/3078390/
p3306
sg3
V\u592a\u5e73\u8f6e(\u4e0a)
p3307
sg14
V3078390
p3308
sa(dp3309
g11
Vhttps://movie.douban.com/subject/11504693/
p3310
sg3
V\u8273\u4e4b\u591c / \u3064\u3084\u306e\u3088\u308b \u3042\u308b\u611b\u306b\u95a2\u308f\u3063\u305f\u3001\u5973\u305f\u3061\u306e\u7269\u8a9e
p3311
sg14
V11504693
p3312
sa(dp3313
g11
Vhttps://movie.douban.com/subject/25885375/
p3314
sg3
V\u67f4\u5065\u533b\u751f\u4e8b\u4ef6\u7c3f / \u7363\u533b\u3055\u3093\u3001\u4e8b\u4ef6\u3067\u3059\u3088
p3315
sg14
V25885375
p3316
sa(dp3317
g11
Vhttps://movie.douban.com/subject/2310056/
p3318
sg3
V\u72ac\u795e\u5bb6\u65cf / \u72ac\u795e\u5bb6\u306e\u4e00\u65cf
p3319
sg14
V2310056
p3320
sa(dp3321
g11
Vhttps://movie.douban.com/subject/25843132/
p3322
sg3
V\u5e74\u8f7b\u4eba\u4eec2014 / \u82e5\u8005\u305f\u30612014
p3323
sg14
V25843132
p3324
sa(dp3325
g11
Vhttps://movie.douban.com/subject/1292401/
p3326
sg3
V\u771f\u7231\u81f3\u4e0a / Love Actually
p3327
sg14
V1292401
p3328
sa(dp3329
g11
Vhttps://movie.douban.com/subject/25839708/
p3330
sg3
V\u6781\u6076\u4e71\u66b4\u8005 / \u6975\u60aa\u304c\u3093\u307c
p3331
sg14
V25839708
p3332
sa(dp3333
g11
Vhttps://movie.douban.com/subject/4853223/
p3334
sg3
V\u8bf4\u8c0e\u7684\u54aa\u541b\u4e0e\u574f\u6389\u7684\u9ebb\u9171 / \u5618\u3064\u304d\u307f\u30fc\u304f\u3093\u3068\u58ca\u308c\u305f\u307e\u30fc\u3061\u3083\u3093
p3335
sg14
V4853223
p3336
sa(dp3337
g11
Vhttps://movie.douban.com/subject/25831331/
p3338
sg3
V\u7eed\u5012\u6570\u7b2c\u4e8c\u6b21\u604b\u7231 / \u7d9a\u30fb\u6700\u5f8c\u304b\u3089\u4e8c\u756a\u76ee\u306e\u604b
p3339
sg14
V25831331
p3340
sa(dp3341
g11
Vhttps://movie.douban.com/subject/11525673/
p3342
sg3
V\u5e03\u8fbe\u4f69\u65af\u5927\u996d\u5e97 / The Grand Budapest Hotel
p3343
sg14
V11525673
p3344
sa(dp3345
g11
Vhttps://movie.douban.com/subject/25915871/
p3346
sg3
V\u5947\u5999\u7684\u604b\u7231\u7269\u8bed / \u5947\u5999\u306a\u604b\u306e\u7269\u8a9e-THE AMAZING LOVE STORY-
p3347
sg14
V25915871
p3348
sa(dp3349
g11
Vhttps://movie.douban.com/subject/2333732/
p3350
sg3
V\u660e\u5929\u597d\u5929\u6c14 / \u660e\u65e5\u5929\u6c17\u306b\u306a\u3042\u308c
p3351
sg14
V2333732
p3352
sa(dp3353
g11
Vhttps://movie.douban.com/subject/1997590/
p3354
sg3
VHEY!HEY!HEY! MUSIC CHAMP
p3355
sg14
V1997590
p3356
sa(dp3357
g11
Vhttps://movie.douban.com/subject/2271657/
p3358
sg3
V\u4e16\u754c\u5947\u5999\u7269\u8bed 01\u79cb\u4e4b\u7279\u522b\u7bc7 / \u4e16\u306b\u3082\u5947\u5999\u306a\u7269\u8a9e '01\u79cb\u306e\u7279\u5225\u7de8
p3359
sg14
V2271657
p3360
sa(dp3361
g11
Vhttps://movie.douban.com/subject/25717959/
p3362
sg3
V\u9b3c\u706f\u5bb6\u7684\u5927\u59d0\u59d0 / \u9b3c\u706f\u3055\u3093\u5bb6\u306e\u30a2\u30cd\u30ad
p3363
sg14
V25717959
p3364
sa(dp3365
g11
Vhttps://movie.douban.com/subject/5958606/
p3366
sg3
VCalling you
p3367
sg14
V5958606
p3368
sa(dp3369
g11
Vhttps://movie.douban.com/subject/5285695/
p3370
sg3
V\u4e58\u5217\u8f66\u524d\u884c / \u50d5\u9054\u6025\u884c-A\u5217\u8eca\u3067\u884c\u3053\u3046-
p3371
sg14
V5285695
p3372
sa(dp3373
g11
Vhttps://movie.douban.com/subject/1918445/
p3374
sg3
V\u798f\u661f\u5c0f\u5b50 / \u3046\u308b\u661f\u3084\u3064\u3089
p3375
sg14
V1918445
p3376
sa(dp3377
g11
Vhttps://movie.douban.com/subject/25886453/
p3378
sg3
V\u4e8b\u4ef6\u6551\u547d\u533b2\uff5eIMAT\u306e\u5947\u8de1\uff5e
p3379
sg14
V25886453
p3380
sa(dp3381
g11
Vhttps://movie.douban.com/subject/1459515/
p3382
sg3
V\u8749\u65f6\u96e8 / \u8749\u3057\u3050\u308c
p3383
sg14
V1459515
p3384
sa(dp3385
g11
Vhttps://movie.douban.com/subject/24741412/
p3386
sg3
V\u54ea\u554a\u54ea\u554a\u795e\u53bb\u6751 / WOOD JOB\uff01\u795e\u53bb\u306a\u3042\u306a\u3042\u65e5\u5e38
p3387
sg14
V24741412
p3388
sa(dp3389
g11
Vhttps://movie.douban.com/subject/1756361/
p3390
sg3
V\u559c\u6b22\u4f60 / \u597d\u304d\u3060\u3001
p3391
sg14
V1756361
p3392
sa(dp3393
g11
Vhttps://movie.douban.com/subject/1938023/
p3394
sg3
V\u7709\u5c71 / \u7709\u5c71 -\u3073\u3056\u3093-
p3395
sg14
V1938023
p3396
sa(dp3397
g11
Vhttps://movie.douban.com/subject/7065166/
p3398
sg3
V\u8c0e\u62a5\u5076\u50cf / \u3055\u3070\u30c9\u30eb
p3399
sg14
V7065166
p3400
sa(dp3401
g11
Vhttps://movie.douban.com/subject/7163768/
p3402
sg3
V\u9ed1\u5b50\u7684\u7bee\u7403 / \u9ed2\u5b50\u306e\u30d0\u30b9\u30b1
p3403
sg14
V7163768
p3404
sa(dp3405
g11
Vhttps://movie.douban.com/subject/20366095/
p3406
sg3
V\u9e22 / \u3068\u3093\u3073
p3407
sg14
V20366095
p3408
sa(dp3409
g11
Vhttps://movie.douban.com/subject/25823111/
p3410
sg3
V\u6f58\u591a\u62c9\uff1a\u6c38\u6052\u7684\u751f\u547d / \u30d1\u30f3\u30c9\u30e9\uff5e\u6c38\u9060\u306e\u547d\uff5e
p3411
sg14
V25823111
p3412
sa(dp3413
g11
Vhttps://movie.douban.com/subject/1307793/
p3414
sg3
V\u71d5\u5c3e\u8776 / \u30b9\u30ef\u30ed\u30a6\u30c6\u30a4\u30eb
p3415
sg14
V1307793
p3416
sa(dp3417
g11
Vhttps://movie.douban.com/subject/25741354/
p3418
sg3
V\u5e55\u672b\u9ad8\u6821\u751f
p3419
sg14
V25741354
p3420
sa(dp3421
g11
Vhttps://movie.douban.com/subject/25853729/
p3422
sg3
V\u611f\u53d7\u5927\u6d77\u7684\u65f6\u523b / \u6d77\u3092\u611f\u3058\u308b\u6642
p3423
sg14
V25853729
p3424
sa(dp3425
g11
Vhttps://movie.douban.com/subject/20442985/
p3426
sg3
V\u4eba\u5f62\u5c11\u5973 / \u30d5\u30a3\u30ae\u30e5\u30a2\u306a\u3042\u306a\u305f
p3427
sg14
V20442985
p3428
sa(dp3429
g11
Vhttps://movie.douban.com/subject/25867562/
p3430
sg3
V\u739b\u5229\u4e9a\u7684\u4e73\u623f / \u30de\u30ea\u30a2\u306e\u4e73\u623f
p3431
sg14
V25867562
p3432
sa(dp3433
g11
Vhttps://movie.douban.com/subject/3546595/
p3434
sg3
V\u5706\u6708\u5f2f\u5200 / \u5713\u6708\u5f4e\u5200
p3435
sg14
V3546595
p3436
sa(dp3437
g11
Vhttps://movie.douban.com/subject/10553029/
p3438
sg3
V\u771f\u5e4c\u7ad9\u524d\u756a\u5916\u5730 / \u307e\u307b\u308d\u99c5\u524d\u756a\u5916\u5730
p3439
sg14
V10553029
p3440
sa(dp3441
g11
Vhttps://movie.douban.com/subject/6037429/
p3442
sg3
V\u7eb8\u724c\u5c4b \u7b2c\u4e00\u5b63 / House of Cards Season 1
p3443
sg14
V6037429
p3444
sa(dp3445
g11
Vhttps://movie.douban.com/subject/25870671/
p3446
sg3
V\u9ece\u660e\u7684\u6c99\u8036 / \u30c8\u30ef\u30a4\u30e9\u30a4\u30c8 \u3055\u3055\u3089\u3055\u3084
p3447
sg14
V25870671
p3448
sa(dp3449
g11
Vhttps://movie.douban.com/subject/25857885/
p3450
sg3
V\u5973\u5b50\u5b66\u6821\u62f7\u95ee\u90e8 / \u3061\u3087\u3063\u3068\u304b\u308f\u3044\u3044\u30a2\u30a4\u30a2\u30f3\u30e1\u30a4\u30c7\u30f3
p3451
sg14
V25857885
p3452
sa(dp3453
g11
Vhttps://movie.douban.com/subject/25835466/
p3454
sg3
V\u603b\u4f1a\u6709\u529e\u6cd5\u76842 / \u306a\u308b\u3088\u3046\u306b\u306a\u308b\u3055\u3002 \u30b7\u30fc\u30ba\u30f32
p3455
sg14
V25835466
p3456
sa(dp3457
g11
Vhttps://movie.douban.com/subject/25818801/
p3458
sg3
V\u5373\u4fbf\u5f31\u5c0f\u4e5f\u80fd\u83b7\u80dc / \u5f31\u304f\u3066\u3082\u52dd\u3066\u307e\u3059\uff5e\u9752\u5fd7\u5148\u751f\u3068\u3078\u3063\u307d\u3053\u9ad8\u6821\u7403\u5150\u306e\u91ce\u671b\uff5e
p3459
sg14
V25818801
p3460
sa(dp3461
g11
Vhttps://movie.douban.com/subject/25830690/
p3462
sg3
V\u6b7b\u795e\u541b / \u6b7b\u795e\u304f\u3093
p3463
sg14
V25830690
p3464
sa(dp3465
g11
Vhttps://movie.douban.com/subject/2020844/
p3466
sg3
V\u4e1c\u4eac\u91d1\u76cf\u82b1 / \u6771\u4eac\u30de\u30ea\u30fc\u30b4\u30fc\u30eb\u30c9
p3467
sg14
V2020844
p3468
sa(dp3469
g11
Vhttps://movie.douban.com/subject/4219765/
p3470
sg3
V\u732b\u54aa\u7269\u8bed3 / \u306b\u3083\u3093\u3053 THE MOVIE3
p3471
sg14
V4219765
p3472
sa(dp3473
g11
Vhttps://movie.douban.com/subject/2976111/
p3474
sg3
V\u72d7\u72d7\u4e0e\u6211\u7684\u5341\u4e2a\u7ea6\u5b9a / \u72ac\u3068\u79c1\u306e10\u306e\u7d04\u675f
p3475
sg14
V2976111
p3476
sa(dp3477
g11
Vhttps://movie.douban.com/subject/1465021/
p3478
sg3
V\u7f8e\u4e3d\u4eba\u751f / \u30d3\u30e5\u30fc\u30c6\u30a3\u30d5\u30eb\u30e9\u30a4\u30d5
p3479
sg14
V1465021
p3480
sa(dp3481
g11
Vhttps://movie.douban.com/subject/1759781/
p3482
sg3
V\u767e\u5e74\u7269\u8bed / \u767e\u5e74\u306e\u7269\u8a9e
p3483
sg14
V1759781
p3484
sa(dp3485
g11
Vhttps://movie.douban.com/subject/2369579/
p3486
sg3
V\u6211\u7684\u91ce\u86ee\u5973\u53cb / \u731f\u5947\u7684\u306a\u5f7c\u5973
p3487
sg14
V2369579
p3488
sa(dp3489
g11
Vhttps://movie.douban.com/subject/21332449/
p3490
sg3
V\u7f57\u9a6c\u6d74\u573a2 / \u30c6\u30eb\u30de\u30a8\u30fb\u30ed\u30de\u30a8\u2161
p3491
sg14
V21332449
p3492
sa(dp3493
g11
Vhttps://movie.douban.com/subject/1466387/
p3494
sg3
V\u4ece\u5929\u800c\u964d\u7684\u4e00\u4ebf\u9897\u661f\u661f / \u7a7a\u304b\u3089\u964d\u308b\u4e00\u5104\u306e\u661f
p3495
sg14
V1466387
p3496
sa(dp3497
g11
Vhttps://movie.douban.com/subject/24522312/
p3498
sg3
V\u6026\u7136\u5fc3\u52a8\u7684\u4eba\u751f\u6574\u7406\u9b54\u6cd5 / \u4eba\u751f\u304c\u3068\u304d\u3081\u304f\u7247\u3065\u3051\u306e\u9b54\u6cd5
p3499
sg14
V24522312
p3500
sa(dp3501
g11
Vhttps://movie.douban.com/subject/1292873/
p3502
sg3
V\u968f\u5fc3\u6240\u6b32 / Playing by Heart
p3503
sg14
V1292873
p3504
sa(dp3505
g11
Vhttps://movie.douban.com/subject/6439461/
p3506
sg3
V\u4e0b\u6d41\u4e4b\u5bb4 / \u4e0b\u6d41\u306e\u5bb4
p3507
sg14
V6439461
p3508
sa(dp3509
g11
Vhttps://movie.douban.com/subject/6080751/
p3510
sg3
V\u66b4\u98ce\u96e8 / \u30c6\u30f3\u30da\u30b9\u30c8
p3511
sg14
V6080751
p3512
sa(dp3513
g11
Vhttps://movie.douban.com/subject/11756824/
p3514
sg3
V\u604b\u7231\u7684\u82cd\u8747\u5973 / \u604b\u3059\u308b\u30cf\u30a8\u5973
p3515
sg14
V11756824
p3516
sa(dp3517
g11
Vhttps://movie.douban.com/subject/24705268/
p3518
sg3
V\u5eb6\u52a1\u4e8c\u8bfe2013 / \u30b7\u30e7\u30e0\u30cb2013
p3519
sg14
V24705268
p3520
sa(dp3521
g11
Vhttps://movie.douban.com/subject/25703782/
p3522
sg3
V\u6570\u5b66\u5973\u5b69\u7684\u604b\u7231\u4e8b\u4ef6\u7c3f / \u30cf\u30fc\u30c9\u30ca\u30c3\u30c4\uff01\uff5e\u6570\u5b57girl\u306e\u604b\u3059\u308b\u4e8b\u4ef6\u7c3f\uff5e
p3523
sg14
V25703782
p3524
sa(dp3525
g11
Vhttps://movie.douban.com/subject/7052437/
p3526
sg3
V\u6625\u5047 / Spring Breakers
p3527
sg14
V7052437
p3528
sa(dp3529
g11
Vhttps://movie.douban.com/subject/4099231/
p3530
sg3
V\u8f89\u591c\u59ec\u7269\u8bed / \u304b\u3050\u3084\u59eb\u306e\u7269\u8a9e
p3531
sg14
V4099231
p3532
sa(dp3533
g11
Vhttps://movie.douban.com/subject/10577869/
p3534
sg3
V\u65f6\u7a7a\u604b\u65c5\u4eba / About Time
p3535
sg14
V10577869
p3536
sa(dp3537
g11
Vhttps://movie.douban.com/subject/10567515/
p3538
sg3
V\u5c0f\u597d\u3001\u5c0f\u9ebb\u3001\u4f50\u548c\u5b50 / \u3059\u30fc\u3061\u3083\u3093 \u307e\u3044\u3061\u3083\u3093 \u3055\u308f\u5b50\u3055\u3093
p3539
sg14
V10567515
p3540
sa(dp3541
g11
Vhttps://movie.douban.com/subject/1850963/
p3542
sg3
V\u82b1\u9b41 / \u3055\u304f\u3089\u3093
p3543
sg14
V1850963
p3544
sa(dp3545
g11
Vhttps://movie.douban.com/subject/25790555/
p3546
sg3
V\u8bb0\u5fc6\u4e2d\u7684\u739b\u59ae / \u601d\u3044\u51fa\u306e\u30de\u30fc\u30cb\u30fc
p3547
sg14
V25790555
p3548
sa(dp3549
g11
Vhttps://movie.douban.com/subject/10794834/
p3550
sg3
V\u6027\u7231\u5927\u5e08 \u7b2c\u4e00\u5b63 / Masters of Sex Season 1
p3551
sg14
V10794834
p3552
sa(dp3553
g11
Vhttps://movie.douban.com/subject/25711811/
p3554
sg3
V\u4e00\u5e01\u901a\u5173\u5c0f\u5b50\uff1a\u6211\u4eec\u7684\u7535\u73a9\u53f2 / \u30ce\u30fc\u30b3\u30f3\u30fb\u30ad\u30c3\u30c9\uff5e\u307c\u304f\u3089\u306e\u30b2\u30fc\u30e0\u53f2\uff5e
p3555
sg14
V25711811
p3556
sa(dp3557
g11
Vhttps://movie.douban.com/subject/2378756/
p3558
sg3
V\u4f9d\u5df4\u62c9\u5ea6\uff5e\u65f6\u95f4\u7bc7 / \u30a4\u30d0\u30e9\u30fc\u30c9\u6642\u9593
p3559
sg14
V2378756
p3560
sa(dp3561
g11
Vhttps://movie.douban.com/subject/6801416/
p3562
sg3
V\u871c\u4e4b\u5473 / \u871c\u306e\u5473 \uff5eA Taste Of Honey\uff5e
p3563
sg14
V6801416
p3564
sa(dp3565
g11
Vhttps://movie.douban.com/subject/1308791/
p3566
sg3
V\u7537\u4e0a\u5973\u4e0b
p3567
sg14
V1308791
p3568
sa(dp3569
g11
Vhttps://movie.douban.com/subject/5996409/
p3570
sg3
V\u4e1c\u4eac\u5bb6\u65cf / \u6771\u4eac\u5bb6\u65cf
p3571
sg14
V5996409
p3572
sa(dp3573
g11
Vhttps://movie.douban.com/subject/3324425/
p3574
sg3
V\u6076\u9b54\u7684\u624b\u7403\u6b4c / \u60aa\u9b54\u306e\u624b\u6bec\u5457
p3575
sg14
V3324425
p3576
sa(dp3577
g11
Vhttps://movie.douban.com/subject/3003826/
p3578
sg3
V\u901d\u7eb8 / \u30a4\u30ad\u30ac\u30df
p3579
sg14
V3003826
p3580
sa(dp3581
g11
Vhttps://movie.douban.com/subject/20453087/
p3582
sg3
VIT\u72c2\u4eba\u7279\u522b\u7bc7 / The IT Crowd: The Internet Is Coming
p3583
sg14
V20453087
p3584
sa(dp3585
g11
Vhttps://movie.douban.com/subject/4946963/
p3586
sg3
V\u5149\u68cd\u513f
p3587
sg14
V4946963
p3588
sa(dp3589
g11
Vhttps://movie.douban.com/subject/11598985/
p3590
sg3
V\u6ca1\u6709\u540d\u5b57\u7684\u751c\u70b9\u5e97 / \u6c92\u6709\u540d\u5b57\u7684\u751c\u9ede\u5e97
p3591
sg14
V11598985
p3592
sa(dp3593
g11
Vhttps://movie.douban.com/subject/3666923/
p3594
sg3
V\u6211\u5728\u4e00\u5bb6\u9ed1\u516c\u53f8\u4e0a\u73ed\uff0c\u5df2\u7ecf\u5feb\u6491\u4e0d\u4e0b\u53bb\u4e86 / \u30d6\u30e9\u30c3\u30af\u4f1a\u793e\u306b\u52e4\u3081\u3066\u308b\u3093\u3060\u304c\u3001\u3082\u3046\u4ffa\u306f\u9650\u754c\u304b\u3082\u3057\u308c\u306a\u3044
p3595
sg14
V3666923
p3596
sa(dp3597
g11
Vhttps://movie.douban.com/subject/1292218/
p3598
sg3
V\u4e2d\u592e\u8f66\u7ad9 / Central do Brasil
p3599
sg14
V1292218
p3600
sa(dp3601
g11
Vhttps://movie.douban.com/subject/5323968/
p3602
sg3
V\u73af\u592a\u5e73\u6d0b / Pacific Rim
p3603
sg14
V5323968
p3604
sa(dp3605
g11
Vhttps://movie.douban.com/subject/24858429/
p3606
sg3
V\u6ca1\u6709\u94a5\u5319\u7684\u68a6 / \u9375\u306e\u306a\u3044\u5922\u3092\u898b\u308b
p3607
sg14
V24858429
p3608
sa(dp3609
g11
Vhttps://movie.douban.com/subject/2270401/
p3610
sg3
V20\u5c81\u7684\u604b\u4eba / \u30cf\u30bf\u30c1\u306e\u604b\u4eba
p3611
sg14
V2270401
p3612
sa(dp3613
g11
Vhttps://movie.douban.com/subject/24321344/
p3614
sg3
V\u9762\u5305\u548c\u6c64\u548c\u732b\u54aa\u597d\u5929\u6c14 / \u30d1\u30f3\u3068\u30b9\u30fc\u30d7\u3068\u30cd\u30b3\u65e5\u548c
p3615
sg14
V24321344
p3616
sa(dp3617
g11
Vhttps://movie.douban.com/subject/1293350/
p3618
sg3
V\u4e24\u6746\u5927\u70df\u67aa / Lock, Stock and Two Smoking Barrels
p3619
sg14
V1293350
p3620
sa(dp3621
g11
Vhttps://movie.douban.com/subject/4861542/
p3622
sg3
V\u4e0d\u88ab\u539f\u8c05\u7684\u641c\u67e5\u5b98 / \u30b8\u30e7\u30fc\u30ab\u30fc \u8a31\u3055\u308c\u3056\u308b\u635c\u67fb\u5b98
p3623
sg14
V4861542
p3624
sa(dp3625
g11
Vhttps://movie.douban.com/subject/1291579/
p3626
sg3
V\u602a\u517d\u7535\u529b\u516c\u53f8 / Monsters, Inc.
p3627
sg14
V1291579
p3628
sa(dp3629
g11
Vhttps://movie.douban.com/subject/3789848/
p3630
sg3
V\u602a\u517d\u5927\u5b66 / Monsters University
p3631
sg14
V3789848
p3632
sa(dp3633
g11
Vhttps://movie.douban.com/subject/3087570/
p3634
sg3
V\u5929\u5802\u6765\u7684\u5b69\u5b50
p3635
sg14
V3087570
p3636
sa(dp3637
g11
Vhttps://movie.douban.com/subject/23748525/
p3638
sg3
V\u8fdb\u51fb\u7684\u5de8\u4eba / \u9032\u6483\u306e\u5de8\u4eba
p3639
sg14
V23748525
p3640
sa(dp3641
g11
Vhttps://movie.douban.com/subject/20427087/
p3642
sg3
V\u9ed1\u793e\u4f1a3
p3643
sg14
V20427087
p3644
sa(dp3645
g11
Vhttps://movie.douban.com/subject/6827727/
p3646
sg3
V\u5973\u6027\u763e\u8005\uff1a\u7b2c\u4e00\u90e8 / Nymphomaniac: Volume I
p3647
sg14
V6827727
p3648
sa(dp3649
g11
Vhttps://movie.douban.com/subject/3072086/
p3650
sg3
V\u548c\u838e\u83ab\u7684500\u5929 / (500) Days of Summer
p3651
sg14
V3072086
p3652
sa(dp3653
g11
Vhttps://movie.douban.com/subject/6791750/
p3654
sg3
V\u8d77\u98ce\u4e86 / \u98a8\u7acb\u3061\u306c
p3655
sg14
V6791750
p3656
sa(dp3657
g11
Vhttps://movie.douban.com/subject/1652618/
p3658
sg3
V\u901f\u5ea6\u4e0e\u6fc0\u60c53\uff1a\u4e1c\u4eac\u6f02\u79fb / The Fast and the Furious: Tokyo Drift
p3659
sg14
V1652618
p3660
sa(dp3661
g11
Vhttps://movie.douban.com/subject/24709225/
p3662
sg3
V\u8b66\u90e8\u8865 \u77e2\u90e8\u8c26\u4e092 / \u8b66\u90e8\u88dc \u77e2\u90e8\u8b19\u4e092
p3663
sg14
V24709225
p3664
sa(dp3665
g11
Vhttps://movie.douban.com/subject/3319755/
p3666
sg3
V\u6026\u7136\u5fc3\u52a8 / Flipped
p3667
sg14
V3319755
p3668
sa(dp3669
g11
Vhttps://movie.douban.com/subject/10440112/
p3670
sg3
V\u603b\u800c\u8a00\u4e4b \u7b2c\u4e00\u5b63 / Bref Season 1
p3671
sg14
V10440112
p3672
sa(dp3673
g11
Vhttps://movie.douban.com/subject/21417412/
p3674
sg3
V\u786e\u8bc1\uff1a\u8b66\u89c6\u5385\u641c\u67e53\u8bfe / \u78ba\u8a3c\uff5e\u8b66\u8996\u5e81\u635c\u67fb3\u8ab2
p3675
sg14
V21417412
p3676
sa(dp3677
g11
Vhttps://movie.douban.com/subject/20399275/
p3678
sg3
V\u665a\u9910 / dinner
p3679
sg14
V20399275
p3680
sa(dp3681
g11
Vhttps://movie.douban.com/subject/1301359/
p3682
sg3
V\u4e94\u4e2a\u6251\u6c34\u7684\u5c11\u5e74 / \u30a6\u30a9\u30fc\u30bf\u30fc\u30dc\u30fc\u30a4\u30ba
p3683
sg14
V1301359
p3684
sa(dp3685
g11
Vhttps://movie.douban.com/subject/2215899/
p3686
sg3
V\u604b\u7231\u5947\u8ff9 / \u604b\u306e\u5947\u8de1
p3687
sg14
V2215899
p3688
sa(dp3689
g11
Vhttps://movie.douban.com/subject/2149047/
p3690
sg3
V\u5e7f\u544a\u72c2\u4eba \u7b2c\u4e00\u5b63 / Mad Men Season 1
p3691
sg14
V2149047
p3692
sa(dp3693
g11
Vhttps://movie.douban.com/subject/2017805/
p3694
sg3
V14\u5c81\u7684\u6bcd\u4eb2 / 14\u624d\u306e\u6bcd \u611b\u3059\u308b\u305f\u3081\u306b \u751f\u307e\u308c\u3066\u304d\u305f
p3695
sg14
V2017805
p3696
sa(dp3697
g11
Vhttps://movie.douban.com/subject/1300899/
p3698
sg3
V\u4e0a\u6d77\u5f02\u4eba\u5a3c\u9986 / Les fruits de la passion
p3699
sg14
V1300899
p3700
sa(dp3701
g11
Vhttps://movie.douban.com/subject/3196686/
p3702
sg3
V\u9b54\u738b
p3703
sg14
V3196686
p3704
sa(dp3705
g11
Vhttps://movie.douban.com/subject/3178801/
p3706
sg3
V\u751c\u871c\u7684\u5b63\u8282 / Sweet Season
p3707
sg14
V3178801
p3708
sa(dp3709
g11
Vhttps://movie.douban.com/subject/3992169/
p3710
sg3
VJET\u63a8\u7406\u5267\u573a / \u5973\u3068\u611b\u3068\u30df\u30b9\u30c6\u30ea\u30fc
p3711
sg14
V3992169
p3712
sa(dp3713
g11
Vhttps://movie.douban.com/subject/10355623/
p3714
sg3
V\u8df3\u8dc3\u5927\u641c\u67e5\u7ebf\u6700\u7ec8\u7bc7\uff1a\u65b0\u7684\u5e0c\u671b / \u8e0a\u308b\u5927\u635c\u67fb\u7dda THE FINAL \u65b0\u305f\u306a\u308b\u5e0c\u671b
p3715
sg14
V10355623
p3716
sa(dp3717
g11
Vhttps://movie.douban.com/subject/6974439/
p3718
sg3
V\u5411\u65e5\u8475\u4e0e\u5e7c\u72ac\u76847\u5929 / \u3072\u307e\u308f\u308a\u3068\u5b50\u72ac\u306e7\u65e5\u9593
p3719
sg14
V6974439
p3720
sa(dp3721
g11
Vhttps://movie.douban.com/subject/1316572/
p3722
sg3
V\u5bfc\u76f2\u72ac\u5c0fQ / \u30af\u30a4\u30fc\u30eb
p3723
sg14
V1316572
p3724
sa(dp3725
g11
Vhttps://movie.douban.com/subject/1291832/
p3726
sg3
V\u4f4e\u4fd7\u5c0f\u8bf4 / Pulp Fiction
p3727
sg14
V1291832
p3728
sa(dp3729
g11
Vhttps://movie.douban.com/subject/10462705/
p3730
sg3
V\u767d\u91d1\u6570\u636e / \u30d7\u30e9\u30c1\u30ca\u30c7\u30fc\u30bf
p3731
sg14
V10462705
p3732
sa(dp3733
g11
Vhttps://movie.douban.com/subject/1305725/
p3734
sg3
V\u5927\u536b\u6208\u5c14\u7684\u4e00\u751f / The Life of David Gale
p3735
sg14
V1305725
p3736
sa(dp3737
g11
Vhttps://movie.douban.com/subject/1422289/
p3738
sg3
V\u5496\u5561\u9986\u91cc\u7684\u5973\u5b69 / The Girl in the Caf
p3739
sg14
V1422289
p3740
sa(dp3741
g11
Vhttps://movie.douban.com/subject/19997950/
p3742
sg3
V\u505a\u6211\u7684\u5974\u96b6 / \u79c1\u306e\u5974\u96b7\u306b\u306a\u308a\u306a\u3055\u3044
p3743
sg14
V19997950
p3744
sa(dp3745
g11
Vhttps://movie.douban.com/subject/3094909/
p3746
sg3
V\u4e4c\u4e91\u80cc\u540e\u7684\u5e78\u798f\u7ebf / Silver Linings Playbook
p3747
sg14
V3094909
p3748
sa(dp3749
g11
Vhttps://movie.douban.com/subject/1482286/
p3750
sg3
V\u51b0\u4e0a\u604b\u4eba / \u30d7\u30e9\u30a4\u30c9
p3751
sg14
V1482286
p3752
sa(dp3753
g11
Vhttps://movie.douban.com/subject/3711602/
p3754
sg3
V\u6625\u4e0e\u590f~\u8fdf\u8fdf\u672a\u5230\u7684\u4fe1 / \u30cf\u30eb\u3068\u30ca\u30c4 \u5c4a\u304b\u306a\u304b\u3063\u305f\u624b\u7d19
p3755
sg14
V3711602
p3756
sa(dp3757
g11
Vhttps://movie.douban.com/subject/10833925/
p3758
sg3
V\u732b\u54aa\u7269\u8bed5 / \u306b\u3083\u3093\u3053 THE MOVIE 5
p3759
sg14
V10833925
p3760
sa(dp3761
g11
Vhttps://movie.douban.com/subject/20411187/
p3762
sg3
V\u5361\u62c9\u9a6c\u4f50\u592b\u5144\u5f1f / \u30ab\u30e9\u30de\u30fc\u30be\u30d5\u306e\u5144\u5f1f
p3763
sg14
V20411187
p3764
sa(dp3765
g11
Vhttps://movie.douban.com/subject/3011051/
p3766
sg3
V\u6050\u6016\u6e38\u8f6e / Triangle
p3767
sg14
V3011051
p3768
sa(dp3769
g11
Vhttps://movie.douban.com/subject/4731049/
p3770
sg3
V\u5fae\u901f\u6444\u5f71\uff1a\u6d41\u901d\u7684\u5927\u81ea\u7136 / Nature Time Lapse
p3771
sg14
V4731049
p3772
sa(dp3773
g11
Vhttps://movie.douban.com/subject/11615928/
p3774
sg3
VPiece
p3775
sg14
V11615928
p3776
sa(dp3777
g11
Vhttps://movie.douban.com/subject/14089996/
p3778
sg3
V\u533f\u540d\u4fa6\u63a2 / \u533f\u540d\u63a2\u5075
p3779
sg14
V14089996
p3780
sa(dp3781
g11
Vhttps://movie.douban.com/subject/3754368/
p3782
sg3
V\u50b2\u9aa8\u8d24\u59bb \u7b2c\u4e00\u5b63 / The Good Wife Season 1
p3783
sg14
V3754368
p3784
sa(dp3785
g11
Vhttps://movie.douban.com/subject/1860565/
p3786
sg3
V\u57ce\u5e02\u730e\u4eba / \u30b7\u30c6\u30a3\u30fc\u30cf\u30f3\u30bf\u30fc
p3787
sg14
V1860565
p3788
sa(dp3789
g11
Vhttps://movie.douban.com/subject/4023638/
p3790
sg3
V\u56fd\u738b\u7684\u6f14\u8bb2 / The King's Speech
p3791
sg14
V4023638
p3792
sa(dp3793
g11
Vhttps://movie.douban.com/subject/6791675/
p3794
sg3
V\u65e5\u672c\u5217\u5c9b \u52a8\u7269\u7269\u8bed / \u65e5\u672c\u5217\u5cf6 \u3044\u304d\u3082\u306e\u305f\u3061\u306e\u7269\u8a9e
p3795
sg14
V6791675
p3796
sa(dp3797
g11
Vhttps://movie.douban.com/subject/1304304/
p3798
sg3
V\u6731\u4e3d\u53f6\u4e0e\u6881\u5c71\u4f2f
p3799
sg14
V1304304
p3800
sa(dp3801
g11
Vhttps://movie.douban.com/subject/6091423/
p3802
sg3
V\u72d7\u4e0e\u8b66\u5bdf / DOGPOLICE \u7d14\u767d\u306e\u7d46
p3803
sg14
V6091423
p3804
sa(dp3805
g11
Vhttps://movie.douban.com/subject/2124586/
p3806
sg3
V\u98d3\u98ce\u8425\u6551 / Taken
p3807
sg14
V2124586
p3808
sa(dp3809
g11
Vhttps://movie.douban.com/subject/1418752/
p3810
sg3
V\u4e07\u80fd\u94a5\u5319 / The Skeleton Key
p3811
sg14
V1418752
p3812
sa(dp3813
g11
Vhttps://movie.douban.com/subject/6008453/
p3814
sg3
V\u4e71\u53cd\u5c04
p3815
sg14
V6008453
p3816
sa(dp3817
g11
Vhttps://movie.douban.com/subject/6008454/
p3818
sg3
V\u96ea\u7247\u83b2 / \u30b9\u30ce\u30fc\u30d5\u30ec\u30fc\u30af
p3819
sg14
V6008454
p3820
sa(dp3821
g11
Vhttps://movie.douban.com/subject/3818950/
p3822
sg3
V\u7981\u5ba4\u57f9\u6b323\uff1a\u9999\u6e2f\u60c5\u591c / \u7981\u5ba4\u57f9\u617e3\uff1a\u9999\u6e2f\u60c5\u591c
p3823
sg14
V3818950
p3824
sa(dp3825
g11
Vhttps://movie.douban.com/subject/3143676/
p3826
sg3
V\u6797\u4e2d\u5c0f\u5c4b / The Cabin in the Woods
p3827
sg14
V3143676
p3828
sa(dp3829
g11
Vhttps://movie.douban.com/subject/13939691/
p3830
sg3
V\u4e1c\u4eac\u5168\u529b\u5c11\u5973 / \u6771\u4eac\u5168\u529b\u5c11\u5973
p3831
sg14
V13939691
p3832
sa(dp3833
g11
Vhttps://movie.douban.com/subject/1292515/
p3834
sg3
V\u7528\u5fc3\u68d2
p3835
sg14
V1292515
p3836
sa(dp3837
g11
Vhttps://movie.douban.com/subject/3395373/
p3838
sg3
V\u8759\u8760\u4fa0\uff1a\u9ed1\u6697\u9a91\u58eb\u5d1b\u8d77 / The Dark Knight Rises
p3839
sg14
V3395373
p3840
sa(dp3841
g11
Vhttps://movie.douban.com/subject/10774069/
p3842
sg3
V\u603b\u5728\u54ed\u6ce3 / \u4e3b\u306b\u6ce3\u3044\u3066\u307e\u3059
p3843
sg14
V10774069
p3844
sa(dp3845
g11
Vhttps://movie.douban.com/subject/4885994/
p3846
sg3
V\u795e\u7684\u75c5\u5386\u7c3f / \u795e\u69d8\u306e\u30ab\u30eb\u30c6
p3847
sg14
V4885994
p3848
sa(dp3849
g11
Vhttps://movie.douban.com/subject/4102948/
p3850
sg3
V\u795e\u6237\u65e5\u62a5\u76847\u5929 / \u795e\u6238\u65b0\u805e\u306e7\u65e5\u9593 \uff5e\u547d\u3068\u5411\u304d\u5408\u3063\u305f\u88ab\u707d\u8a18\u8005\u305f\u3061\u306e\u95d8\u3044\uff5e
p3851
sg14
V4102948
p3852
sa(dp3853
g11
Vhttps://movie.douban.com/subject/10763982/
p3854
sg3
V\u8b66\u89c6\u5385\u641c\u67e5\u4e00\u8bfe9\u7cfb \u7b2c\u4e03\u5b63 / \u8b66\u8996\u5e81\u635c\u67fb\u4e00\u8ab29\u4fc2 season7
p3855
sg14
V10763982
p3856
sa(dp3857
g11
Vhttps://movie.douban.com/subject/1867345/
p3858
sg3
V\u9057\u613f\u6e05\u5355 / The Bucket List
p3859
sg14
V1867345
p3860
sa(dp3861
g11
Vhttps://movie.douban.com/subject/1296217/
p3862
sg3
V\u4e00\u7ea7\u6050\u60e7 / Primal Fear
p3863
sg14
V1296217
p3864
sa(dp3865
g11
Vhttps://movie.douban.com/subject/6005599/
p3866
sg3
V\u4e27\u5931\u540d\u5b57\u7684\u5973\u795e / \u540d\u524d\u3092\u306a\u304f\u3057\u305f\u5973\u795e
p3867
sg14
V6005599
p3868
sa(dp3869
g11
Vhttps://movie.douban.com/subject/4303624/
p3870
sg3
V\u6bcd\u4eb2 / Mother
p3871
sg14
V4303624
p3872
sa(dp3873
g11
Vhttps://movie.douban.com/subject/3001077/
p3874
sg3
V\u8c0d\u5f71\u91cd\u91cd4 / The Bourne Legacy
p3875
sg14
V3001077
p3876
sa(dp3877
g11
Vhttps://movie.douban.com/subject/6786002/
p3878
sg3
V\u89e6\u4e0d\u53ef\u53ca / Intouchables
p3879
sg14
V6786002
p3880
sa(dp3881
g11
Vhttps://movie.douban.com/subject/1951141/
p3882
sg3
V\u6025\u901f\u5f15\u64ce / \u30a8\u30f3\u30b8\u30f3
p3883
sg14
V1951141
p3884
sa(dp3885
g11
Vhttps://movie.douban.com/subject/1308844/
p3886
sg3
V\u5bb3\u866b
p3887
sg14
V1308844
p3888
sa(dp3889
g11
Vhttps://movie.douban.com/subject/6129706/
p3890
sg3
V\u9ad8\u6821\u75de\u5b50\u7530\u4e2d / \u30a2\u30d5\u30ed\u7530\u4e2d
p3891
sg14
V6129706
p3892
sa(dp3893
g11
Vhttps://movie.douban.com/subject/4914468/
p3894
sg3
V\u51b0\u5ddd\u65f6\u4ee34 / Ice Age: Continental Drift
p3895
sg14
V4914468
p3896
sa(dp3897
g11
Vhttps://movie.douban.com/subject/1337286/
p3898
sg3
V\u7edd\u671b\u4e3b\u5987 \u7b2c\u4e00\u5b63 / Desperate Housewives Season 1
p3899
sg14
V1337286
p3900
sa(dp3901
g11
Vhttps://movie.douban.com/subject/11504616/
p3902
sg3
V\u6bdb\u9aa8\u609a\u7136\u649e\u9b3c\u7ecf 2012\u590f\u5b63\u7279\u522b\u7bc7 / \u307b\u3093\u3068\u306b\u3042\u3063\u305f\u6016\u3044\u8a71 \u590f\u306e\u7279\u5225\u7de82012
p3903
sg14
V11504616
p3904
sa(dp3905
g11
Vhttps://movie.douban.com/subject/1299607/
p3906
sg3
V\u4e1c\u4eac\u65e5\u548c / \u6771\u4eac\u65e5\u548c
p3907
sg14
V1299607
p3908
sa(dp3909
g11
Vhttps://movie.douban.com/subject/10521691/
p3910
sg3
V\u6765\u4e00\u53d1\u5c04\u51fb\u5427Rock / \u30a8\u30a2\u30fc\u30ba\u30ed\u30c3\u30af
p3911
sg14
V10521691
p3912
sa(dp3913
g11
Vhttps://movie.douban.com/subject/6430825/
p3914
sg3
V\u71c3\u60c5\u514b\u5229\u592b\u5170 \u7b2c\u4e09\u5b63 / Hot in Cleveland Season 3
p3915
sg14
V6430825
p3916
sa(dp3917
g11
Vhttps://movie.douban.com/subject/3178770/
p3918
sg3
V\u9a6c\u8fbe\u52a0\u65af\u52a03 / Madagascar 3: Europe's Most Wanted
p3919
sg14
V3178770
p3920
sa(dp3921
g11
Vhttps://movie.douban.com/subject/10827165/
p3922
sg3
V\u5bb6\u4eba\u79df\u8d41 Family Complex / \u5bb6\u65cf\u3001\u8cb8\u3057\u307e\u3059 \u301c\u30d5\u30a1\u30df\u30ea\u30fc\u30fb\u30b3\u30f3\u30d7\u30ec\u30c3\u30af\u30b9\u301c
p3923
sg14
V10827165
p3924
sa(dp3925
g11
Vhttps://movie.douban.com/subject/10740303/
p3926
sg3
V\u7f8e\u96e8 / \u30d3\u30e5\u30fc\u30c6\u30a3\u30d5\u30eb\u30ec\u30a4\u30f3
p3927
sg14
V10740303
p3928
sa(dp3929
g11
Vhttps://movie.douban.com/subject/1419582/
p3930
sg3
V\u4e1c\u4eac\u5854 / \u6771\u4eac\u30bf\u30ef\u30fc
p3931
sg14
V1419582
p3932
sa(dp3933
g11
Vhttps://movie.douban.com/subject/4905040/
p3934
sg3
V\u5438\u8840\u9b3c\u65e5\u8bb0  \u7b2c\u4e8c\u5b63 / The Vampire Diaries Season 2
p3935
sg14
V4905040
p3936
sa(dp3937
g11
Vhttps://movie.douban.com/subject/2263105/
p3938
sg3
V\u574f\u5bb6\u4f19 / \u30ef\u30eb\u30dc\u30ed
p3939
sg14
V2263105
p3940
sa(dp3941
g11
Vhttps://movie.douban.com/subject/3740100/
p3942
sg3
V\u5fae\u7b11 / \u30b9\u30de\u30a4\u30eb
p3943
sg14
V3740100
p3944
sa(dp3945
g11
Vhttps://movie.douban.com/subject/3615019/
p3946
sg3
V\u539f\u6765\u4f60\u5df2\u4e0d\u5728\u8eab\u8fb9 / \u305d\u3046\u304b\u3001\u3082\u3046\u541b\u306f\u3044\u306a\u3044\u306e\u304b
p3947
sg14
V3615019
p3948
sa(dp3949
g11
Vhttps://movie.douban.com/subject/2074551/
p3950
sg3
V\u79d8\u5bc6\u82b1\u56ed / \u30d2\u30df\u30c4\u306e\u82b1\u5712
p3951
sg14
V2074551
p3952
sa(dp3953
g11
Vhttps://movie.douban.com/subject/6128003/
p3954
sg3
V\u7231\u5728\u7f57\u9a6c / To Rome with Love
p3955
sg14
V6128003
p3956
sa(dp3957
g11
Vhttps://movie.douban.com/subject/1309046/
p3958
sg3
VV\u5b57\u4ec7\u6740\u961f / V for Vendetta
p3959
sg14
V1309046
p3960
sa(dp3961
g11
Vhttps://movie.douban.com/subject/10767552/
p3962
sg3
V\u65e0\u6cd5\u547c\u5438\u7684\u590f\u5929 / \u606f\u3082\u3067\u304d\u306a\u3044\u590f
p3963
sg14
V10767552
p3964
sa(dp3965
g11
Vhttps://movie.douban.com/subject/3560787/
p3966
sg3
V\u56de\u5fc6\u79ef\u6728\u5c0f\u5c4b / \u3064\u307f\u304d\u306e\u3044\u3048
p3967
sg14
V3560787
p3968
sa(dp3969
g11
Vhttps://movie.douban.com/subject/2270554/
p3970
sg3
V\u7275\u7eca\u7684\u7231 / \u3042\u3044\u304f\u308b\u3057\u3044
p3971
sg14
V2270554
p3972
sa(dp3973
g11
Vhttps://movie.douban.com/subject/10527294/
p3974
sg3
V\u767d\u718a\u5496\u5561\u9986 / \u3057\u308d\u304f\u307e\u30ab\u30d5\u30a7
p3975
sg14
V10527294
p3976
sa(dp3977
g11
Vhttps://movie.douban.com/subject/10465128/
p3978
sg3
V\u81ea\u95ed\u5929\u624d / ATARU
p3979
sg14
V10465128
p3980
sa(dp3981
g11
Vhttps://movie.douban.com/subject/4885995/
p3982
sg3
V\u4e86\u4e0d\u8d77\u7684\u4ea1\u7075 / \u30b9\u30c6\u30ad\u306a\u91d1\u7e1b\u308a
p3983
sg14
V4885995
p3984
sa(dp3985
g11
Vhttps://movie.douban.com/subject/4022138/
p3986
sg3
V\u6d77\u8fb9\u65c5\u5e97 / \u30b7\u30fc\u30b5\u30a4\u30c9\u30e2\u30fc\u30c6\u30eb
p3987
sg14
V4022138
p3988
sa(dp3989
g11
Vhttps://movie.douban.com/subject/3039187/
p3990
sg3
V\u963f\u57fa\u91cc\u65af\u4e0e\u9f9f / \u30a2\u30ad\u30ec\u30b9\u3068\u4e80
p3991
sg14
V3039187
p3992
sa(dp3993
g11
Vhttps://movie.douban.com/subject/10606047/
p3994
sg3
V\u5c0f\u4eac\u90fd\u9023\u7d9a\u6bba\u4eba\u4e8b\u4ef6\uff5e\u30b9\u30d1\u30a4\u30b9\u306f\u5fa9\u8b90\u306e\u5473\uff5e
p3995
sg14
V10606047
p3996
sa(dp3997
g11
Vhttps://movie.douban.com/subject/10508896/
p3998
sg3
VW\u7684\u60b2\u5267 / W\u306e\u60b2\u5287
p3999
sg14
V10508896
p4000
sa(dp4001
g11
Vhttps://movie.douban.com/subject/2286848/
p4002
sg3
V\u963f\u5357\u7684\u5c0f\u60c5\u4eba / \u5357\u304f\u3093\u306e\u604b\u4eba
p4003
sg14
V2286848
p4004
sa(dp4005
g11
Vhttps://movie.douban.com/subject/3986152/
p4006
sg3
V\u540c\u6816\u751f\u6d3b / \u30d1\u30ec\u30fc\u30c9
p4007
sg14
V3986152
p4008
sa(dp4009
g11
Vhttps://movie.douban.com/subject/3824274/
p4010
sg3
V\u523a\u732c\u7684\u4f18\u96c5 / Le hrisson
p4011
sg14
V3824274
p4012
sa(dp4013
g11
Vhttps://movie.douban.com/subject/5998916/
p4014
sg3
V\u62c2\u6653\u4e4b\u8857 / \u591c\u660e\u3051\u306e\u8857\u3067
p4015
sg14
V5998916
p4016
sa(dp4017
g11
Vhttps://movie.douban.com/subject/1299383/
p4018
sg3
V\u6700\u540e\u7684\u6b66\u58eb / The Last Samurai
p4019
sg14
V1299383
p4020
sa(dp4021
g11
Vhttps://movie.douban.com/subject/10527228/
p4022
sg3
V\u7238\u7238\u662f\u5076\u50cf / \u30d1\u30d1\u30c9\u30eb!
p4023
sg14
V10527228
p4024
sa(dp4025
g11
Vhttps://movie.douban.com/subject/4924142/
p4026
sg3
V\u65f6\u95f4\u89c4\u5212\u5c40 / In Time
p4027
sg14
V4924142
p4028
sa(dp4029
g11
Vhttps://movie.douban.com/subject/6886481/
p4030
sg3
V\u795d\u5973 \u7b2c\u4e09\u5b63 / \u795d\u5973\u301cshukujo\u301c Season 3
p4031
sg14
V6886481
p4032
sa(dp4033
g11
Vhttps://movie.douban.com/subject/3068206/
p4034
sg3
V\u789f\u4e2d\u8c0d4 / Mission: Impossible - Ghost Protocol
p4035
sg14
V3068206
p4036
sa(dp4037
g11
Vhttps://movie.douban.com/subject/7055666/
p4038
sg3
V13\u5c81\u7684Hello Work / 13\u6b73\u306e\u30cf\u30ed\u30fc\u30ef\u30fc\u30af
p4039
sg14
V7055666
p4040
sa(dp4041
g11
Vhttps://movie.douban.com/subject/3071509/
p4042
sg3
V\u540e\u88d4 / The Descendants
p4043
sg14
V3071509
p4044
sa(dp4045
g11
Vhttps://movie.douban.com/subject/7051222/
p4046
sg3
VL et M \u6211\u7231\u4f60\u7684\u7406\u7531 / L et M \u308f\u305f\u3057\u304c\u3042\u306a\u305f\u3092\u611b\u3059\u308b\u7406\u7531\u3001\u305d\u306e\u307b\u304b\u306e\u7269\u8a9e
p4047
sg14
V7051222
p4048
sa(dp4049
g11
Vhttps://movie.douban.com/subject/7065168/
p4050
sg3
V\u5b64\u72ec\u7684\u7f8e\u98df\u5bb6 \u7b2c\u4e00\u5b63 / \u5b64\u72ec\u306e\u30b0\u30eb\u30e1 Season1
p4051
sg14
V7065168
p4052
sa(dp4053
g11
Vhttps://movie.douban.com/subject/10461376/
p4054
sg3
V\u9ed1\u677f \u7b2c1\u591c / \u30d6\u30e9\u30c3\u30af\u30dc\u30fc\u30c9 \u7b2c1\u591c
p4055
sg14
V10461376
p4056
sa(dp4057
g11
Vhttps://movie.douban.com/subject/4853689/
p4058
sg3
V\u5a5a\u524d\u7279\u6025
p4059
sg14
V4853689
p4060
sa(dp4061
g11
Vhttps://movie.douban.com/subject/4051753/
p4062
sg3
V\u5927\u4fa6\u63a2\u798f\u5c14\u6469\u65af2\uff1a\u8be1\u5f71\u6e38\u620f / Sherlock Holmes: A Game of Shadows
p4063
sg14
V4051753
p4064
sa(dp4065
g11
Vhttps://movie.douban.com/subject/6724901/
p4066
sg3
V\u8349\u8393\u4e4b\u591c / \u30b9\u30c8\u30ed\u30d9\u30ea\u30fc\u30ca\u30a4\u30c8
p4067
sg14
V6724901
p4068
sa(dp4069
g11
Vhttps://movie.douban.com/subject/4720908/
p4070
sg3
V\u5973\u5b69\u81ea\u6bc0\u4e4b\u751f\u6d3b\u6307\u5357 / SuicideGirls: Guide to Living
p4071
sg14
V4720908
p4072
sa(dp4073
g11
Vhttps://movie.douban.com/subject/10453705/
p4074
sg3
V\u79c1\u5bb6\u4fa6\u63a2 \u771f\u58c1\u9f99 / \u79c1\u7acb\u63a2\u5075 \u771f\u58c1\u30ea\u30e5\u30a6
p4075
sg14
V10453705
p4076
sa(dp4077
g11
Vhttps://movie.douban.com/subject/6968114/
p4078
sg3
V\u6700\u5b8c\u7f8e\u7684\u4eba\u751f\u7ec8\u70b9 / \u6700\u9ad8\u306e\u4eba\u751f\u306e\u7d42\u308a\u65b9 \uff5e\u30a8\u30f3\u30c7\u30a3\u30f3\u30b0\u30d7\u30e9\u30f3\u30ca\u30fc\uff5e
p4079
sg14
V6968114
p4080
sa(dp4081
g11
Vhttps://movie.douban.com/subject/5153024/
p4082
sg3
V\u70ed\u6d77\u7684\u641c\u67e5\u5b98 / \u71b1\u6d77\u306e\u635c\u67fb\u5b98
p4083
sg14
V5153024
p4084
sa(dp4085
g11
Vhttps://movie.douban.com/subject/3771656/
p4086
sg3
V\u5947\u8ff9\u7231\u60c5\u7269\u8bed / \u30a6\u30eb\u30c8\u30e9\u30df\u30e9\u30af\u30eb\u30e9\u30d6\u30b9\u30c8\u30fc\u30ea\u30fc
p4087
sg14
V3771656
p4088
sa(dp4089
g11
Vhttps://movie.douban.com/subject/6829656/
p4090
sg3
V\u6700\u5f3a\u7684\u540d\u533b / DOCTORS \u6700\u5f37\u306e\u540d\u533b
p4091
sg14
V6829656
p4092
sa(dp4093
g11
Vhttps://movie.douban.com/subject/4934988/
p4094
sg3
V\u962a\u6025\u7535\u8f66 \u5355\u7a0b15\u5206\u7684\u5947\u8ff9 / \u962a\u6025\u96fb\u8eca \u7247\u905315\u5206\u306e\u5947\u8de1
p4095
sg14
V4934988
p4096
sa(dp4097
g11
Vhttps://movie.douban.com/subject/1298989/
p4098
sg3
V\u6027\u4e66\u5927\u4ea8 / The People vs. Larry Flynt
p4099
sg14
V1298989
p4100
sa(dp4101
g11
Vhttps://movie.douban.com/subject/3089571/
p4102
sg3
V\u603b\u7edf\u6740\u5c40 / The Ides of March
p4103
sg14
V3089571
p4104
sa(dp4105
g11
Vhttps://movie.douban.com/subject/5247055/
p4106
sg3
V\u6d41\u661f / \u6d41\u308c\u661f
p4107
sg14
V5247055
p4108
sa(dp4109
g11
Vhttps://movie.douban.com/subject/2222996/
p4110
sg3
V\u6b65\u5c65\u4e0d\u505c / \u6b69\u3044\u3066\u3082 \u6b69\u3044\u3066\u3082
p4111
sg14
V2222996
p4112
sa(dp4113
g11
Vhttps://movie.douban.com/subject/6738712/
p4114
sg3
V\u5973\u5b69 / \u30ac\u30fc\u30eb
p4115
sg14
V6738712
p4116
sa(dp4117
g11
Vhttps://movie.douban.com/subject/3792848/
p4118
sg3
V\u76f8\u52a9 / The Help
p4119
sg14
V3792848
p4120
sa(dp4121
g11
Vhttps://movie.douban.com/subject/1433577/
p4122
sg3
V\u8d5b\u672b\u70b9 / Match Point
p4123
sg14
V1433577
p4124
sa(dp4125
g11
Vhttps://movie.douban.com/subject/1950148/
p4126
sg3
V\u8d4e\u7f6a / Atonement
p4127
sg14
V1950148
p4128
sa(dp4129
g11
Vhttps://movie.douban.com/subject/3093205/
p4130
sg3
V\u4fe1\u5b50\uff0c36\u5c81 / \u30ce\u30f3\u5b5036\u6b73\uff08\u5bb6\u4e8b\u624b\u4f1d\u3044\uff09
p4131
sg14
V3093205
p4132
sa(dp4133
g11
Vhttps://movie.douban.com/subject/1972729/
p4134
sg3
V\u94c1\u7532\u94a2\u62f3 / Real Steel
p4135
sg14
V1972729
p4136
sa(dp4137
g11
Vhttps://movie.douban.com/subject/1302827/
p4138
sg3
V\u4eba\u5de5\u667a\u80fd / Artificial Intelligence: AI
p4139
sg14
V1302827
p4140
sa(dp4141
g11
Vhttps://movie.douban.com/subject/5387025/
p4142
sg3
V\u5395\u6240\u5973\u795e / \u30c8\u30a4\u30ec\u306e\u795e\u69d8
p4143
sg14
V5387025
p4144
sa(dp4145
g11
Vhttps://movie.douban.com/subject/2334904/
p4146
sg3
V\u7981\u95ed\u5c9b / Shutter Island
p4147
sg14
V2334904
p4148
sa(dp4149
g11
Vhttps://movie.douban.com/subject/5966473/
p4150
sg3
V\u82b1\u82b1\u516c\u5b50\u4ff1\u4e50\u90e8 / The Playboy Club
p4151
sg14
V5966473
p4152
sa(dp4153
g11
Vhttps://movie.douban.com/subject/3022209/
p4154
sg3
V\u83dc\u9e1f\u603b\u52a8\u5458 / ROOKIES
p4155
sg14
V3022209
p4156
sa(dp4157
g11
Vhttps://movie.douban.com/subject/3329193/
p4158
sg3
V\u4e0d\u6c89\u7684\u592a\u9633 / \u6c88\u307e\u306c\u592a\u967d
p4159
sg14
V3329193
p4160
sa(dp4161
g11
Vhttps://movie.douban.com/subject/4058963/
p4162
sg3
V\u975e\u5e38\u5c0f\u7279\u5de5\u4e4b\u65f6\u95f4\u5927\u76d7 / Spy Kids: All the Time in the World
p4163
sg14
V4058963
p4164
sa(dp4165
g11
Vhttps://movie.douban.com/subject/6527299/
p4166
sg3
V\u5728\u8fd9\u4e16\u754c\u7684\u89d2\u843d / \u3053\u306e\u4e16\u754c\u306e\u7247\u9685\u306b
p4167
sg14
V6527299
p4168
sa(dp4169
g11
Vhttps://movie.douban.com/subject/4944034/
p4170
sg3
VQ10
p4171
sg14
V4944034
p4172
sa(dp4173
g11
Vhttps://movie.douban.com/subject/2157191/
p4174
sg3
V\u7b11\u770b\u98ce\u4e91 / \u7b11\u770b\u98a8\u96f2
p4175
sg14
V2157191
p4176
sa(dp4177
g11
Vhttps://movie.douban.com/subject/6116543/
p4178
sg3
V\u8352\u5ddd\u7206\u7b11\u56e2 \u7535\u5f71\u7248 / \u8352\u5ddd\u30a2\u30f3\u30c0\u30fc \u30b6 \u30d6\u30ea\u30c3\u30b8 THE MOVIE
p4179
sg14
V6116543
p4180
sa(dp4181
g11
Vhttps://movie.douban.com/subject/4317617/
p4182
sg3
V\u59ae\u57fa\u5854 \u7b2c\u4e00\u5b63 / Nikita Season 1
p4183
sg14
V4317617
p4184
sa(dp4185
g11
Vhttps://movie.douban.com/subject/1307323/
p4186
sg3
V\u5929\u4e0b\u65e0\u53cc
p4187
sg14
V1307323
p4188
sa(dp4189
g11
Vhttps://movie.douban.com/subject/5964764/
p4190
sg3
V\u94c3\u6728\u8001\u5e08 / \u9234\u6728\u5148\u751f
p4191
sg14
V5964764
p4192
sa(dp4193
g11
Vhttps://movie.douban.com/subject/1986021/
p4194
sg3
V\u897f\u74dc / \u3059\u3044\u304b
p4195
sg14
V1986021
p4196
sa(dp4197
g11
Vhttps://movie.douban.com/subject/4603531/
p4198
sg3
V\u660e\u65e5\u4e4b\u4e08 / \u3042\u3057\u305f\u306e\u30b8\u30e7\u30fc
p4199
sg14
V4603531
p4200
sa(dp4201
g11
Vhttps://movie.douban.com/subject/5152837/
p4202
sg3
V\u76f8\u6251\u5973\u5b69 / \u571f\u4ff5\u30ac\u30fc\u30eb\uff01
p4203
sg14
V5152837
p4204
sa(dp4205
g11
Vhttps://movie.douban.com/subject/1905462/
p4206
sg3
V\u8352\u91ce\u751f\u5b58 / Into the Wild
p4207
sg14
V1905462
p4208
sa(dp4209
g11
Vhttps://movie.douban.com/subject/1295460/
p4210
sg3
V\u6027\u7231\u5b9d\u5178 / Everything You Always Wanted to Know About Sex * But Were Afraid to Ask
p4211
sg14
V1295460
p4212
sa(dp4213
g11
Vhttps://movie.douban.com/subject/4826178/
p4214
sg3
V\u8c0b\u6740 \u7b2c\u4e00\u5b63 / The Killing Season 1
p4215
sg14
V4826178
p4216
sa(dp4217
g11
Vhttps://movie.douban.com/subject/4164444/
p4218
sg3
V127\u5c0f\u65f6 / 127 Hours
p4219
sg14
V4164444
p4220
sa(dp4221
g11
Vhttps://movie.douban.com/subject/1292444/
p4222
sg3
V\u5927\u9003\u6740 / \u30d0\u30c8\u30eb\u30fb\u30ed\u30ef\u30a4\u30a2\u30eb
p4223
sg14
V1292444
p4224
sa(dp4225
g11
Vhttps://movie.douban.com/subject/2056865/
p4226
sg3
V\u60c5\u5b9a\u5927\u996d\u5e97 / \u30db\u30c6\u30ea\u30a2\u30fc
p4227
sg14
V2056865
p4228
sa(dp4229
g11
Vhttps://movie.douban.com/subject/1464838/
p4230
sg3
V\u9ebb\u8fa3\u6559\u5e08 / GTO: Great Teacher Onizuka
p4231
sg14
V1464838
p4232
sa(dp4233
g11
Vhttps://movie.douban.com/subject/1464839/
p4234
sg3
V\u51b0\u4e4b\u4e16\u754c / \u6c37\u306e\u4e16\u754c
p4235
sg14
V1464839
p4236
sa(dp4237
g11
Vhttps://movie.douban.com/subject/4921517/
p4238
sg3
V\u5929\u6865\u9a84\u5b50  \u7b2c\u516b\u5b63 / Project Runway Season 8
p4239
sg14
V4921517
p4240
sa(dp4241
g11
Vhttps://movie.douban.com/subject/2054024/
p4242
sg3
V\u5988\u5988\u54aa\u5440 / Mamma Mia!
p4243
sg14
V2054024
p4244
sa(dp4245
g11
Vhttps://movie.douban.com/subject/3346464/
p4246
sg3
V\u7ed9\u6731\u4e3d\u53f6\u7684\u4fe1 / Letters to Juliet
p4247
sg14
V3346464
p4248
sa(dp4249
g11
Vhttps://movie.douban.com/subject/5381258/
p4250
sg3
V\u5e94\u53ec\u5973\u90ce\u7684\u79d8\u5bc6\u65e5\u8bb0 \u7b2c\u56db\u5b63 / Secret Diary of a Call Girl Season 4
p4251
sg14
V5381258
p4252
sa(dp4253
g11
Vhttps://movie.douban.com/subject/3041264/
p4254
sg3
V\u6d1b\u6749\u77f6\u4e4b\u6218 / Battle: Los Angeles
p4255
sg14
V3041264
p4256
sa(dp4257
g11
Vhttps://movie.douban.com/subject/1292328/
p4258
sg3
V\u4e1c\u90aa\u897f\u6bd2 / \u6771\u90aa\u897f\u6bd2
p4259
sg14
V1292328
p4260
sa(dp4261
g11
Vhttps://movie.douban.com/subject/1419933/
p4262
sg3
V\u4f0a\u4e3d\u838e\u767d\u9547 / Elizabethtown
p4263
sg14
V1419933
p4264
sa(dp4265
g11
Vhttps://movie.douban.com/subject/4190211/
p4266
sg3
V\u81f4\u547d\u4f34\u65c5 / The Tourist
p4267
sg14
V4190211
p4268
sa(dp4269
g11
Vhttps://movie.douban.com/subject/2154327/
p4270
sg3
V\u5357\u65b9\u5927\u4f5c\u6218 / \u30b5\u30a6\u30b9\u30d0\u30a6\u30f3\u30c9
p4271
sg14
V2154327
p4272
sa(dp4273
g11
Vhttps://movie.douban.com/subject/2974278/
p4274
sg3
V\u84dd\u8272\u60c5\u4eba\u8282 / Blue Valentine
p4275
sg14
V2974278
p4276
sa(dp4277
g11
Vhttps://movie.douban.com/subject/2978354/
p4278
sg3
V\u65e0\u540d\u5973\u58eb / Miss Nobody
p4279
sg14
V2978354
p4280
sa(dp4281
g11
Vhttps://movie.douban.com/subject/1865887/
p4282
sg3
V\u8c08\u8c08\u60c5 \u8bf4\u8bf4\u6027 / \u8ac7\u8ac7\u60c5 \u8aaa\u8aaa\u6027
p4283
sg14
V1865887
p4284
sa(dp4285
g11
Vhttps://movie.douban.com/subject/1303451/
p4286
sg3
V\u6d77\u4e0a\u82b1
p4287
sg14
V1303451
p4288
sa(dp4289
g11
Vhttps://movie.douban.com/subject/2074653/
p4290
sg3
V\u6c34\u624b\u670d\u4e0e\u673a\u5173\u67aa / \u30bb\u30fc\u30e9\u30fc\u670d\u3068\u6a5f\u95a2\u9283
p4291
sg14
V2074653
p4292
sa(dp4293
g11
Vhttps://movie.douban.com/subject/4853410/
p4294
sg3
V\u88f8\u4f53\u4e4b\u591c\uff1a\u63a0\u593a\u72c2\u7231 / \u30cc\u30fc\u30c9\u306e\u591c \u611b\u306f\u60dc\u3057\u307f\u306a\u304f\u596a\u3046
p4295
sg14
V4853410
p4296
sa(dp4297
g11
Vhttps://movie.douban.com/subject/1464829/
p4298
sg3
V\u795e\uff0c\u518d\u591a\u7ed9\u70b9\u65f6\u95f4 / \u795e\u69d8\u3001\u3082\u3046\u5c11\u3057\u3060\u3051
p4299
sg14
V1464829
p4300
sa(dp4301
g11
Vhttps://movie.douban.com/subject/5370353/
p4302
sg3
V\u4f60\u6559\u4f1a\u4e86\u6211\u4ec0\u4e48\u6700\u91cd\u8981 / \u5927\u5207\u306a\u3053\u3068\u306f\u3059\u3079\u3066\u541b\u304c\u6559\u3048\u3066\u304f\u308c\u305f
p4303
sg14
V5370353
p4304
sa(dp4305
g11
Vhttps://movie.douban.com/subject/4312195/
p4306
sg3
V\u592a\u6781
p4307
sg14
V4312195
p4308
sa(dp4309
g11
Vhttps://movie.douban.com/subject/1877016/
p4310
sg3
V\u68a6\u6e38\u590f\u5a01\u5937 / \u5922\u904a\u590f\u5a01\u5937
p4311
sg14
V1877016
p4312
sa(dp4313
g11
Vhttps://movie.douban.com/subject/2274887/
p4314
sg3
V\u6700\u540e\u7684\u5723\u8bde\u8282 / \u30e9\u30b9\u30c8\u30af\u30ea\u30b9\u30de\u30b9
p4315
sg14
V2274887
p4316
sa(dp4317
g11
Vhttps://movie.douban.com/subject/2135983/
p4318
sg3
V\u7a7a\u4e2d\u6740\u624b / \u30b9\u30ab\u30a4\u30fb\u30af\u30ed\u30e9 The Sky Crawlers
p4319
sg14
V2135983
p4320
sa(dp4321
g11
Vhttps://movie.douban.com/subject/3082550/
p4322
sg3
V\u676f\u9152\u4eba\u751f / \u30b5\u30a4\u30c9\u30a6\u30a7\u30a4\u30ba
p4323
sg14
V3082550
p4324
sa(dp4325
g11
Vhttps://movie.douban.com/subject/4920522/
p4326
sg3
V\u9ec4\u91d1\u732a / \u9ec4\u91d1\u306e\u8c5a-\u4f1a\u8a08\u691c\u67fb\u5e81 \u7279\u5225\u8abf\u67fb\u8ab2-
p4327
sg14
V4920522
p4328
sa(dp4329
g11
Vhttps://movie.douban.com/subject/2154025/
p4330
sg3
V\u4e1c\u4eac\u670b\u53cb / \u6771\u4eac\u30d5\u30ec\u30f3\u30ba
p4331
sg14
V2154025
p4332
sa(dp4333
g11
Vhttps://movie.douban.com/subject/1436868/
p4334
sg3
V\u82b1\u4e0e\u86c7 / \u82b1\u3068\u86c7
p4335
sg14
V1436868
p4336
sa(dp4337
g11
Vhttps://movie.douban.com/subject/2054413/
p4338
sg3
V\u7b2c\u4e8c\u4e2a\u5bb6\u4e4b\u60c5\u4eba\u522b\u5885 / 2nd\u30cf\u30a6\u30b9
p4339
sg14
V2054413
p4340
sa(dp4341
g11
Vhttps://movie.douban.com/subject/3986493/
p4342
sg3
V\u795e\u63a2\u590f\u6d1b\u514b \u7b2c\u4e00\u5b63 / Sherlock Season 1
p4343
sg14
V3986493
p4344
sa(dp4345
g11
Vhttps://movie.douban.com/subject/3279080/
p4346
sg3
V\u6562\u6b7b\u961f / The Expendables
p4347
sg14
V3279080
p4348
sa(dp4349
g11
Vhttps://movie.douban.com/subject/2150220/
p4350
sg3
V\u767d\u8272\u5de8\u5854 / \u767d\u3044\u5de8\u5854
p4351
sg14
V2150220
p4352
sa(dp4353
g11
Vhttps://movie.douban.com/subject/4059243/
p4354
sg3
V\u730e\u8273 / \u7375\u8c54
p4355
sg14
V4059243
p4356
sa(dp4357
g11
Vhttps://movie.douban.com/subject/3609027/
p4358
sg3
V\u6bd4\u8d5b\u5f00\u59cb / \u6bd4\u8cfd\u958b\u59cb
p4359
sg14
V3609027
p4360
sa(dp4361
g11
Vhttps://movie.douban.com/subject/3646523/
p4362
sg3
V\u5438\u8840\u9b3c\u65e5\u8bb0 \u7b2c\u4e00\u5b63 / The Vampire Diaries Season 1
p4363
sg14
V3646523
p4364
sa(dp4365
g11
Vhttps://movie.douban.com/subject/4845429/
p4366
sg3
V\u91d1\u724c\u5973\u738b / GOLD
p4367
sg14
V4845429
p4368
sa(dp4369
g11
Vhttps://movie.douban.com/subject/1308978/
p4370
sg3
V\u5200\u950b\u6218\u58eb3 / Blade: Trinity
p4371
sg14
V1308978
p4372
sa(dp4373
g11
Vhttps://movie.douban.com/subject/1306894/
p4374
sg3
V\u5200\u950b\u6218\u58eb2 / Blade II
p4375
sg14
V1306894
p4376
sa(dp4377
g11
Vhttps://movie.douban.com/subject/1298120/
p4378
sg3
V\u5200\u950b\u6218\u58eb / Blade
p4379
sg14
V1298120
p4380
sa(dp4381
g11
Vhttps://movie.douban.com/subject/2228608/
p4382
sg3
V\u604b\u7231\u81ea\u7531\u5f0f / \u6200\u611b\u81ea\u7531\u5f0f
p4383
sg14
V2228608
p4384
sa(dp4385
g11
Vhttps://movie.douban.com/subject/1789492/
p4386
sg3
V\u7ef7\u5e26 / BANDAGE \u30d0\u30f3\u30c7\u30a4\u30b8
p4387
sg14
V1789492
p4388
sa(dp4389
g11
Vhttps://movie.douban.com/subject/2004482/
p4390
sg3
V\u4e1c\u4eac\uff01 / Tokyo!
p4391
sg14
V2004482
p4392
sa(dp4393
g11
Vhttps://movie.douban.com/subject/1308773/
p4394
sg3
V\u6b27\u6d32\u6027\u65c5\u884c / EuroTrip
p4395
sg14
V1308773
p4396
sa(dp4397
g11
Vhttps://movie.douban.com/subject/1480881/
p4398
sg3
V\u5348\u9910\u5973\u738b / \u30e9\u30f3\u30c1\u306e\u5973\u738b
p4399
sg14
V1480881
p4400
sa(dp4401
g11
Vhttps://movie.douban.com/subject/1759770/
p4402
sg3
V\u4e0d\u9700\u8981\u7231\u7684\u590f\u5929 / \u611b\u306a\u3093\u3066\u3044\u3089\u306d\u3048\u3088\u3001\u590f
p4403
sg14
V1759770
p4404
sa(dp4405
g11
Vhttps://movie.douban.com/subject/1295815/
p4406
sg3
V\u90a3\u5e74\u590f\u5929\uff0c\u5b81\u9759\u7684\u6d77 / \u3042\u306e\u590f\u3001\u3044\u3061\u3070\u3093\u9759\u304b\u306a\u6d77
p4407
sg14
V1295815
p4408
sa(dp4409
g11
Vhttps://movie.douban.com/subject/1777646/
p4410
sg3
V\u4e0d\u5f00\u5fc3\u7684\u57fa\u56e0 / \u4e0d\u6a5f\u5acc\u306a\u30b8\u30fc\u30f3
p4411
sg14
V1777646
p4412
sa(dp4413
g11
Vhttps://movie.douban.com/subject/1291558/
p4414
sg3
V\u4e91\u4e0a\u7684\u65e5\u5b50 / Al di l delle nuvole
p4415
sg14
V1291558
p4416
sa(dp4417
g11
Vhttps://movie.douban.com/subject/2148850/
p4418
sg3
V\u6218\u795e / \u6230\u795e
p4419
sg14
V2148850
p4420
sa(dp4421
g11
Vhttps://movie.douban.com/subject/3278841/
p4422
sg3
V9.99\u6fb3\u5143 / $9.99
p4423
sg14
V3278841
p4424
sa(dp4425
g11
Vhttps://movie.douban.com/subject/2072848/
p4426
sg3
V\u660e\u4eae\u7684\u661f / Bright Star
p4427
sg14
V2072848
p4428
sa(dp4429
g11
Vhttps://movie.douban.com/subject/1300193/
p4430
sg3
V\u6027\u7231\u72c2\u60f3\u66f2 / \u307f\u3093\u306a\uff5e\u3084\u3063\u3066\u308b\u304b!
p4431
sg14
V1300193
p4432
sa(dp4433
g11
Vhttps://movie.douban.com/subject/1302642/
p4434
sg3
V\u82b1\u706b / HANA-BI
p4435
sg14
V1302642
p4436
sa(dp4437
g11
Vhttps://movie.douban.com/subject/2464346/
p4438
sg3
V\u767d\u4e1d\u5e26 / Das weie Band \u2013 Eine deutsche Kindergeschichte
p4439
sg14
V2464346
p4440
sa(dp4441
g11
Vhttps://movie.douban.com/subject/1419136/
p4442
sg3
V\u5c0f\u5c0f\u6444\u5f71\u5e08\u7684\u5f02\u60f3\u4e16\u754c / Born Into Brothels: Calcutta's Red Light Kids
p4443
sg14
V1419136
p4444
sa(dp4445
g11
Vhttps://movie.douban.com/subject/4102971/
p4446
sg3
V\u5f52\u9014\u5217\u8f66
p4447
sg14
V4102971
p4448
sa(dp4449
g11
Vhttps://movie.douban.com/subject/3066739/
p4450
sg3
V\u94a2\u94c1\u4fa02 / Iron Man 2
p4451
sg14
V3066739
p4452
sa(dp4453
g11
Vhttps://movie.douban.com/subject/1298759/
p4454
sg3
V\u72d7\u9547 / Dogville
p4455
sg14
V1298759
p4456
sa(dp4457
g11
Vhttps://movie.douban.com/subject/1436674/
p4458
sg3
V\u60a0\u957f\u5047\u671f / \u30ed\u30f3\u30b0\u30d0\u30b1\u30fc\u30b7\u30e7\u30f3
p4459
sg14
V1436674
p4460
sa(dp4461
g11
Vhttps://movie.douban.com/subject/1439085/
p4462
sg3
V\u771f\u7231\u5982\u5fc3 / Herz im Kopf
p4463
sg14
V1439085
p4464
sa(dp4465
g11
Vhttps://movie.douban.com/subject/1467549/
p4466
sg3
V\u53a8\u5e08\u4e0e\u6b3a\u5b50 / C(r)ook
p4467
sg14
V1467549
p4468
sa(dp4469
g11
Vhttps://movie.douban.com/subject/3743039/
p4470
sg3
V\u7535\u5f71\u793e\u4f1a\u4e3b\u4e49 / Film Socialisme
p4471
sg14
V3743039
p4472
sa(dp4473
g11
Vhttps://movie.douban.com/subject/1395471/
p4474
sg3
V\u5b9e\u4e60\u533b\u751f\u683c\u857e \u7b2c\u4e00\u5b63 / Grey's Anatomy Season 1
p4475
sg14
V1395471
p4476
sa(dp4477
g11
Vhttps://movie.douban.com/subject/3623024/
p4478
sg3
V\u6211\u7684\u521d\u604b\u60c5\u4eba / \u50d5\u306e\u521d\u604b\u3092\u30ad\u30df\u306b\u6367\u3050
p4479
sg14
V3623024
p4480
sa(dp4481
g11
Vhttps://movie.douban.com/subject/3716874/
p4482
sg3
V\u827e\u66fc\u599e\u5728\u592a\u7a7a3\uff1a\u7231\u7684\u8bfe\u7a0b / Emmanuelle 3: A Lesson in Love
p4483
sg14
V3716874
p4484
sa(dp4485
g11
Vhttps://movie.douban.com/subject/1306465/
p4486
sg3
V\u591c\u5954
p4487
sg14
V1306465
p4488
sa(dp4489
g11
Vhttps://movie.douban.com/subject/2295765/
p4490
sg3
V\u62d0\u89d2\u7684\u5973\u4eba / \u66f2\u304c\u308a\u89d2\u306e\u5f7c\u5973
p4491
sg14
V2295765
p4492
sa(dp4493
g11
Vhttps://movie.douban.com/subject/3078517/
p4494
sg3
V\u5206\u624b\u4fe1 / Dear John
p4495
sg14
V3078517
p4496
sa(dp4497
g11
Vhttps://movie.douban.com/subject/3017655/
p4498
sg3
V\u59d0\u5f1f\u604b / The Rebound
p4499
sg14
V3017655
p4500
sa(dp4501
g11
Vhttps://movie.douban.com/subject/2153602/
p4502
sg3
V\u6298\u7ffc\u7684\u5929\u4f7f\u4eec2 / \u7ffc\u306e\u6298\u308c\u305f\u5929\u4f7f\u305f\u3061II
p4503
sg14
V2153602
p4504
sa(dp4505
g11
Vhttps://movie.douban.com/subject/3730636/
p4506
sg3
V\u8111\u795e\u63a2 / MR. BRAIN
p4507
sg14
V3730636
p4508
sa(dp4509
g11
Vhttps://movie.douban.com/subject/3016697/
p4510
sg3
VHR
p4511
sg14
V3016697
p4512
sa(dp4513
g11
Vhttps://movie.douban.com/subject/3838279/
p4514
sg3
V\u597d\u60f3\u544a\u8bc9\u4f60 / \u541b\u306b\u5c4a\u3051
p4515
sg14
V3838279
p4516
sa(dp4517
g11
Vhttps://movie.douban.com/subject/3862627/
p4518
sg3
V\u6251\u514b\u738b / \u64b2\u514b\u738b
p4519
sg14
V3862627
p4520
sa(dp4521
g11
Vhttps://movie.douban.com/subject/3011102/
p4522
sg3
V\u5047\u7ed3\u5a5a / The Proposal
p4523
sg14
V3011102
p4524
sa(dp4525
g11
Vhttps://movie.douban.com/subject/1950198/
p4526
sg3
V\u4e00\u591c\u5927\u809a / Knocked Up
p4527
sg14
V1950198
p4528
sa(dp4529
g11
Vhttps://movie.douban.com/subject/1304530/
p4530
sg3
V\u7537\u4eba\u56db\u5341
p4531
sg14
V1304530
p4532
sa(dp4533
g11
Vhttps://movie.douban.com/subject/3026768/
p4534
sg3
V\u5a01\u5c14\u548c\u683c\u857e\u4e1d  \u7b2c\u56db\u5b63 / Will & Grace Season 4
p4535
sg14
V3026768
p4536
sa(dp4537
g11
Vhttps://movie.douban.com/subject/1297148/
p4538
sg3
V\u8d85\u65f6\u7a7a\u8981\u7231
p4539
sg14
V1297148
p4540
sa(dp4541
g11
Vhttps://movie.douban.com/subject/4198487/
p4542
sg3
V\u6027\u763e\u5eb7\u590d\u6240 / Sex Rehab with Dr. Drew
p4543
sg14
V4198487
p4544
sa(dp4545
g11
Vhttps://movie.douban.com/subject/3439455/
p4546
sg3
V\u4e09\u89d2\u8ff7\u8e2a / Triangle\uff5e\u30c8\u30e9\u30a4\u30a2\u30f3\u30b0\u30eb
p4547
sg14
V3439455
p4548
sa(dp4549
g11
Vhttps://movie.douban.com/subject/3011224/
p4550
sg3
V\u7edd\u5bf9\u7537\u53cb / \u7d76\u5bfe\u5f7c\u6c0f\u301c\u5b8c\u5168\u7121\u6b20\u306e\u604b\u4eba\u30ed\u30dc\u30c3\u30c8\u301c
p4551
sg14
V3011224
p4552
sa(dp4553
g11
Vhttps://movie.douban.com/subject/2270397/
p4554
sg3
V\u6b4c\u59ec / \u6b4c\u59eb
p4555
sg14
V2270397
p4556
sa(dp4557
g11
Vhttps://movie.douban.com/subject/1298213/
p4558
sg3
V\u5317\u4eac\u4e50\u4e0e\u8def / \u5317\u4eac\u6a02\u8207\u8def
p4559
sg14
V1298213
p4560
sa(dp4561
g11
Vhttps://movie.douban.com/subject/3562827/
p4562
sg3
V\u5236\u9020\u4f0d\u5fb7\u65af\u6258\u514b\u97f3\u4e50\u8282 / Taking Woodstock
p4563
sg14
V3562827
p4564
sa(dp4565
g11
Vhttps://movie.douban.com/subject/1421823/
p4566
sg3
V\u5a1c\u5a1c / Nana
p4567
sg14
V1421823
p4568
sa(dp4569
g11
Vhttps://movie.douban.com/subject/3811349/
p4570
sg3
V\u4e0a\u91ce\u6811\u91cc\u4e0e5\u4e2a\u5305\u5305 / \u4e0a\u91ce\u6a39\u91cc\u30685\u3064\u306e\u9784
p4571
sg14
V3811349
p4572
sa(dp4573
g11
Vhttps://movie.douban.com/subject/1498831/
p4574
sg3
V\u604b\u7231\u5047\u671f / The Holiday
p4575
sg14
V1498831
p4576
sa(dp4577
g11
Vhttps://movie.douban.com/subject/1306421/
p4578
sg3
V\u60ca\u53d828\u5929 / 28 Days Later...
p4579
sg14
V1306421
p4580
sa(dp4581
g11
Vhttps://movie.douban.com/subject/2132930/
p4582
sg3
V\u901f\u5ea6\u4e0e\u6fc0\u60c54 / Fast & Furious
p4583
sg14
V2132930
p4584
sa(dp4585
g11
Vhttps://movie.douban.com/subject/1306200/
p4586
sg3
V\u60c5\u8ff7\u7ef4\u7eb3\u65af / Delta of Venus
p4587
sg14
V1306200
p4588
sa(dp4589
g11
Vhttps://movie.douban.com/subject/1485260/
p4590
sg3
V\u672c\u6770\u660e\u5df4\u987f\u5947\u4e8b / The Curious Case of Benjamin Button
p4591
sg14
V1485260
p4592
sa(dp4593
g11
Vhttps://movie.douban.com/subject/1388175/
p4594
sg3
V\u4e0b\u59bb\u7269\u8bed / \u4e0b\u59bb\u7269\u8a9e
p4595
sg14
V1388175
p4596
sa(dp4597
g11
Vhttps://movie.douban.com/subject/2131459/
p4598
sg3
V\u673a\u5668\u4eba\u603b\u52a8\u5458 / WALLE
p4599
sg14
V2131459
p4600
sa(dp4601
g11
Vhttps://movie.douban.com/subject/1949312/
p4602
sg3
V\u5168\u6c11\u8d85\u4eba\u6c49\u8003\u514b / Hancock
p4603
sg14
V1949312
p4604
sa(dp4605
g11
Vhttps://movie.douban.com/subject/1316505/
p4606
sg3
V\u4e5d\u6b4c / 9 Songs
p4607
sg14
V1316505
p4608
sa(dp4609
g11
Vhttps://movie.douban.com/subject/3003093/
p4610
sg3
V\u6599\u7406\u4ed9\u59ec / \u304a\u305b\u3093
p4611
sg14
V3003093
p4612
sa(dp4613
g11
Vhttps://movie.douban.com/subject/1395354/
p4614
sg3
V\u98a0\u8986\u6027\u5b66\u6821 / Grande cole
p4615
sg14
V1395354
p4616
sa(dp4617
g11
Vhttps://movie.douban.com/subject/1479458/
p4618
sg3
V\u6a59\u8272\u5c81\u6708 / \u30aa\u30ec\u30f3\u30b8\u30c7\u30a4\u30ba
p4619
sg14
V1479458
p4620
sa(dp4621
g11
Vhttps://movie.douban.com/subject/1418197/
p4622
sg3
V\u8f9b\u666e\u68ee\u4e00\u5bb6  \u7b2c\u4e00\u5b63 / The Simpsons Season 1
p4623
sg14
V1418197
p4624
sas.