(dp0
S'wish_link'
p1
Vhttps://movie.douban.com/people/1120582/wish
p2
sS'name'
p3
V1120582
p4
sS'num_collect'
p5
I810
sS'collect_list'
p6
(lp7
(dp8
S'rating'
p9
Vrating5-t
p10
sS'link'
p11
Vhttps://movie.douban.com/subject/11525673/
p12
sg3
V\u5e03\u8fbe\u4f69\u65af\u5927\u996d\u5e97 / The Grand Budapest Hotel
p13
sS'number'
p14
V11525673
p15
sa(dp16
g9
Vrating4-t
p17
sg11
Vhttps://movie.douban.com/subject/1302434/
p18
sg3
V\u673a\u52a8\u90e8\u961f / PTU
p19
sg14
V1302434
p20
sa(dp21
g9
Vrating5-t
p22
sg11
Vhttps://movie.douban.com/subject/2299372/
p23
sg3
V\u6211\u4eec\u7684\u7559\u5b66\u751f\u6d3b\u2014\u5728\u65e5\u672c\u7684\u65e5\u5b50
p24
sg14
V2299372
p25
sa(dp26
g9
Vrating5-t
p27
sg11
Vhttps://movie.douban.com/subject/11538023/
p28
sg3
V\u79ef\u6781\u5fc3\u7406\u5b66 / Positive Psychology
p29
sg14
V11538023
p30
sa(dp31
g9
Vrating3-t
p32
sg11
Vhttps://movie.douban.com/subject/26738055/
p33
sg3
V\u4e0d\u6109\u5feb\u7684\u679c\u5b9e / \u4e0d\u6a5f\u5acc\u306a\u679c\u5b9f
p34
sg14
V26738055
p35
sa(dp36
g9
Vrating4-t
p37
sg11
Vhttps://movie.douban.com/subject/10561891/
p38
sg3
V\u4e0d\u6109\u5feb\u7684\u679c\u5b9e / \u4e0d\u6a5f\u5acc\u306a\u679c\u5b9f
p39
sg14
V10561891
p40
sa(dp41
g9
Vrating4-t
p42
sg11
Vhttps://movie.douban.com/subject/5951228/
p43
sg3
V\u8001\u59272 / BOSS 2
p44
sg14
V5951228
p45
sa(dp46
g9
Vrating5-t
p47
sg11
Vhttps://movie.douban.com/subject/5196451/
p48
sg3
V\u533b\u9f993 / \u533b\u9f8d3\uff5eTeam Medical Dragon\uff5e
p49
sg14
V5196451
p50
sa(dp51
g9
Vdate
p52
sg11
Vhttps://movie.douban.com/subject/1464840/
p53
sg3
V\u6c99\u6ee9\u7537\u5b69 / \u30d3\u30fc\u30c1\u30dc\u30fc\u30a4\u30ba
p54
sg14
V1464840
p55
sa(dp56
g9
Vrating5-t
p57
sg11
Vhttps://movie.douban.com/subject/1853688/
p58
sg3
V\u65b0\u9009\u7ec4 / \u65b0\u9078\u7d44!
p59
sg14
V1853688
p60
sa(dp61
g9
Vrating4-t
p62
sg11
Vhttps://movie.douban.com/subject/26741568/
p63
sg3
V\u6211\u7684\u6050\u6016\u59bb\u5b50 / \u50d5\u306e\u30e4\u30d0\u30a4\u59bb
p64
sg14
V26741568
p65
sa(dp66
g9
Vcomment
p67
sg11
Vhttps://movie.douban.com/subject/4881202/
p68
sg3
V\u4ec1\u533b \u5b8c\u7ed3\u7bc7 / JIN-\u4ec12
p69
sg14
V4881202
p70
sa(dp71
g9
Vdate
p72
sg11
Vhttps://movie.douban.com/subject/1980928/
p73
sg3
V\u4eba\u6027\u7684\u8bc1\u660e / \u4eba\u9593\u306e\u8a3c\u660e
p74
sg14
V1980928
p75
sa(dp76
g9
Vdate
p77
sg11
Vhttps://movie.douban.com/subject/3065350/
p78
sg3
V\u5927\u5965\u7b2c\u4e00\u7ae0 / \u5927\u5967\uff5e\u7b2c\u4e00\u7ae0\uff5e
p79
sg14
V3065350
p80
sa(dp81
g9
Vdate
p82
sg11
Vhttps://movie.douban.com/subject/26328476/
p83
sg3
VLiquid\uff5e\u9b3c\u4e4b\u9152 \u5947\u8ff9\u917f\u9152\u4eba / \u30ea\u30ad\u30c3\u30c9\uff5e\u9b3c\u306e\u9152 \u5947\u8de1\u306e\u8535\uff5e
p84
sg14
V26328476
p85
sa(dp86
g9
Vrating5-t
p87
sg11
Vhttps://movie.douban.com/subject/26663559/
p88
sg3
V\u76f4\u7f8e\u4e0e\u52a0\u5948\u5b50 / \u30ca\u30aa\u30df\u3068\u30ab\u30ca\u30b3
p89
sg14
V26663559
p90
sa(dp91
g9
Vrating2-t
p92
sg11
Vhttps://movie.douban.com/subject/24843206/
p93
sg3
V\u602a\u7269 / MONSTERZ \u30e2\u30f3\u30b9\u30bf\u30fc\u30ba
p94
sg14
V24843206
p95
sa(dp96
g9
Vrating5-t
p97
sg11
Vhttps://movie.douban.com/subject/10748091/
p98
sg3
V\u52c7\u8005\u4e49\u5f66\u7b2c2\u7ae0\uff1a\u52c7\u8005\u4e49\u5f66\u4e0e\u6076\u7075\u4e4b\u94a5 / \u52c7\u8005\u30e8\u30b7\u30d2\u30b3 \u7b2c2\u7ae0\uff1a\u52c7\u8005\u30e8\u30b7\u30d2\u30b3\u3068\u60aa\u970a\u306e\u9375
p99
sg14
V10748091
p100
sa(dp101
g9
Vrating5-t
p102
sg11
Vhttps://movie.douban.com/subject/26274134/
p103
sg3
V\u5c71\u7530\u5b5d\u4e4b\u7684\u4e1c\u4eac\u90fd\u5317\u533a\u8d64\u7fbd / \u5c71\u7530\u5b5d\u4e4b\u306e\u6771\u4eac\u90fd\u5317\u533a\u8d64\u7fbd
p104
sg14
V26274134
p105
sa(dp106
g9
Vrating5-t
p107
sg11
Vhttps://movie.douban.com/subject/24321138/
p108
sg3
V\u4e16\u754c\u5947\u5999\u7269\u8bed 2013\u5e74\u6625\u4e4b\u7279\u522b\u7bc7 / \u4e16\u306b\u3082\u5947\u5999\u306a\u7269\u8a9e '13 \u6625\u306e\u7279\u5225\u7de8
p109
sg14
V24321138
p110
sa(dp111
g9
Vrating5-t
p112
sg11
Vhttps://movie.douban.com/subject/3074408/
p113
sg3
V\u70ed\u8840\u9ad8\u68212 / \u30af\u30ed\u30fc\u30baZERO II
p114
sg14
V3074408
p115
sa(dp116
g9
Vrating5-t
p117
sg11
Vhttps://movie.douban.com/subject/26698262/
p118
sg3
V\u4e0e\u9e64\u74f6\u7684\u5bb6\u4eba\u5e72\u676f -\u5c0f\u6817\u65ec \u8bf4\u8d70\u5c31\u8d70\u7684\u5317\u6d77\u9053\u65ed\u5ddd\u4e4b\u65c5 / \u9db4\u74f6\u306e\u5bb6\u65cf\u306b\u4e7e\u676f \u5c0f\u6817\u65ec \u5317\u6d77\u9053\u65ed\u5ddd\u5e02\u3076\u3063\u3064\u3051\u672c\u756a\u65c5
p119
sg14
V26698262
p120
sa(dp121
g9
Vrating5-t
p122
sg11
Vhttps://movie.douban.com/subject/2065021/
p123
sg3
V\u70ed\u8840\u9ad8\u6821 / \u30af\u30ed\u30fc\u30baZERO
p124
sg14
V2065021
p125
sa(dp126
g9
Vrating3-t
p127
sg11
Vhttps://movie.douban.com/subject/25808101/
p128
sg3
VS-\u6700\u540e\u7684\u8b66\u5b98\uff1a\u593a\u8fd8 / S-\u6700\u5f8c\u306e\u8b66\u5b98- \u596a\u9084 RECOVERY OF OUR FUTURE
p129
sg14
V25808101
p130
sa(dp131
g9
Vrating4-t
p132
sg11
Vhttps://movie.douban.com/subject/24529344/
p133
sg3
V\u6700\u68d2\u7684\u6c42\u5a5a / \u6700\u4e0a\u306e\u30d7\u30ed\u30dd\u30fc\u30ba
p134
sg14
V24529344
p135
sa(dp136
g9
Vrating4-t
p137
sg11
Vhttps://movie.douban.com/subject/26575228/
p138
sg3
V\u78c1\u77f3\u75372015
p139
sg14
V26575228
p140
sa(dp141
g9
Vrating3-t
p142
sg11
Vhttps://movie.douban.com/subject/25723209/
p143
sg3
VS-\u6700\u540e\u7684\u8b66\u5b98 / S-\u6700\u5f8c\u306e\u8b66\u5b98-
p144
sg14
V25723209
p145
sa(dp146
g9
Vrating3-t
p147
sg11
Vhttps://movie.douban.com/subject/5247059/
p148
sg3
V\u5929\u5802\u4e4b\u543b / \u30d1\u30e9\u30c0\u30a4\u30b9\u30fb\u30ad\u30b9
p149
sg14
V5247059
p150
sa(dp151
g9
Vrating5-t
p152
sg11
Vhttps://movie.douban.com/subject/25854564/
p153
sg3
V\u78c1\u77f3\u7537
p154
sg14
V25854564
p155
sa(dp156
g9
Vrating3-t
p157
sg11
Vhttps://movie.douban.com/subject/6974542/
p158
sg3
VHUNGRY! / \u30cf\u30f3\u30b0\u30ea\u30fc
p159
sg14
V6974542
p160
sa(dp161
g9
Vrating5-t
p162
sg11
Vhttps://movie.douban.com/subject/4881646/
p163
sg3
V\u5f52\u56fd / \u6b78\u570b
p164
sg14
V4881646
p165
sa(dp166
g9
Vrating4-t
p167
sg11
Vhttps://movie.douban.com/subject/6808703/
p168
sg3
V\u65b0\u5a18\u4e4b\u7236 / \u82b1\u5ac1\u306e\u7236
p169
sg14
V6808703
p170
sa(dp171
g9
Vrating5-t
p172
sg11
Vhttps://movie.douban.com/subject/4764312/
p173
sg3
V\u602a\u602a\u602a\u7684\u59bb\u5b50 / \u30b2\u30b2\u30b2\u306e\u5973\u623f
p174
sg14
V4764312
p175
sa(dp176
g9
Vcomment
p177
sg11
Vhttps://movie.douban.com/subject/2377605/
p178
sg3
V\u8702\u871c\u4e0e\u56db\u53f6\u8349 / \u30cf\u30c1\u30df\u30c4\u3068\u30af\u30ed\u30fc\u30d0\u30fc
p179
sg14
V2377605
p180
sa(dp181
g9
Vrating5-t
p182
sg11
Vhttps://movie.douban.com/subject/11629291/
p183
sg3
V\u8fdf\u5f00\u7684\u5411\u65e5\u8475 / \u9045\u54b2\u304d\u306e\u30d2\u30de\u30ef\u30ea\u301c\u30dc\u30af\u306e\u4eba\u751f\u3001\u30ea\u30cb\u30e5\u30fc\u30a2\u30eb\u301c
p184
sg14
V11629291
p185
sa(dp186
g9
Vrating5-t
p187
sg11
Vhttps://movie.douban.com/subject/21318488/
p188
sg3
V\u6d88\u5931\u7684\u7231\u4eba / Gone Girl
p189
sg14
V21318488
p190
sa(dp191
g9
Vrating5-t
p192
sg11
Vhttps://movie.douban.com/subject/1298107/
p193
sg3
V\u5927\u90fd\u4f1a / Metropolis
p194
sg14
V1298107
p195
sa(dp196
g9
Vrating4-t
p197
sg11
Vhttps://movie.douban.com/subject/4074009/
p198
sg3
V\u82b1\u6c34\u6728 / \u30cf\u30ca\u30df\u30ba\u30ad
p199
sg14
V4074009
p200
sa(dp201
g9
Vrating5-t
p202
sg11
Vhttps://movie.douban.com/subject/21353042/
p203
sg3
V\u98de\u7fd4\u60c5\u62a5\u5ba4 / \u7a7a\u98db\u3076\u5e83\u5831\u5ba4
p204
sg14
V21353042
p205
sa(dp206
g9
Vrating5-t
p207
sg11
Vhttps://movie.douban.com/subject/1303558/
p208
sg3
V\u6d1b\u53ef\u5144\u5f1f / Rocco e i suoi fratelli
p209
sg14
V1303558
p210
sa(dp211
g9
Vrating5-t
p212
sg11
Vhttps://movie.douban.com/subject/1870116/
p213
sg3
V\u602a / \u602a \u301cayakashi\u301c
p214
sg14
V1870116
p215
sa(dp216
g9
Vrating5-t
p217
sg11
Vhttps://movie.douban.com/subject/1459767/
p218
sg3
V\u5168\u91d1\u5c5e\u72c2\u6f6e / \u30d5\u30eb\u30e1\u30bf\u30eb\u30fb\u30d1\u30cb\u30c3\u30af!
p219
sg14
V1459767
p220
sa(dp221
g9
Vdate
p222
sg11
Vhttps://movie.douban.com/subject/1433342/
p223
sg3
V\u94a2\u4e4b\u70bc\u91d1\u672f\u5e08 / \u92fc\u306e\u932c\u91d1\u8853\u5e2b
p224
sg14
V1433342
p225
sa(dp226
g9
Vrating5-t
p227
sg11
Vhttps://movie.douban.com/subject/1460919/
p228
sg3
V\u5168\u804c\u730e\u4eba / Hunter x Hunter
p229
sg14
V1460919
p230
sa(dp231
g9
Vrating5-t
p232
sg11
Vhttps://movie.douban.com/subject/1998799/
p233
sg3
V\u704c\u7bee\u9ad8\u624b / \u30b9\u30e9\u30e0\u30c0\u30f3\u30af
p234
sg14
V1998799
p235
sa(dp236
g9
Vrating4-t
p237
sg11
Vhttps://movie.douban.com/subject/26271871/
p238
sg3
V\u5168\u90e8\u6210\u4e3aF / \u3059\u3079\u3066\u304cF\u306b\u306a\u308b THE PERFECT INSIDER
p239
sg14
V26271871
p240
sa(dp241
g9
Vrating5-t
p242
sg11
Vhttps://movie.douban.com/subject/1457573/
p243
sg3
V\u65b0\u4e16\u7eaa\u798f\u97f3\u6218\u58eb / \u65b0\u4e16\u7d00\u30a8\u30f4\u30a1\u30f3\u30b2\u30ea\u30aa\u30f3
p244
sg14
V1457573
p245
sa(dp246
g9
Vrating5-t
p247
sg11
Vhttps://movie.douban.com/subject/3060542/
p248
sg3
V\u590f\u76ee\u53cb\u4eba\u5e10 / \u590f\u76ee\u53cb\u4eba\u5e33
p249
sg14
V3060542
p250
sa(dp251
g9
Vrating5-t
p252
sg11
Vhttps://movie.douban.com/subject/1424406/
p253
sg3
V\u661f\u9645\u725b\u4ed4 / \u30ab\u30a6\u30dc\u30fc\u30a4\u30d3\u30d0\u30c3\u30d7
p254
sg14
V1424406
p255
sa(dp256
g9
Vrating5-t
p257
sg11
Vhttps://movie.douban.com/subject/25851655/
p258
sg3
V\u56db\u6708\u662f\u4f60\u7684\u8c0e\u8a00 / \u56db\u6708\u306f\u541b\u306e\u5618
p259
sg14
V25851655
p260
sa(dp261
g9
Vcomment
p262
sg11
Vhttps://movie.douban.com/subject/2340927/
p263
sg3
V\u602a\u5316\u732b / \u30e2\u30ce\u30ce\u602a
p264
sg14
V2340927
p265
sa(dp266
g9
Vrating4-t
p267
sg11
Vhttps://movie.douban.com/subject/10796595/
p268
sg3
V\u8d70\u9a6c\u706f\u682a\u5f0f\u4f1a\u793e / \u8d70\u99ac\u706f\u682a\u5f0f\u4f1a\u793e
p269
sg14
V10796595
p270
sa(dp271
g9
Vrating3-t
p272
sg11
Vhttps://movie.douban.com/subject/2135373/
p273
sg3
V\u5411\u725b\u8bb8\u613f / \u725b\u306b\u9858\u3044\u3092
p274
sg14
V2135373
p275
sa(dp276
g9
Vrating5-t
p277
sg11
Vhttps://movie.douban.com/subject/3767364/
p278
sg3
V\u6551\u547d\u75c5\u680b24\u5c0f\u65f6 \u7b2c4\u5b63 / \u6551\u547d\u75c5\u68df24\u6642 \u7b2c4\u30b7\u30ea\u30fc\u30ba
p279
sg14
V3767364
p280
sa(dp281
g9
Vrating5-t
p282
sg11
Vhttps://movie.douban.com/subject/3035727/
p283
sg3
V\u76f8\u68d2 \u7b2c6\u5b63 / \u76f8\u68d2 season6
p284
sg14
V3035727
p285
sa(dp286
g9
Vrating5-t
p287
sg11
Vhttps://movie.douban.com/subject/3035726/
p288
sg3
V\u76f8\u68d2 \u7b2c5\u5b63 / \u76f8\u68d2 season5
p289
sg14
V3035726
p290
sa(dp291
g9
Vrating5-t
p292
sg11
Vhttps://movie.douban.com/subject/3303204/
p293
sg3
V\u76f8\u68d2 \u7b2c7\u5b63 / \u76f8\u68d2 season7
p294
sg14
V3303204
p295
sa(dp296
g9
Vrating5-t
p297
sg11
Vhttps://movie.douban.com/subject/3035725/
p298
sg3
V\u76f8\u68d2 \u7b2c4\u5b63 / \u76f8\u68d2 season4
p299
sg14
V3035725
p300
sa(dp301
g9
Vrating3-t
p302
sg11
Vhttps://movie.douban.com/subject/26328653/
p303
sg3
V\u533b\u5e08\u4eec\u7684\u604b\u7231\u60c5\u4e8b / \u533b\u5e2b\u305f\u3061\u306e\u604b\u611b\u4e8b\u60c5
p304
sg14
V26328653
p305
sa(dp306
g9
Vrating5-t
p307
sg11
Vhttps://movie.douban.com/subject/6727359/
p308
sg3
V\u76f8\u68d2 \u7b2c10\u5b63 / \u76f8\u68d2 season10
p309
sg14
V6727359
p310
sa(dp311
g9
Vrating5-t
p312
sg11
Vhttps://movie.douban.com/subject/3035723/
p313
sg3
V\u76f8\u68d2 \u7b2c2\u5b63 / \u76f8\u68d2 season2
p314
sg14
V3035723
p315
sa(dp316
g9
Vrating5-t
p317
sg11
Vhttps://movie.douban.com/subject/25962728/
p318
sg3
V\u76f8\u68d2 \u7b2c13\u5b63 / \u76f8\u68d2 season13
p319
sg14
V25962728
p320
sa(dp321
g9
Vrating5-t
p322
sg11
Vhttps://movie.douban.com/subject/6428136/
p323
sg3
V\u4e1c\u91ce\u572d\u543e3\u5468\u8fde\u7eedSP / \u6771\u91ce\u572d\u543e3\u9031\u9023\u7d9a\u30b9\u30da\u30b7\u30e3\u30eb
p324
sg14
V6428136
p325
sa(dp326
g9
Vrating3-t
p327
sg11
Vhttps://movie.douban.com/subject/3196667/
p328
sg3
V33\u5206\u949f\u4fa6\u63a2 / 33\u5206\u63a2\u5075
p329
sg14
V3196667
p330
sa(dp331
g9
Vrating5-t
p332
sg11
Vhttps://movie.douban.com/subject/4323584/
p333
sg3
V\u76f8\u68d2 \u7b2c9\u5b63 / \u76f8\u68d2 season9
p334
sg14
V4323584
p335
sa(dp336
g9
Vrating5-t
p337
sg11
Vhttps://movie.douban.com/subject/3035722/
p338
sg3
V\u76f8\u68d2 \u7b2c1\u5b63 / \u76f8\u68d2 season1
p339
sg14
V3035722
p340
sa(dp341
g9
Vrating4-t
p342
sg11
Vhttps://movie.douban.com/subject/26596220/
p343
sg3
V\u9057\u4ea7\u4e89\u65cf / \u907a\u7523\u4e89\u65cf
p344
sg14
V26596220
p345
sa(dp346
g9
Vrating5-t
p347
sg11
Vhttps://movie.douban.com/subject/24752279/
p348
sg3
V\u76f8\u68d2 \u7b2c12\u5b63 / \u76f8\u68d2 season12
p349
sg14
V24752279
p350
sa(dp351
g9
Vrating5-t
p352
sg11
Vhttps://movie.douban.com/subject/3801472/
p353
sg3
V\u76f8\u68d2 \u7b2c8\u5b63 / \u76f8\u68d2 season8
p354
sg14
V3801472
p355
sa(dp356
g9
Vrating5-t
p357
sg11
Vhttps://movie.douban.com/subject/6788284/
p358
sg3
V\u5bb6\u653f\u5987\u4e09\u7530 / \u5bb6\u653f\u5a66\u306e\u30df\u30bf
p359
sg14
V6788284
p360
sa(dp361
g9
Vrating4-t
p362
sg11
Vhttps://movie.douban.com/subject/25767614/
p363
sg3
V\u6211\u5b58\u5728\u7684\u65f6\u95f4 / \u50d5\u306e\u3044\u305f\u6642\u9593
p364
sg14
V25767614
p365
sa(dp366
g9
Vrating4-t
p367
sg11
Vhttps://movie.douban.com/subject/6436751/
p368
sg3
V\u5168\u5f00\u5973\u5b69 / \u5168\u958b\u30ac\u30fc\u30eb
p369
sg14
V6436751
p370
sa(dp371
g9
Vrating4-t
p372
sg11
Vhttps://movie.douban.com/subject/26281391/
p373
sg3
V\u73bb\u7483\u82a6\u82c7 / \u785d\u5b50\u306e\u8466
p374
sg14
V26281391
p375
sa(dp376
g9
Vrating5-t
p377
sg11
Vhttps://movie.douban.com/subject/25881537/
p378
sg3
V\u4fe1\u957f\u534f\u594f\u66f2 / \u4fe1\u9577\u5354\u594f\u66f2
p379
sg14
V25881537
p380
sa(dp381
g9
Vrating3-t
p382
sg11
Vhttps://movie.douban.com/subject/6793351/
p383
sg3
V\u63a8\u7406\u8981\u5728\u665a\u9910\u540e / \u8b0e\u89e3\u304d\u306f\u30c7\u30a3\u30ca\u30fc\u306e\u3042\u3068\u3067
p384
sg14
V6793351
p385
sa(dp386
g9
Vrating4-t
p387
sg11
Vhttps://movie.douban.com/subject/1480881/
p388
sg3
V\u5348\u9910\u5973\u738b / \u30e9\u30f3\u30c1\u306e\u5973\u738b
p389
sg14
V1480881
p390
sa(dp391
g9
Vrating5-t
p392
sg11
Vhttps://movie.douban.com/subject/10573566/
p393
sg3
V\u76f8\u68d2 \u7b2c11\u5b63 / \u76f8\u68d2 season11
p394
sg14
V10573566
p395
sa(dp396
g9
Vrating5-t
p397
sg11
Vhttps://movie.douban.com/subject/6402151/
p398
sg3
V\u52c7\u8005\u4e49\u5f66\u4e0e\u9b54\u738b\u57ce / \u52c7\u8005\u30e8\u30b7\u30d2\u30b3\u3068\u9b54\u738b\u306e\u57ce
p399
sg14
V6402151
p400
sa(dp401
g9
Vrating3-t
p402
sg11
Vhttps://movie.douban.com/subject/2129386/
p403
sg3
V\u6642\u6548\u8b66\u5bdf\u5f52\u6765 / \u5e30\u3063\u3066\u304d\u305f\u6642\u52b9\u8b66\u5bdf
p404
sg14
V2129386
p405
sa(dp406
g9
Vrating5-t
p407
sg11
Vhttps://movie.douban.com/subject/26282689/
p408
sg3
V\u9884\u544a\u72af -THE PAIN- / \u4e88\u544a\u72af -THE PAIN-
p409
sg14
V26282689
p410
sa(dp411
g9
Vrating5-t
p412
sg11
Vhttps://movie.douban.com/subject/2147129/
p413
sg3
V\u8424\u4e4b\u5149 / \u30db\u30bf\u30eb\u30ce\u30d2\u30ab\u30ea
p414
sg14
V2147129
p415
sa(dp416
g9
Vdate
p417
sg11
Vhttps://movie.douban.com/subject/3014387/
p418
sg3
V\u5973\u4eba\u56db\u5341 / Around40\u301c\u6ce8\u6587\u306e\u591a\u3044\u30aa\u30f3\u30ca\u305f\u3061\u301c
p419
sg14
V3014387
p420
sa(dp421
g9
Vrating3-t
p422
sg11
Vhttps://movie.douban.com/subject/26041851/
p423
sg3
V\u7ed1\u532a\u7684\u5973\u513f / \u7ff3\u308a\u3086\u304f\u590f
p424
sg14
V26041851
p425
sa(dp426
g9
Vrating4-t
p427
sg11
Vhttps://movie.douban.com/subject/6808702/
p428
sg3
V\u6211\u65e0\u6cd5\u604b\u7231\u7684\u7406\u7531 / \u79c1\u304c\u604b\u611b\u3067\u304d\u306a\u3044\u7406\u7531
p429
sg14
V6808702
p430
sa(dp431
g9
Vrating5-t
p432
sg11
Vhttps://movie.douban.com/subject/25823110/
p433
sg3
VBORDER
p434
sg14
V25823110
p435
sa(dp436
g9
Vcomment
p437
sg11
Vhttps://movie.douban.com/subject/25933326/
p438
sg3
V\u4eca\u5929\u4e0d\u4e0a\u73ed / \u304d\u3087\u3046\u306f\u4f1a\u793e\u4f11\u307f\u307e\u3059\u3002
p439
sg14
V25933326
p440
sa(dp441
g9
Vcomment
p442
sg11
Vhttps://movie.douban.com/subject/26580017/
p443
sg3
V\u4f2a\u88c5\u592b\u5987 / \u507d\u88c5\u306e\u592b\u5a66
p444
sg14
V26580017
p445
sa(dp446
g9
Vcomment
p447
sg11
Vhttps://movie.douban.com/subject/10756863/
p448
sg3
V\u6709\u94b1\u7537\u4e0e\u8d2b\u7a77\u5973 / \u30ea\u30c3\u30c1\u30de\u30f3\u3001\u30d7\u30a2\u30a6\u30fc\u30de\u30f3
p449
sg14
V10756863
p450
sa(dp451
g9
Vrating5-t
p452
sg11
Vhttps://movie.douban.com/subject/2160933/
p453
sg3
V\u4e0d\u80fd\u7ed3\u5a5a\u7684\u7537\u4eba / \u7d50\u5a5a\u3067\u304d\u306a\u3044\u7537
p454
sg14
V2160933
p455
sa(dp456
g9
Vrating5-t
p457
sg11
Vhttps://movie.douban.com/subject/26271868/
p458
sg3
V\u7ea6\u4f1a\uff5e\u604b\u7231\u7a76\u7adf\u662f\u4ec0\u4e48\u5462\uff5e / \u30c7\u30fc\u30c8 \u301c\u604b\u3068\u306f\u3069\u3093\u306a\u3082\u306e\u304b\u3057\u3089\u301c
p459
sg14
V26271868
p460
sa(dp461
g9
Vdate
p462
sg11
Vhttps://movie.douban.com/subject/23997724/
p463
sg3
V\u80dc\u8005\u5373\u662f\u6b63\u4e492 / \u30ea\u30fc\u30ac\u30eb\u30cf\u30a42
p464
sg14
V23997724
p465
sa(dp466
g9
Vcomment
p467
sg11
Vhttps://movie.douban.com/subject/25760591/
p468
sg3
V\u5931\u604b\u5de7\u514b\u529b\u804c\u4eba / \u5931\u604b\u30b7\u30e7\u30b3\u30e9\u30c6\u30a3\u30a8
p469
sg14
V25760591
p470
sa(dp471
g9
Vrating5-t
p472
sg11
Vhttps://movie.douban.com/subject/10491666/
p473
sg3
V\u80dc\u8005\u5373\u662f\u6b63\u4e49 / \u30ea\u30fc\u30ac\u30eb\u30fb\u30cf\u30a4
p474
sg14
V10491666
p475
sa(dp476
g9
Vrating4-t
p477
sg11
Vhttps://movie.douban.com/subject/2279152/
p478
sg3
V\u540d\u4fa6\u63a2\u67ef\u5357\uff1a\u4e16\u7eaa\u672b\u7684\u9b54\u672f\u5e08 / \u540d\u63a2\u5075\u30b3\u30ca\u30f3 \u4e16\u7d00\u672b\u306e\u9b54\u8853\u5e2b
p479
sg14
V2279152
p480
sa(dp481
g9
Vrating5-t
p482
sg11
Vhttps://movie.douban.com/subject/5247055/
p483
sg3
V\u6d41\u661f / \u6d41\u308c\u661f
p484
sg14
V5247055
p485
sa(dp486
g9
Vrating5-t
p487
sg11
Vhttps://movie.douban.com/subject/25864085/
p488
sg3
V\u706b\u661f\u6551\u63f4 / The Martian
p489
sg14
V25864085
p490
sa(dp491
g9
Vrating5-t
p492
sg11
Vhttps://movie.douban.com/subject/26314383/
p493
sg3
VDr.\u4f26\u592a\u90ce / Dr.\u502b\u592a\u90ce
p494
sg14
V26314383
p495
sa(dp496
g9
Vdate
p497
sg11
Vhttps://movie.douban.com/subject/24697949/
p498
sg3
V\u534a\u6cfd\u76f4\u6811 / \u534a\u6ca2\u76f4\u6a39
p499
sg14
V24697949
p500
sa(dp501
g9
Vrating5-t
p502
sg11
Vhttps://movie.douban.com/subject/25662329/
p503
sg3
V\u75af\u72c2\u52a8\u7269\u57ce / Zootopia
p504
sg14
V25662329
p505
sa(dp506
g9
Vcomment
p507
sg11
Vhttps://movie.douban.com/subject/24845115/
p508
sg3
V\u6d6a\u5ba2\u5251\u5fc3\uff1a\u4eac\u90fd\u5927\u706b\u7bc7 / \u308b\u308d\u3046\u306b\u5263\u5fc3 \u4eac\u90fd\u5927\u706b\u7de8
p509
sg14
V24845115
p510
sa(dp511
g9
Vcomment
p512
sg11
Vhttps://movie.douban.com/subject/6558801/
p513
sg3
V\u6d6a\u5ba2\u5251\u5fc3 / \u308b\u308d\u3046\u306b\u5263\u5fc3
p514
sg14
V6558801
p515
sa(dp516
g9
Vcomment
p517
sg11
Vhttps://movie.douban.com/subject/4862211/
p518
sg3
V\u81ea\u604b\u5211\u8b66 / \u3046\u306c\u307c\u308c\u5211\u4e8b
p519
sg14
V4862211
p520
sa(dp521
g9
Vdate
p522
sg11
Vhttps://movie.douban.com/subject/20431535/
p523
sg3
V\u5973\u4eba\u4e0e\u7537\u4eba\u7684\u70ed\u5e26 / \u5973\u3068\u7537\u306e\u71b1\u5e2f
p524
sg14
V20431535
p525
sa(dp526
g9
Vrating5-t
p527
sg11
Vhttps://movie.douban.com/subject/21962219/
p528
sg3
VST \u8b66\u89c6\u5385\u79d1\u5b66\u7279\u641c\u73ed / ST\uff5e\u8b66\u8996\u5e81\u79d1\u5b66\u7279\u635c\u73ed\uff5e
p529
sg14
V21962219
p530
sa(dp531
g9
Vrating5-t
p532
sg11
Vhttps://movie.douban.com/subject/25884574/
p533
sg3
VST \u7ea2\u767d\u641c\u67e5\u6863\u6848 / ST \u8d64\u3068\u767d\u306e\u635c\u67fb\u30d5\u30a1\u30a4\u30eb
p534
sg14
V25884574
p535
sa(dp536
g9
Vrating5-t
p537
sg11
Vhttps://movie.douban.com/subject/2281651/
p538
sg3
V\u4e16\u754c\u5947\u5999\u7269\u8bed  04\u6625\u4e4b\u7279\u5225\u7bc7 / \u4e16\u306b\u3082\u5947\u5999\u306a\u7269\u8a9e 04\u6625\u306e\u7279\u5225\u7de8
p539
sg14
V2281651
p540
sa(dp541
g9
Vcomment
p542
sg11
Vhttps://movie.douban.com/subject/3008902/
p543
sg3
V\u5371\u9669\u60c5\u4eba / \u30b9\u30c8\u30fc\u30ab\u30fc\u9003\u3052\u304d\u308c\u306d\u611b
p544
sg14
V3008902
p545
sa(dp546
g9
Vrating5-t
p547
sg11
Vhttps://movie.douban.com/subject/1759766/
p548
sg3
V\u7ee7\u7eed / \u30b1\u30a4\u30be\u30af
p549
sg14
V1759766
p550
sa(dp551
g9
Vrating5-t
p552
sg11
Vhttps://movie.douban.com/subject/1759770/
p553
sg3
V\u4e0d\u9700\u8981\u7231\u7684\u590f\u5929 / \u611b\u306a\u3093\u3066\u3044\u3089\u306d\u3048\u3088\u3001\u590f
p554
sg14
V1759770
p555
sa(dp556
g9
Vdate
p557
sg11
Vhttps://movie.douban.com/subject/11636314/
p558
sg3
V\u4e1c\u4eac\u673a\u573a\u7ba1\u5236\u4fdd\u5b89\u90e8 / TOKYO\u30a8\u30a2\u30dd\u30fc\u30c8\uff5e\u6771\u4eac\u7a7a\u6e2f\u7ba1\u5236\u4fdd\u5b89\u90e8\uff5e
p559
sg14
V11636314
p560
sa(dp561
g9
Vcomment
p562
sg11
Vhttps://movie.douban.com/subject/4925424/
p563
sg3
V\u7b2c\u4e8c\u5904\u5973 / \u30bb\u30ab\u30f3\u30c9\u30fb\u30d0\u30fc\u30b8\u30f3
p564
sg14
V4925424
p565
sa(dp566
g9
Vrating4-t
p567
sg11
Vhttps://movie.douban.com/subject/6785072/
p568
sg3
V\u4e13\u4e1a\u4e3b\u5987\u4fa6\u63a2 / \u5c02\u696d\u4e3b\u5a66\u63a2\u5075\u301c\u79c1\u306f\u30b7\u30e3\u30c9\u30a6
p569
sg14
V6785072
p570
sa(dp571
g9
Vrating5-t
p572
sg11
Vhttps://movie.douban.com/subject/2131160/
p573
sg3
V\u5929\u5730\u4eba
p574
sg14
V2131160
p575
sa(dp576
g9
Vrating5-t
p577
sg11
Vhttps://movie.douban.com/subject/1292340/
p578
sg3
V\u5b9b\u5982\u963f\u4fee\u7f57 / \u963f\u4fee\u7f85\u306e\u3054\u3068\u304f
p579
sg14
V1292340
p580
sa(dp581
g9
Vdate
p582
sg11
Vhttps://movie.douban.com/subject/1451430/
p583
sg3
V\u91ce\u732a\u5927\u6539\u9020 / \u91ce\u30d6\u30bf\u3002\u3092\u30d7\u30ed\u30c7\u30e5\u30fc\u30b9
p584
sg14
V1451430
p585
sa(dp586
g9
Vrating3-t
p587
sg11
Vhttps://movie.douban.com/subject/26269549/
p588
sg3
V\u7b2c\u4e8c\u7231\u60c5 / \u30bb\u30ab\u30f3\u30c9\u30fb\u30e9\u30d6
p589
sg14
V26269549
p590
sa(dp591
g9
Vrating5-t
p592
sg11
Vhttps://movie.douban.com/subject/25953663/
p593
sg3
V\u65e0\u95f4\u53cc\u9f99\uff1a\u8fd9\u4efd\u7231\uff0c\u624d\u662f\u6b63\u4e49 / \u30a6\u30ed\u30dc\u30ed\u30b9\uff5e\u3053\u306e\u611b\u3053\u305d\u3001\u6b63\u7fa9\u3002
p594
sg14
V25953663
p595
sa(dp596
g9
Vdate
p597
sg11
Vhttps://movie.douban.com/subject/4300597/
p598
sg3
V\u6708\u4e4b\u604b\u4eba / \u6708\u306e\u604b\u4eba
p599
sg14
V4300597
p600
sa(dp601
g9
Vrating4-t
p602
sg11
Vhttps://movie.douban.com/subject/25874886/
p603
sg3
V\u5f8b\u653f\u82f1\u96c42014 / HERO2014
p604
sg14
V25874886
p605
sa(dp606
g9
Vdate
p607
sg11
Vhttps://movie.douban.com/subject/5364959/
p608
sg3
V\u53e4\u7551\u4efb\u4e09\u90ce  \u6d88\u5931\u7684\u540d\u4fa6\u63a2 / \u6d88\u3048\u305f\u53e4\u7551\u4efb\u4e09\u90ce
p609
sg14
V5364959
p610
sa(dp611
g9
Vdate
p612
sg11
Vhttps://movie.douban.com/subject/25806499/
p613
sg3
VSantaku / \u3055\u3093\u30bf\u30af
p614
sg14
V25806499
p615
sa(dp616
g9
Vrating5-t
p617
sg11
Vhttps://movie.douban.com/subject/1783772/
p618
sg3
V\u5df4\u9ece\uff0c\u6211\u7231\u4f60 / Paris, je t'aime
p619
sg14
V1783772
p620
sa(dp621
g9
Vdate
p622
sg11
Vhttps://movie.douban.com/subject/1292732/
p623
sg3
V\u84dd\u773c\u775b\u7c73\u5947 / Mickey Blue Eyes
p624
sg14
V1292732
p625
sa(dp626
g9
Vdate
p627
sg11
Vhttps://movie.douban.com/subject/1937401/
p628
sg3
VK\u6b4c\u60c5\u4eba / Music and Lyrics
p629
sg14
V1937401
p630
sa(dp631
g9
Vrating5-t
p632
sg11
Vhttps://movie.douban.com/subject/1301582/
p633
sg3
V\u82e6\u6708\u4eae / Bitter Moon
p634
sg14
V1301582
p635
sa(dp636
g9
Vrating5-t
p637
sg11
Vhttps://movie.douban.com/subject/24405378/
p638
sg3
V\u738b\u724c\u7279\u5de5\uff1a\u7279\u5de5\u5b66\u9662 / Kingsman: The Secret Service
p639
sg14
V24405378
p640
sa(dp641
g9
Vrating5-t
p642
sg11
Vhttps://movie.douban.com/subject/6402464/
p643
sg3
V\u9e92\u9e9f\u4e4b\u7ffc \u65b0\u53c2\u8005\u5267\u573a\u7248 / \u9e92\u9e9f\u306e\u7ffc \u5287\u5834\u7248\u65b0\u53c2\u8005
p644
sg14
V6402464
p645
sa(dp646
g9
Vrating5-t
p647
sg11
Vhttps://movie.douban.com/subject/20268721/
p648
sg3
V\u795e\u63a2\u4f3d\u5229\u7565 \u7b2c\u4e8c\u5b63 / \u30ac\u30ea\u30ec\u30aa \u7b2c2\u30b7\u30fc\u30ba\u30f3
p649
sg14
V20268721
p650
sa(dp651
g9
Vdate
p652
sg11
Vhttps://movie.douban.com/subject/1762834/
p653
sg3
V46\u4ebf\u5e74\u4e4b\u604b / 46\u5104\u5e74\u306e\u604b
p654
sg14
V1762834
p655
sa(dp656
g9
Vdate
p657
sg11
Vhttps://movie.douban.com/subject/1316589/
p658
sg3
V69 / Sixty Nine
p659
sg14
V1316589
p660
sa(dp661
g9
Vdate
p662
sg11
Vhttps://movie.douban.com/subject/1850963/
p663
sg3
V\u82b1\u9b41 / \u3055\u304f\u3089\u3093
p664
sg14
V1850963
p665
sa(dp666
g9
Vdate
p667
sg11
Vhttps://movie.douban.com/subject/2052451/
p668
sg3
V\u9752\u4e4b\u65f6\u4ee3 / \u9752\u306e\u6642\u4ee3
p669
sg14
V2052451
p670
sa(dp671
g9
Vrating5-t
p672
sg11
Vhttps://movie.douban.com/subject/1299062/
p673
sg3
V\u574f\u5b69\u5b50\u7684\u5929\u7a7a / \u30ad\u30c3\u30ba\u30fb\u30ea\u30bf\u30fc\u30f3
p674
sg14
V1299062
p675
sa(dp676
g9
Vrating5-t
p677
sg11
Vhttps://movie.douban.com/subject/1293315/
p678
sg3
V\u963f\u90ce\u7684\u6545\u4e8b
p679
sg14
V1293315
p680
sa(dp681
g9
Vrating5-t
p682
sg11
Vhttps://movie.douban.com/subject/1424627/
p683
sg3
V\u4e4c\u9e26\u4e0e\u9ebb\u96c0
p684
sg14
V1424627
p685
sa(dp686
g9
Vdate
p687
sg11
Vhttps://movie.douban.com/subject/1427034/
p688
sg3
V\u5c3c\u7f57\u6cb3\u4e0a\u7684\u60e8\u6848 / Poirot: Death on the Nile
p689
sg14
V1427034
p690
sa(dp691
g9
Vdate
p692
sg11
Vhttps://movie.douban.com/subject/1292048/
p693
sg3
V\u84dd\u767d\u7ea2\u4e09\u90e8\u66f2\u4e4b\u84dd / Trois couleurs: Bleu
p694
sg14
V1292048
p695
sa(dp696
g9
Vdate
p697
sg11
Vhttps://movie.douban.com/subject/1298522/
p698
sg3
V\u5c0f\u5987\u4eba / Little Women
p699
sg14
V1298522
p700
sa(dp701
g9
Vdate
p702
sg11
Vhttps://movie.douban.com/subject/1309069/
p703
sg3
V\u8759\u8760\u4fa0\uff1a\u4fa0\u5f71\u4e4b\u8c1c / Batman Begins
p704
sg14
V1309069
p705
sa(dp706
g9
Vrating4-t
p707
sg11
Vhttps://movie.douban.com/subject/2034997/
p708
sg3
V\u6545\u56ed\u98ce\u96e8\u540e / Brideshead Revisited
p709
sg14
V2034997
p710
sa(dp711
g9
Vdate
p712
sg11
Vhttps://movie.douban.com/subject/3395373/
p713
sg3
V\u8759\u8760\u4fa0\uff1a\u9ed1\u6697\u9a91\u58eb\u5d1b\u8d77 / The Dark Knight Rises
p714
sg14
V3395373
p715
sa(dp716
g9
Vrating5-t
p717
sg11
Vhttps://movie.douban.com/subject/1291858/
p718
sg3
V\u9b3c\u5b50\u6765\u4e86
p719
sg14
V1291858
p720
sa(dp721
g9
Vdate
p722
sg11
Vhttps://movie.douban.com/subject/1461403/
p723
sg3
V\u8336\u9986
p724
sg14
V1461403
p725
sa(dp726
g9
Vcomment
p727
sg11
Vhttps://movie.douban.com/subject/5450891/
p728
sg3
V\u6cf0\u5766\u5c3c\u514b\u53f7 3D\u7248 / Titanic 3D
p729
sg14
V5450891
p730
sa(dp731
g9
Vdate
p732
sg11
Vhttps://movie.douban.com/subject/3437176/
p733
sg3
V\u9ed1\u5854\u5229\u4e9a / \u30d8\u30bf\u30ea\u30a2 Axis Powers
p734
sg14
V3437176
p735
sa(dp736
g9
Vrating5-t
p737
sg11
Vhttps://movie.douban.com/subject/10527294/
p738
sg3
V\u767d\u718a\u5496\u5561\u9986 / \u3057\u308d\u304f\u307e\u30ab\u30d5\u30a7
p739
sg14
V10527294
p740
sa(dp741
g9
Vrating5-t
p742
sg11
Vhttps://movie.douban.com/subject/1474243/
p743
sg3
V\u68cb\u9b42 / \u30d2\u30ab\u30eb\u306e\u7881
p744
sg14
V1474243
p745
sa(dp746
g9
Vrating5-t
p747
sg11
Vhttps://movie.douban.com/subject/6518754/
p748
sg3
V\u51b2\u4e0a\u4e91\u9704II / \u885d\u4e0a\u96f2\u9704II
p749
sg14
V6518754
p750
sa(dp751
g9
Vrating5-t
p752
sg11
Vhttps://movie.douban.com/subject/1293164/
p753
sg3
V\u5f53\u7537\u4eba\u7231\u4e0a\u5973\u4eba / When a Man Loves a Woman
p754
sg14
V1293164
p755
sa(dp756
g9
Vrating4-t
p757
sg11
Vhttps://movie.douban.com/subject/10733376/
p758
sg3
V\u9006\u5149\u98de\u7fd4 / \u9006\u5149\u98db\u7fd4
p759
sg14
V10733376
p760
sa(dp761
g9
Vcomment
p762
sg11
Vhttps://movie.douban.com/subject/26140241/
p763
sg3
V\u54b1\u4eec\u7ed3\u5a5a\u5427
p764
sg14
V26140241
p765
sa(dp766
g9
Vrating5-t
p767
sg11
Vhttps://movie.douban.com/subject/3275168/
p768
sg3
V\u5355\u8eab\u7537\u5b50 / A Single Man
p769
sg14
V3275168
p770
sa(dp771
g9
Vrating5-t
p772
sg11
Vhttps://movie.douban.com/subject/20416430/
p773
sg3
V\u6700\u5b8c\u7f8e\u7684\u79bb\u5a5a / \u6700\u9ad8\u306e\u96e2\u5a5a
p774
sg14
V20416430
p775
sa(dp776
g9
Vdate
p777
sg11
Vhttps://movie.douban.com/subject/1306861/
p778
sg3
V\u6211\u662f\u5c71\u59c6 / I Am Sam
p779
sg14
V1306861
p780
sa(dp781
g9
Vrating5-t
p782
sg11
Vhttps://movie.douban.com/subject/25718082/
p783
sg3
V\u5ff5\u5ff5
p784
sg14
V25718082
p785
sa(dp786
g9
Vrating5-t
p787
sg11
Vhttps://movie.douban.com/subject/24815950/
p788
sg3
V\u4e07\u7269\u7406\u8bba / The Theory of Everything
p789
sg14
V24815950
p790
sa(dp791
g9
Vrating5-t
p792
sg11
Vhttps://movie.douban.com/subject/1308076/
p793
sg3
V\u84dd\u5b87 / \u85cd\u5b87
p794
sg14
V1308076
p795
sa(dp796
g9
Vrating5-t
p797
sg11
Vhttps://movie.douban.com/subject/10463953/
p798
sg3
V\u6a21\u4eff\u6e38\u620f / The Imitation Game
p799
sg14
V10463953
p800
sa(dp801
g9
Vdate
p802
sg11
Vhttps://movie.douban.com/subject/1465794/
p803
sg3
V\u5723\u8005\u7684\u884c\u8fdb / \u8056\u8005\u306e\u884c\u9032
p804
sg14
V1465794
p805
sa(dp806
g9
Vrating5-t
p807
sg11
Vhttps://movie.douban.com/subject/1301658/
p808
sg3
V\u5927\u9ece\u660e / Un flic
p809
sg14
V1301658
p810
sa(dp811
g9
Vrating5-t
p812
sg11
Vhttps://movie.douban.com/subject/1305348/
p813
sg3
V\u514b\u5170\u5148\u751f / Monsieur Klein
p814
sg14
V1305348
p815
sa(dp816
g9
Vrating5-t
p817
sg11
Vhttps://movie.douban.com/subject/5308231/
p818
sg3
V\u7237\u723725\u5c81 / \u304a\u3058\u3044\u3061\u3083\u3093\u306f25\u6b73
p819
sg14
V5308231
p820
sa(dp821
g9
Vdate
p822
sg11
Vhttps://movie.douban.com/subject/1293908/
p823
sg3
V\u57ce\u5e02\u4e4b\u5149 / City Lights
p824
sg14
V1293908
p825
sa(dp826
g9
Vdate
p827
sg11
Vhttps://movie.douban.com/subject/1295280/
p828
sg3
V\u9ed1\u8863\u4eba2 / Men in Black II
p829
sg14
V1295280
p830
sa(dp831
g9
Vdate
p832
sg11
Vhttps://movie.douban.com/subject/1293702/
p833
sg3
V\u4f8f\u7f57\u7eaa\u516c\u56ed2\uff1a\u5931\u843d\u7684\u4e16\u754c / The Lost World: Jurassic Park
p834
sg14
V1293702
p835
sa(dp836
g9
Vdate
p837
sg11
Vhttps://movie.douban.com/subject/3642835/
p838
sg3
V\u9ed1\u8863\u4eba3 / Men in Black III
p839
sg14
V3642835
p840
sa(dp841
g9
Vdate
p842
sg11
Vhttps://movie.douban.com/subject/1297785/
p843
sg3
V\u661f\u7403\u5927\u6218\u524d\u4f202\uff1a\u514b\u9686\u4eba\u7684\u8fdb\u653b / Star Wars: Episode II - Attack of the Clones
p844
sg14
V1297785
p845
sa(dp846
g9
Vdate
p847
sg11
Vhttps://movie.douban.com/subject/1300656/
p848
sg3
V\u7ec8\u7ed3\u8005 / The Terminator
p849
sg14
V1300656
p850
sa(dp851
g9
Vdate
p852
sg11
Vhttps://movie.douban.com/subject/1294362/
p853
sg3
V\u661f\u7403\u5927\u6218\u524d\u4f201\uff1a\u5e7d\u7075\u7684\u5a01\u80c1 / Star Wars: Episode I - The Phantom Menace
p854
sg14
V1294362
p855
sa(dp856
g9
Vdate
p857
sg11
Vhttps://movie.douban.com/subject/1292523/
p858
sg3
V\u4f8f\u7f57\u7eaa\u516c\u56ed / Jurassic Park
p859
sg14
V1292523
p860
sa(dp861
g9
Vdate
p862
sg11
Vhttps://movie.douban.com/subject/1309078/
p863
sg3
V\u661f\u7403\u5927\u6218\u524d\u4f203\uff1a\u897f\u65af\u7684\u590d\u4ec7 / Star Wars: Episode III - Revenge of the Sith
p864
sg14
V1309078
p865
sa(dp866
g9
Vdate
p867
sg11
Vhttps://movie.douban.com/subject/1296528/
p868
sg3
V\u661f\u7403\u5927\u62182\uff1a\u5e1d\u56fd\u53cd\u51fb\u6218 / Star Wars: Episode V - The Empire Strikes Back
p869
sg14
V1296528
p870
sa(dp871
g9
Vdate
p872
sg11
Vhttps://movie.douban.com/subject/1297151/
p873
sg3
V\u661f\u7403\u5927\u62183\uff1a\u7edd\u5730\u5f52\u6765 / Star Wars: Episode VI - Return of the Jedi
p874
sg14
V1297151
p875
sa(dp876
g9
Vdate
p877
sg11
Vhttps://movie.douban.com/subject/1293838/
p878
sg3
V\u661f\u7403\u5927\u6218 / Star Wars
p879
sg14
V1293838
p880
sa(dp881
g9
Vdate
p882
sg11
Vhttps://movie.douban.com/subject/1302827/
p883
sg3
V\u4eba\u5de5\u667a\u80fd / Artificial Intelligence: AI
p884
sg14
V1302827
p885
sa(dp886
g9
Vdate
p887
sg11
Vhttps://movie.douban.com/subject/3504940/
p888
sg3
V\u633d\u6b4c / Elegy
p889
sg14
V3504940
p890
sa(dp891
g9
Vdate
p892
sg11
Vhttps://movie.douban.com/subject/1293868/
p893
sg3
V\u9f99\u51e4\u914d / Sabrina
p894
sg14
V1293868
p895
sa(dp896
g9
Vdate
p897
sg11
Vhttps://movie.douban.com/subject/6386345/
p898
sg3
V\u6625\u5a07\u4e0e\u5fd7\u660e / \u6625\u5b0c\u8207\u5fd7\u660e
p899
sg14
V6386345
p900
sa(dp901
g9
Vdate
p902
sg11
Vhttps://movie.douban.com/subject/4873490/
p903
sg3
V\u5931\u604b33\u5929
p904
sg14
V4873490
p905
sa(dp906
g9
Vdate
p907
sg11
Vhttps://movie.douban.com/subject/1296824/
p908
sg3
V\u7b80\u7231 / Jane Eyre
p909
sg14
V1296824
p910
sa(dp911
g9
Vdate
p912
sg11
Vhttps://movie.douban.com/subject/1297710/
p913
sg3
V\u5929\u82e5\u6709\u60c5
p914
sg14
V1297710
p915
sa(dp916
g9
Vrating5-t
p917
sg11
Vhttps://movie.douban.com/subject/3094909/
p918
sg3
V\u4e4c\u4e91\u80cc\u540e\u7684\u5e78\u798f\u7ebf / Silver Linings Playbook
p919
sg14
V3094909
p920
sa(dp921
g9
Vdate
p922
sg11
Vhttps://movie.douban.com/subject/1306526/
p923
sg3
V\u89e6\u4e0d\u5230\u7684\u604b\u4eba / \uc2dc\uc6d4\uc560
p924
sg14
V1306526
p925
sa(dp926
g9
Vdate
p927
sg11
Vhttps://movie.douban.com/subject/1308804/
p928
sg3
V\u6211\u8111\u4e2d\u7684\u6a61\u76ae\u64e6 / \ub0b4 \uba38\ub9ac \uc18d\uc758 \uc9c0\uc6b0\uac1c
p929
sg14
V1308804
p930
sa(dp931
g9
Vdate
p932
sg11
Vhttps://movie.douban.com/subject/1291559/
p933
sg3
V\u65b0\u6865\u604b\u4eba / Les amants du Pont-Neuf
p934
sg14
V1291559
p935
sa(dp936
g9
Vrating4-t
p937
sg11
Vhttps://movie.douban.com/subject/4191644/
p938
sg3
V\u4e00\u5929 / One Day
p939
sg14
V4191644
p940
sa(dp941
g9
Vdate
p942
sg11
Vhttps://movie.douban.com/subject/1293825/
p943
sg3
V\u98ce\u6708\u4fcf\u4f73\u4eba / Pretty Woman
p944
sg14
V1293825
p945
sa(dp946
g9
Vdate
p947
sg11
Vhttps://movie.douban.com/subject/1293818/
p948
sg3
V\u94a2\u7434\u8bfe / The Piano
p949
sg14
V1293818
p950
sa(dp951
g9
Vdate
p952
sg11
Vhttps://movie.douban.com/subject/1433360/
p953
sg3
V\u96cf\u83ca / \ub370\uc774\uc9c0
p954
sg14
V1433360
p955
sa(dp956
g9
Vdate
p957
sg11
Vhttps://movie.douban.com/subject/4305436/
p958
sg3
V\u5fd7\u660e\u4e0e\u6625\u5a07 / \u5fd7\u660e\u8207\u6625\u5b0c
p959
sg14
V4305436
p960
sa(dp961
g9
Vdate
p962
sg11
Vhttps://movie.douban.com/subject/1292329/
p963
sg3
V\u726f\u5cad\u8857\u5c11\u5e74\u6740\u4eba\u4e8b\u4ef6 / \u726f\u5dba\u8857\u5c11\u5e74\u6bba\u4eba\u4e8b\u4ef6
p964
sg14
V1292329
p965
sa(dp966
g9
Vdate
p967
sg11
Vhttps://movie.douban.com/subject/1291853/
p968
sg3
V\u82f1\u56fd\u75c5\u4eba / The English Patient
p969
sg14
V1291853
p970
sa(dp971
g9
Vdate
p972
sg11
Vhttps://movie.douban.com/subject/1306249/
p973
sg3
V\u5510\u4f2f\u864e\u70b9\u79cb\u9999 / \u5510\u4f2f\u864e\u9ede\u79cb\u9999
p974
sg14
V1306249
p975
sa(dp976
g9
Vdate
p977
sg11
Vhttps://movie.douban.com/subject/1292062/
p978
sg3
V\u7f8e\u56fd\u4e3d\u4eba / American Beauty
p979
sg14
V1292062
p980
sa(dp981
g9
Vdate
p982
sg11
Vhttps://movie.douban.com/subject/1291844/
p983
sg3
V\u7ec8\u7ed3\u80052\uff1a\u5ba1\u5224\u65e5 / Terminator 2: Judgment Day
p984
sg14
V1291844
p985
sa(dp986
g9
Vdate
p987
sg11
Vhttps://movie.douban.com/subject/1308777/
p988
sg3
V\u6696\u6696\u5185\u542b\u5149 / Eternal Sunshine of the Spotless Mind
p989
sg14
V1308777
p990
sa(dp991
g9
Vdate
p992
sg11
Vhttps://movie.douban.com/subject/1292233/
p993
sg3
V\u53d1\u6761\u6a59 / A Clockwork Orange
p994
sg14
V1292233
p995
sa(dp996
g9
Vdate
p997
sg11
Vhttps://movie.douban.com/subject/1297478/
p998
sg3
V\u4e0a\u5e1d\u4e5f\u75af\u72c2 / The Gods Must Be Crazy
p999
sg14
V1297478
p1000
sa(dp1001
g9
Vdate
p1002
sg11
Vhttps://movie.douban.com/subject/1293544/
p1003
sg3
V\u6c89\u9ed8\u7684\u7f94\u7f8a / The Silence of the Lambs
p1004
sg14
V1293544
p1005
sa(dp1006
g9
Vdate
p1007
sg11
Vhttps://movie.douban.com/subject/1291879/
p1008
sg3
V\u7f57\u751f\u95e8 / \u7f85\u751f\u9580
p1009
sg14
V1291879
p1010
sa(dp1011
g9
Vdate
p1012
sg11
Vhttps://movie.douban.com/subject/1307793/
p1013
sg3
V\u71d5\u5c3e\u8776 / \u30b9\u30ef\u30ed\u30a6\u30c6\u30a4\u30eb
p1014
sg14
V1307793
p1015
sa(dp1016
g9
Vdate
p1017
sg11
Vhttps://movie.douban.com/subject/1294240/
p1018
sg3
V\u6559\u72363 / The Godfather: Part III
p1019
sg14
V1294240
p1020
sa(dp1021
g9
Vdate
p1022
sg11
Vhttps://movie.douban.com/subject/1300960/
p1023
sg3
V\u78a7\u6d77\u84dd\u5929 / Le grand bleu
p1024
sg14
V1300960
p1025
sa(dp1026
g9
Vdate
p1027
sg11
Vhttps://movie.douban.com/subject/1294371/
p1028
sg3
V\u6469\u767b\u65f6\u4ee3 / Modern Times
p1029
sg14
V1294371
p1030
sa(dp1031
g9
Vdate
p1032
sg11
Vhttps://movie.douban.com/subject/1296909/
p1033
sg3
V\u864e\u53e3\u8131\u9669 / La grande vadrouille
p1034
sg14
V1296909
p1035
sa(dp1036
g9
Vdate
p1037
sg11
Vhttps://movie.douban.com/subject/1292679/
p1038
sg3
V\u6625\u5149\u4e4d\u6cc4 / \u6625\u5149\u4e4d\u6d29
p1039
sg14
V1292679
p1040
sa(dp1041
g9
Vdate
p1042
sg11
Vhttps://movie.douban.com/subject/1291999/
p1043
sg3
V\u91cd\u5e86\u68ee\u6797 / \u91cd\u6176\u68ee\u6797
p1044
sg14
V1291999
p1045
sa(dp1046
g9
Vdate
p1047
sg11
Vhttps://movie.douban.com/subject/1291571/
p1048
sg3
V\u6307\u73af\u738b1\uff1a\u9b54\u6212\u518d\u73b0 / The Lord of the Rings: The Fellowship of the Ring
p1049
sg14
V1291571
p1050
sa(dp1051
g9
Vdate
p1052
sg11
Vhttps://movie.douban.com/subject/1291572/
p1053
sg3
V\u6307\u73af\u738b2\uff1a\u53cc\u5854\u5947\u5175 / The Lord of the Rings: The Two Towers
p1054
sg14
V1291572
p1055
sa(dp1056
g9
Vrating5-t
p1057
sg11
Vhttps://movie.douban.com/subject/1306029/
p1058
sg3
V\u7f8e\u4e3d\u5fc3\u7075 / A Beautiful Mind
p1059
sg14
V1306029
p1060
sa(dp1061
g9
Vdate
p1062
sg11
Vhttps://movie.douban.com/subject/1851857/
p1063
sg3
V\u8759\u8760\u4fa0\uff1a\u9ed1\u6697\u9a91\u58eb / The Dark Knight
p1064
sg14
V1851857
p1065
sa(dp1066
g9
Vdate
p1067
sg11
Vhttps://movie.douban.com/subject/1292224/
p1068
sg3
V\u98de\u8d8a\u75af\u4eba\u9662 / One Flew Over the Cuckoo's Nest
p1069
sg14
V1292224
p1070
sa(dp1071
g9
Vdate
p1072
sg11
Vhttps://movie.douban.com/subject/1849031/
p1073
sg3
V\u5f53\u5e78\u798f\u6765\u6572\u95e8 / The Pursuit of Happyness
p1074
sg14
V1849031
p1075
sa(dp1076
g9
Vdate
p1077
sg11
Vhttps://movie.douban.com/subject/1295124/
p1078
sg3
V\u8f9b\u5fb7\u52d2\u7684\u540d\u5355 / Schindler's List
p1079
sg14
V1295124
p1080
sa(dp1081
g9
Vcomment
p1082
sg11
Vhttps://movie.douban.com/subject/2363876/
p1083
sg3
V007\uff1a\u5927\u7834\u5929\u5e55\u6740\u673a / Skyfall
p1084
sg14
V2363876
p1085
sa(dp1086
g9
Vcomment
p1087
sg11
Vhttps://movie.douban.com/subject/3530403/
p1088
sg3
V\u4e91\u56fe / Cloud Atlas
p1089
sg14
V3530403
p1090
sa(dp1091
g9
Vcomment
p1092
sg11
Vhttps://movie.douban.com/subject/20443013/
p1093
sg3
V\u6551\u706b\u82f1\u96c4
p1094
sg14
V20443013
p1095
sa(dp1096
g9
Vcomment
p1097
sg11
Vhttps://movie.douban.com/subject/11625097/
p1098
sg3
V\u6fb3\u95e8\u98ce\u4e91 / \u8ced\u57ce\u98a8\u96f2
p1099
sg14
V11625097
p1100
sa(dp1101
g9
Vrating4-t
p1102
sg11
Vhttps://movie.douban.com/subject/1418192/
p1103
sg3
V\u52a0\u52d2\u6bd4\u6d77\u76d73\uff1a\u4e16\u754c\u7684\u5c3d\u5934 / Pirates of the Caribbean: At World's End
p1104
sg14
V1418192
p1105
sa(dp1106
g9
Vrating5-t
p1107
sg11
Vhttps://movie.douban.com/subject/1929463/
p1108
sg3
V\u5c11\u5e74\u6d3e\u7684\u5947\u5e7b\u6f02\u6d41 / Life of Pi
p1109
sg14
V1929463
p1110
sa(dp1111
g9
Vrating3-t
p1112
sg11
Vhttps://movie.douban.com/subject/6793319/
p1113
sg3
V\u5973\u86f9
p1114
sg14
V6793319
p1115
sa(dp1116
g9
Vrating5-t
p1117
sg11
Vhttps://movie.douban.com/subject/4724739/
p1118
sg3
V\u5355\u8eab\u7537\u5973 / \u55ae\u8eab\u7537\u5973
p1119
sg14
V4724739
p1120
sa(dp1121
g9
Vdate
p1122
sg11
Vhttps://movie.douban.com/subject/5031866/
p1123
sg3
V\u9ed1\u5854\u5229\u4e9a \u7b2c4\u5b63 / \u30d8\u30bf\u30ea\u30a2 Axis Powers \u7b2c4\u671f
p1124
sg14
V5031866
p1125
sa(dp1126
g9
Vdate
p1127
sg11
Vhttps://movie.douban.com/subject/5247074/
p1128
sg3
V\u5b8c\u7f8e\u62a5\u544a / \u30d1\u30fc\u30d5\u30a7\u30af\u30c8\u30fb\u30ea\u30dd\u30fc\u30c8
p1129
sg14
V5247074
p1130
sa(dp1131
g9
Vcomment
p1132
sg11
Vhttps://movie.douban.com/subject/3742360/
p1133
sg3
V\u8ba9\u5b50\u5f39\u98de
p1134
sg14
V3742360
p1135
sa(dp1136
g9
Vdate
p1137
sg11
Vhttps://movie.douban.com/subject/2357719/
p1138
sg3
V\u540d\u4fa6\u63a2\u67ef\u5357\uff1a\u6218\u6817\u7684\u4e50\u8c31 / \u540d\u63a2\u5075\u30b3\u30ca\u30f3 \u6226\u6144\u306e\u697d\u8b5c
p1139
sg14
V2357719
p1140
sa(dp1141
g9
Vdate
p1142
sg11
Vhttps://movie.douban.com/subject/1463371/
p1143
sg3
V\u540d\u4fa6\u63a2\u67ef\u5357 / \u540d\u63a2\u5075\u30b3\u30ca\u30f3
p1144
sg14
V1463371
p1145
sa(dp1146
g9
Vrating4-t
p1147
sg11
Vhttps://movie.douban.com/subject/2357711/
p1148
sg3
V\u540d\u4fa6\u63a2\u67ef\u5357\uff1a\u94f6\u7ffc\u7684\u9b54\u672f\u5e08 / \u540d\u63a2\u5075\u30b3\u30ca\u30f3 \u9280\u7ffc\u306e\u5947\u8853\u5e2b
p1149
sg14
V2357711
p1150
sa(dp1151
g9
Vrating5-t
p1152
sg11
Vhttps://movie.douban.com/subject/2357713/
p1153
sg3
V\u540d\u4fa6\u63a2\u67ef\u5357\uff1a\u6c34\u5e73\u7ebf\u4e0a\u7684\u9634\u8c0b / \u540d\u63a2\u5075\u30b3\u30ca\u30f3 \u6c34\u5e73\u7dda\u4e0a\u306e\u9670\u8b00
p1154
sg14
V2357713
p1155
sa(dp1156
g9
Vrating4-t
p1157
sg11
Vhttps://movie.douban.com/subject/1827955/
p1158
sg3
V\u540d\u4fa6\u63a2\u67ef\u5357\uff1a\u4fa6\u63a2\u4eec\u7684\u9547\u9b42\u6b4c / \u540d\u63a2\u5075\u30b3\u30ca\u30f3 \u63a2\u5075\u305f\u3061\u306e\u93ae\u9b42\u6b4c
p1159
sg14
V1827955
p1160
sa(dp1161
g9
Vcomment
p1162
sg11
Vhttps://movie.douban.com/subject/5153329/
p1163
sg3
V\u540d\u4fa6\u63a2\u67ef\u5357\uff1a\u5929\u7a7a\u7684\u9047\u96be\u8239 / \u540d\u63a2\u5075\u30b3\u30ca\u30f3 \u5929\u7a7a\u306e\u96e3\u7834\u8239
p1164
sg14
V5153329
p1165
sa(dp1166
g9
Vcomment
p1167
sg11
Vhttps://movie.douban.com/subject/3718665/
p1168
sg3
V\u8bc8\u6b3a\u6e38\u620f \u7535\u5f71\u7248 / \u30e9\u30a4\u30a2\u30fc\u30b2\u30fc\u30e0\u3000\u30b6\u30fb\u30d5\u30a1\u30a4\u30ca\u30eb\u30b9\u30c6\u30fc\u30b8
p1169
sg14
V3718665
p1170
sa(dp1171
g9
Vdate
p1172
sg11
Vhttps://movie.douban.com/subject/4827531/
p1173
sg3
V\u8424\u4e4b\u51492 / \u30db\u30bf\u30eb\u30ce\u30d2\u30ab\u30ea2
p1174
sg14
V4827531
p1175
sa(dp1176
g9
Vrating5-t
p1177
sg11
Vhttps://movie.douban.com/subject/3430169/
p1178
sg3
V\u94a2\u4e4b\u70bc\u91d1\u672f\u5e08FA / \u92fc\u306e\u932c\u91d1\u8853\u5e2b FULLMETAL ALCHEMIST
p1179
sg14
V3430169
p1180
sa(dp1181
g9
Vrating5-t
p1182
sg11
Vhttps://movie.douban.com/subject/1297233/
p1183
sg3
V\u5fc3\u4e4b\u5168\u8680 / Total Eclipse
p1184
sg14
V1297233
p1185
sa(dp1186
g9
Vrating5-t
p1187
sg11
Vhttps://movie.douban.com/subject/4100696/
p1188
sg3
V\u7f8e\u4e3d\u5bc6\u4ee4
p1189
sg14
V4100696
p1190
sa(dp1191
g9
Vrating5-t
p1192
sg11
Vhttps://movie.douban.com/subject/3335463/
p1193
sg3
V\u4ea4\u54cd\u60c5\u4eba\u68a6 \u6700\u7ec8\u4e50\u7ae0 \u524d\u7bc7 / \u306e\u3060\u3081\u30ab\u30f3\u30bf\u30fc\u30d3\u30ec \u6700\u7d42\u697d\u7ae0 \u524d\u7de8
p1194
sg14
V3335463
p1195
sa(dp1196
g9
Vrating5-t
p1197
sg11
Vhttps://movie.douban.com/subject/3335464/
p1198
sg3
V\u4ea4\u54cd\u60c5\u4eba\u68a6 \u6700\u7ec8\u4e50\u7ae0 \u540e\u7bc7 / \u306e\u3060\u3081\u30ab\u30f3\u30bf\u30fc\u30d3\u30ec \u6700\u7d42\u697d\u7ae0 \u5f8c\u7de8
p1199
sg14
V3335464
p1200
sa(dp1201
g9
Vcomment
p1202
sg11
Vhttps://movie.douban.com/subject/3541415/
p1203
sg3
V\u76d7\u68a6\u7a7a\u95f4 / Inception
p1204
sg14
V3541415
p1205
sa(dp1206
g9
Vdate
p1207
sg11
Vhttps://movie.douban.com/subject/1299362/
p1208
sg3
V\u4fdd\u9556 / The Bodyguard
p1209
sg14
V1299362
p1210
sa(dp1211
g9
Vdate
p1212
sg11
Vhttps://movie.douban.com/subject/1293695/
p1213
sg3
V\u9e33\u68a6\u91cd\u6e29 / Random Harvest
p1214
sg14
V1293695
p1215
sa(dp1216
g9
Vrating5-t
p1217
sg11
Vhttps://movie.douban.com/subject/1303415/
p1218
sg3
V\u6dd1\u5973\u4f0a\u8299 / The Lady Eve
p1219
sg14
V1303415
p1220
sa(dp1221
g9
Vdate
p1222
sg11
Vhttps://movie.douban.com/subject/1456204/
p1223
sg3
VX\u6218\u8bb0 / X -\u30a8\u30c3\u30af\u30b9-
p1224
sg14
V1456204
p1225
sa(dp1226
g9
Vcomment
p1227
sg11
Vhttps://movie.douban.com/subject/1870117/
p1228
sg3
V\u7532\u8d3a\u5fcd\u6cd5\u5e16 / \u30d0\u30b8\u30ea\u30b9\u30af \uff5e\u7532\u8cc0\u5fcd\u6cd5\u5e16\uff5e
p1229
sg14
V1870117
p1230
sa(dp1231
g9
Vrating5-t
p1232
sg11
Vhttps://movie.douban.com/subject/1826462/
p1233
sg3
V\u65e0\u7231\u4e4b\u6218 / LOVELESS
p1234
sg14
V1826462
p1235
sa(dp1236
g9
Vrating5-t
p1237
sg11
Vhttps://movie.douban.com/subject/2287862/
p1238
sg3
V\u591c\u53c9 / YASHA
p1239
sg14
V2287862
p1240
sa(dp1241
g9
Vdate
p1242
sg11
Vhttps://movie.douban.com/subject/4307476/
p1243
sg3
V\u65e0\u6cd5\u5766\u8bda\u76f8\u5bf9 / \u7d20\u76f4\u306b\u306a\u308c\u306a\u304f\u3066
p1244
sg14
V4307476
p1245
sa(dp1246
g9
Vrating4-t
p1247
sg11
Vhttps://movie.douban.com/subject/4293234/
p1248
sg3
V\u65b0\u53c2\u8005
p1249
sg14
V4293234
p1250
sa(dp1251
g9
Vrating5-t
p1252
sg11
Vhttps://movie.douban.com/subject/4061061/
p1253
sg3
V\u7d27\u6025\u6551\u547d2 / \u30b3\u30fc\u30c9\u30fb\u30d6\u30eb\u30fc\uff5e\u30c9\u30af\u30bf\u30fc\u30d8\u30ea\u7dca\u6025\u6551\u547d 2nd season
p1254
sg14
V4061061
p1255
sa(dp1256
g9
Vcomment
p1257
sg11
Vhttps://movie.douban.com/subject/1436998/
p1258
sg3
V\u963f\u4fee\u7f57\u57ce\u4e4b\u77b3 / \u963f\u4fee\u7f85\u57ce\u306e\u77b3
p1259
sg14
V1436998
p1260
sa(dp1261
g9
Vdate
p1262
sg11
Vhttps://movie.douban.com/subject/4022142/
p1263
sg3
V\u6211\u5bb6\u7684\u5386\u53f2 / \u308f\u304c\u5bb6\u306e\u6b74\u53f2
p1264
sg14
V4022142
p1265
sa(dp1266
g9
Vrating5-t
p1267
sg11
Vhttps://movie.douban.com/subject/3062263/
p1268
sg3
V\u95f4\u4e4b\u6954 / \u9593\u306e\u6954
p1269
sg14
V3062263
p1270
sa(dp1271
g9
Vcomment
p1272
sg11
Vhttps://movie.douban.com/subject/1794793/
p1273
sg3
V\u68ee\u6797\u597d\u5c0f\u5b50 / \u71c3\u3048\u308b\uff01\u304a\u5144\u3055\u3093
p1274
sg14
V1794793
p1275
sa(dp1276
g9
Vdate
p1277
sg11
Vhttps://movie.douban.com/subject/4271533/
p1278
sg3
V\u6bd5\u4e1a\u4e4b\u6b4c / \u5352\u3046\u305f
p1279
sg14
V4271533
p1280
sa(dp1281
g9
Vrating5-t
p1282
sg11
Vhttps://movie.douban.com/subject/4728548/
p1283
sg3
V\u96fe\u4e4b\u65d7 / \u96fe\u306e\u65d7
p1284
sg14
V4728548
p1285
sa(dp1286
g9
Vdate
p1287
sg11
Vhttps://movie.douban.com/subject/1307306/
p1288
sg3
V\u9ec4\u660f\u7684\u6e05\u5175\u536b / \u305f\u305d\u304c\u308c\u6e05\u5175\u885b
p1289
sg14
V1307306
p1290
sa(dp1291
g9
Vdate
p1292
sg11
Vhttps://movie.douban.com/subject/1322847/
p1293
sg3
V\u679c\u9171 / Jam Films
p1294
sg14
V1322847
p1295
sa(dp1296
g9
Vdate
p1297
sg11
Vhttps://movie.douban.com/subject/1308543/
p1298
sg3
V\u7231\u7684\u6346\u7ed1 / Undo
p1299
sg14
V1308543
p1300
sa(dp1301
g9
Vdate
p1302
sg11
Vhttps://movie.douban.com/subject/1915403/
p1303
sg3
V\u53ea\u662f\u7231\u7740\u4f60 / \u305f\u3060\u3001\u541b\u3092\u611b\u3057\u3066\u308b
p1304
sg14
V1915403
p1305
sa(dp1306
g9
Vdate
p1307
sg11
Vhttps://movie.douban.com/subject/1292371/
p1308
sg3
V\u56db\u6708\u7269\u8bed / \u56db\u6708\u7269\u8a9e
p1309
sg14
V1292371
p1310
sa(dp1311
g9
Vdate
p1312
sg11
Vhttps://movie.douban.com/subject/4264112/
p1313
sg3
V\u51b3\u5b9a\u4e0d\u54ed\u7684\u65e5\u5b50 / \u6ce3\u304b\u306a\u3044\u3068\u6c7a\u3081\u305f\u65e5
p1314
sg14
V4264112
p1315
sa(dp1316
g9
Vrating4-t
p1317
sg11
Vhttps://movie.douban.com/subject/4176552/
p1318
sg3
V\u4e0d\u5c48\u670d\u7684\u5973\u4eba / \u66f2\u3052\u3089\u308c\u306a\u3044\u5973
p1319
sg14
V4176552
p1320
sa(dp1321
g9
Vdate
p1322
sg11
Vhttps://movie.douban.com/subject/4172621/
p1323
sg3
V\u5b8c\u7f8e\u5c0f\u59d0\u8fdb\u5316\u8bba / \u30e4\u30de\u30c8\u30ca\u30c7\u30b7\u30b3\u4e03\u5909\u5316
p1324
sg14
V4172621
p1325
sa(dp1326
g9
Vdate
p1327
sg11
Vhttps://movie.douban.com/subject/3683923/
p1328
sg3
V\u5a5a\u6d3b\u4e00\u65cf / \u5a5a\u30ab\u30c4\uff01
p1329
sg14
V3683923
p1330
sa(dp1331
g9
Vdate
p1332
sg11
Vhttps://movie.douban.com/subject/2268359/
p1333
sg3
V\u66ae\u5149\u4e4b\u57ce / Twilight
p1334
sg14
V2268359
p1335
sa(dp1336
g9
Vdate
p1337
sg11
Vhttps://movie.douban.com/subject/3685955/
p1338
sg3
V\u8bc8\u6b3a\u6e38\u620f2 / \u30e9\u30a4\u30a2\u30fc\u30b2\u30fc\u30e02
p1339
sg14
V3685955
p1340
sa(dp1341
g9
Vrating5-t
p1342
sg11
Vhttps://movie.douban.com/subject/2131161/
p1343
sg3
V\u7b03\u59ec / \u7be4\u59eb
p1344
sg14
V2131161
p1345
sa(dp1346
g9
Vdate
p1347
sg11
Vhttps://movie.douban.com/subject/1297294/
p1348
sg3
V\u8ff7\u9b42\u8bb0 / Vertigo
p1349
sg14
V1297294
p1350
sa(dp1351
g9
Vdate
p1352
sg11
Vhttps://movie.douban.com/subject/1299809/
p1353
sg3
V\u73a9\u5076 / \u30c9\u30fc\u30eb\u30ba
p1354
sg14
V1299809
p1355
sa(dp1356
g9
Vdate
p1357
sg11
Vhttps://movie.douban.com/subject/2336737/
p1358
sg3
V\u7c73\u5c14\u514b / Milk
p1359
sg14
V2336737
p1360
sa(dp1361
g9
Vdate
p1362
sg11
Vhttps://movie.douban.com/subject/1787291/
p1363
sg3
V\u88ab\u5acc\u5f03\u7684\u677e\u5b50\u7684\u4e00\u751f / \u5acc\u308f\u308c\u677e\u5b50\u306e\u4e00\u751f
p1364
sg14
V1787291
p1365
sa(dp1366
g9
Vdate
p1367
sg11
Vhttps://movie.douban.com/subject/3994104/
p1368
sg3
V\u4e1c\u4eac\u72d7 / \u6771\u4eacDOGS
p1369
sg14
V3994104
p1370
sa(dp1371
g9
Vdate
p1372
sg11
Vhttps://movie.douban.com/subject/4011661/
p1373
sg3
V\u4e16\u754c\u5947\u5999\u7269\u8bed 01\u6625\u4e4b\u7279\u522b\u7bc7 / \u4e16\u306b\u3082\u5947\u5999\u306a\u7269\u8a9e '01\u6625\u306e\u7279\u5225\u7de8
p1374
sg14
V4011661
p1375
sa(dp1376
g9
Vdate
p1377
sg11
Vhttps://movie.douban.com/subject/1768884/
p1378
sg3
V\u5929\u5802\u5931\u683c / \u30b9\u30af\u30e9\u30c3\u30d7\u30fb\u30d8\u30d6\u30f3
p1379
sg14
V1768884
p1380
sa(dp1381
g9
Vdate
p1382
sg11
Vhttps://movie.douban.com/subject/4034047/
p1383
sg3
V\u4e16\u754c\u5947\u5999\u7269\u8bed 2009\u79cb\u4e4b\u7279\u522b\u7bc7 / \u4e16\u306b\u3082\u5947\u5999\u306a\u7269\u8a9e 09\u79cb\u306e\u7279\u5225\u7de8
p1384
sg14
V4034047
p1385
sa(dp1386
g9
Vcomment
p1387
sg11
Vhttps://movie.douban.com/subject/3737098/
p1388
sg3
V\u96f6\u79d2\u51fa\u624b\uff1a\u60ac\u5d16\u4e0a\u7684\u82f1\u96c4 / \u30d6\u30b6\u30fc\u30fb\u30d3\u30fc\u30c8\u301c\u5d16\u3063\u3077\u3061\u306e\u30d2\u30fc\u30ed\u30fc\u301c
p1389
sg14
V3737098
p1390
sa(dp1391
g9
Vdate
p1392
sg11
Vhttps://movie.douban.com/subject/1303073/
p1393
sg3
V\u671b\u4e61 / \u30b5\u30f3\u30c0\u30ab\u30f3\u516b\u756a\u5a3c\u9928 \u671b\u90f7
p1394
sg14
V1303073
p1395
sa(dp1396
g9
Vdate
p1397
sg11
Vhttps://movie.douban.com/subject/1900180/
p1398
sg3
V\u6cea\u5149\u95ea\u95ea / \u6d99\u305d\u3046\u305d\u3046
p1399
sg14
V1900180
p1400
sa(dp1401
g9
Vdate
p1402
sg11
Vhttps://movie.douban.com/subject/1292444/
p1403
sg3
V\u5927\u9003\u6740 / \u30d0\u30c8\u30eb\u30fb\u30ed\u30ef\u30a4\u30a2\u30eb
p1404
sg14
V1292444
p1405
sa(dp1406
g9
Vdate
p1407
sg11
Vhttps://movie.douban.com/subject/1794171/
p1408
sg3
V\u53d8\u5f62\u91d1\u521a / Transformers
p1409
sg14
V1794171
p1410
sa(dp1411
g9
Vdate
p1412
sg11
Vhttps://movie.douban.com/subject/1308847/
p1413
sg3
V\u65b0\u624e\u5e08\u5144 / \u65b0\u7d2e\u5e2b\u5144
p1414
sg14
V1308847
p1415
sa(dp1416
g9
Vdate
p1417
sg11
Vhttps://movie.douban.com/subject/2033327/
p1418
sg3
V\u6551\u547d\u75c5\u680b24\u5c0f\u65f6 \u7b2c3\u5b63 / \u6551\u547d\u75c5\u68df24\u6642 \u7b2c3\u30b7\u30ea\u30fc\u30ba
p1419
sg14
V2033327
p1420
sa(dp1421
g9
Vdate
p1422
sg11
Vhttps://movie.douban.com/subject/2173126/
p1423
sg3
V\u6551\u547d\u75c5\u680b24\u5c0f\u65f6 \u7b2c2\u5b63 / \u6551\u547d\u75c5\u68df24\u6642 \u7b2c2\u30b7\u30ea\u30fc\u30ba
p1424
sg14
V2173126
p1425
sa(dp1426
g9
Vdate
p1427
sg11
Vhttps://movie.douban.com/subject/2340774/
p1428
sg3
V\u6551\u547d\u75c5\u680b24\u5c0f\u65f6 / \u6551\u547d\u75c5\u68df24\u6642
p1429
sg14
V2340774
p1430
sa(dp1431
g9
Vcomment
p1432
sg11
Vhttps://movie.douban.com/subject/3024984/
p1433
sg3
VAttention Please\u7279\u5225\u7bc72~\u4f86\u53bb\u6fb3\u6d32\u96ea\u68a8 / \u30a2\u30c6\u30f3\u30b7\u30e7\u30f3\u30d7\u30ea\u30fc\u30ba \u30b9\u30da\u30b7\u30e3\u30eb\uff5e\u30aa\u30fc\u30b9\u30c8\u30e9\u30ea\u30a2\u30fb\u30b7\u30c9\u30cb\u30fc\u7de8\uff5e
p1434
sg14
V3024984
p1435
sa(dp1436
g9
Vdate
p1437
sg11
Vhttps://movie.douban.com/subject/2299435/
p1438
sg3
Vattention please \u590f\u5a01\u5937\u7279\u522b\u7f16 / \u30a2\u30c6\u30f3\u30b7\u30e7\u30f3\u30d7\u30ea\u30fc\u30ba\u30b9\u30da\u30b7\u30e3\u30eb \u30cf\u30ef\u30a4\u7de8
p1439
sg14
V2299435
p1440
sa(dp1441
g9
Vdate
p1442
sg11
Vhttps://movie.douban.com/subject/3011224/
p1443
sg3
V\u7edd\u5bf9\u7537\u53cb / \u7d76\u5bfe\u5f7c\u6c0f\u301c\u5b8c\u5168\u7121\u6b20\u306e\u604b\u4eba\u30ed\u30dc\u30c3\u30c8\u301c
p1444
sg14
V3011224
p1445
sa(dp1446
g9
Vdate
p1447
sg11
Vhttps://movie.douban.com/subject/1937077/
p1448
sg3
V\u82b1\u6837\u7537\u5b502 / \u82b1\u3088\u308a\u7537\u5b502\uff08\u30ea\u30bf\u30fc\u30f3\u30ba\uff09
p1449
sg14
V1937077
p1450
sa(dp1451
g9
Vdate
p1452
sg11
Vhttps://movie.douban.com/subject/2018076/
p1453
sg3
V\u8bc8\u6b3a\u6e38\u620f / \u30e9\u30a4\u30a2\u30fc\u30b2\u30fc\u30e0
p1454
sg14
V2018076
p1455
sa(dp1456
g9
Vdate
p1457
sg11
Vhttps://movie.douban.com/subject/3602965/
p1458
sg3
V\u7231\u60c5\u6d17\u724c / Love Shuffle
p1459
sg14
V3602965
p1460
sa(dp1461
g9
Vdate
p1462
sg11
Vhttps://movie.douban.com/subject/3003826/
p1463
sg3
V\u901d\u7eb8 / \u30a4\u30ad\u30ac\u30df
p1464
sg14
V3003826
p1465
sa(dp1466
g9
Vdate
p1467
sg11
Vhttps://movie.douban.com/subject/3103405/
p1468
sg3
V\u6bd2\u6c14\u98ce\u66b4 / M.W.
p1469
sg14
V3103405
p1470
sa(dp1471
g9
Vdate
p1472
sg11
Vhttps://movie.douban.com/subject/1462703/
p1473
sg3
V\u5728\u4e16\u754c\u7684\u4e2d\u5fc3\u547c\u5524\u7231 / \u4e16\u754c\u306e\u4e2d\u5fc3\u3067\u3001\u611b\u3092\u3055\u3051\u3076
p1474
sg14
V1462703
p1475
sa(dp1476
g9
Vdate
p1477
sg11
Vhttps://movie.douban.com/subject/1397350/
p1478
sg3
V\u96e8\u9cdf\u4e4b\u6cb3 / \u96e8\u9c52\u306e\u5ddd
p1479
sg14
V1397350
p1480
sa(dp1481
g9
Vrating5-t
p1482
sg11
Vhttps://movie.douban.com/subject/3892394/
p1483
sg3
V\u4ec1\u533b / JIN-\u4ec1-
p1484
sg14
V3892394
p1485
sa(dp1486
g9
Vdate
p1487
sg11
Vhttps://movie.douban.com/subject/3732807/
p1488
sg3
V\u53cc\u5934\u72ac / \u30aa\u30eb\u30c8\u30ed\u30b9\u306e\u72ac
p1489
sg14
V3732807
p1490
sa(dp1491
g9
Vdate
p1492
sg11
Vhttps://movie.douban.com/subject/3184572/
p1493
sg3
V\u7d27\u6025\u6551\u547d / \u30b3\u30fc\u30c9\u30fb\u30d6\u30eb\u30fc -\u30c9\u30af\u30bf\u30fc\u30d8\u30ea\u7dca\u6025\u6551\u547d-
p1494
sg14
V3184572
p1495
sa(dp1496
g9
Vdate
p1497
sg11
Vhttps://movie.douban.com/subject/2369845/
p1498
sg3
V\u5acc\u7591\u4ebaX\u7684\u732e\u8eab / \u5bb9\u7591\u8005X\u306e\u732e\u8eab
p1499
sg14
V2369845
p1500
sa(dp1501
g9
Vdate
p1502
sg11
Vhttps://movie.douban.com/subject/1441054/
p1503
sg3
V\u53e4\u7551\u4efb\u4e09\u90ce VS SMAP
p1504
sg14
V1441054
p1505
sa(dp1506
g9
Vcomment
p1507
sg11
Vhttps://movie.douban.com/subject/3717708/
p1508
sg3
V\u5bcc\u58eb\u53f0\u5f00\u5c4050\u5468\u5e74\u7279\u756a / \u30d5\u30b8\u30c6\u30ec\u30d3\u958b\u5c4050\u5468\u5e74\u7279\u5225\u756a\u7d44
p1509
sg14
V3717708
p1510
sa(dp1511
g9
Vdate
p1512
sg11
Vhttps://movie.douban.com/subject/2158156/
p1513
sg3
V\u9876\u7ea7\u64ad\u97f3\u5458 / \u30c8\u30c3\u30d7\u30ad\u30e3\u30b9\u30bf\u30fc
p1514
sg14
V2158156
p1515
sa(dp1516
g9
Vdate
p1517
sg11
Vhttps://movie.douban.com/subject/1421721/
p1518
sg3
V\u6d6a\u5ba2\u5251\u5fc3\uff1a\u8ffd\u5fc6\u7bc7 / \u308b\u308d\u3046\u306b\u5263\u5fc3 -\u660e\u6cbb\u5263\u5ba2\u6d6a\u6f2b\u8b5a- \u8ffd\u61b6\u7de8
p1519
sg14
V1421721
p1520
sa(dp1521
g9
Vdate
p1522
sg11
Vhttps://movie.douban.com/subject/1295260/
p1523
sg3
V\u597d\u4eba\u5be5\u5be5 / A Few Good Men
p1524
sg14
V1295260
p1525
sa(dp1526
g9
Vrating5-t
p1527
sg11
Vhttps://movie.douban.com/subject/1305845/
p1528
sg3
V\u5192\u9669\u8005 / Les aventuriers
p1529
sg14
V1305845
p1530
sa(dp1531
g9
Vrating5-t
p1532
sg11
Vhttps://movie.douban.com/subject/1293105/
p1533
sg3
V\u8680 / L'eclisse
p1534
sg14
V1293105
p1535
sa(dp1536
g9
Vrating5-t
p1537
sg11
Vhttps://movie.douban.com/subject/1293858/
p1538
sg3
V\u52fe\u9b42\u6151\u9b44 / Histoires extraordinaires
p1539
sg14
V1293858
p1540
sa(dp1541
g9
Vrating5-t
p1542
sg11
Vhttps://movie.douban.com/subject/1300328/
p1543
sg3
V\u82b1\u6708\u65ad\u80a0\u65f6 / Christine
p1544
sg14
V1300328
p1545
sa(dp1546
g9
Vrating5-t
p1547
sg11
Vhttps://movie.douban.com/subject/1308459/
p1548
sg3
V\u6e38\u6cf3\u6c60 / La piscine
p1549
sg14
V1308459
p1550
sa(dp1551
g9
Vcomment
p1552
sg11
Vhttps://movie.douban.com/subject/1305080/
p1553
sg3
V\u6012\u6d77\u6c89\u5c38 / Plein soleil
p1554
sg14
V1305080
p1555
sa(dp1556
g9
Vrating5-t
p1557
sg11
Vhttps://movie.douban.com/subject/1307836/
p1558
sg3
V\u9ed1\u90c1\u91d1\u9999 / La tulipe noire
p1559
sg14
V1307836
p1560
sa(dp1561
g9
Vrating5-t
p1562
sg11
Vhttps://movie.douban.com/subject/2136972/
p1563
sg3
V\u604b\u4eba\u554a / \u604b\u4eba\u3088
p1564
sg14
V2136972
p1565
sa(dp1566
g9
Vdate
p1567
sg11
Vhttps://movie.douban.com/subject/1432676/
p1568
sg3
V\u5927\u59d0\u5934 / anego
p1569
sg14
V1432676
p1570
sa(dp1571
g9
Vdate
p1572
sg11
Vhttps://movie.douban.com/subject/2263102/
p1573
sg3
V\u8f6c\u8f6c / \u8ee2\u3005
p1574
sg14
V2263102
p1575
sa(dp1576
g9
Vdate
p1577
sg11
Vhttps://movie.douban.com/subject/3081018/
p1578
sg3
V\u592a\u9633\u4e4b\u6b4c / \u30bf\u30a4\u30e8\u30a6\u306e\u3046\u305f
p1579
sg14
V3081018
p1580
sa(dp1581
g9
Vdate
p1582
sg11
Vhttps://movie.douban.com/subject/1796986/
p1583
sg3
V\u65f6\u6548\u8b66\u5bdf / \u6642\u52b9\u8b66\u5bdf
p1584
sg14
V1796986
p1585
sa(dp1586
g9
Vdate
p1587
sg11
Vhttps://movie.douban.com/subject/3154687/
p1588
sg3
V\u7f8e\u4eba / \u7f8e\u3057\u3044\u4eba
p1589
sg14
V3154687
p1590
sa(dp1591
g9
Vdate
p1592
sg11
Vhttps://movie.douban.com/subject/1477331/
p1593
sg3
V\u4e09\u5341\u62c9\u8b66\u62a5 / Over Time-\u30aa\u30fc\u30d0\u30fc\u30fb\u30bf\u30a4\u30e0
p1594
sg14
V1477331
p1595
sa(dp1596
g9
Vcomment
p1597
sg11
Vhttps://movie.douban.com/subject/2272327/
p1598
sg3
V\u6211\u662f\u4e00\u4e2a\u4e11\u5973\u4eba\u5417\uff1f/ \u4e2a\u4f53\u6237\u604b\u66f2 / \u5355\u604b\u4e2a\u4f53\u6237 / \u308f\u305f\u3057\u3063\u3066\u30d6\u30b9\u3060\u3063\u305f\u306e?
p1599
sg14
V2272327
p1600
sa(dp1601
g9
Vdate
p1602
sg11
Vhttps://movie.douban.com/subject/2061183/
p1603
sg3
V\u5c11\u5973\u7279\u641c\u961f / \u30d5\u30a1\u30a4\u30d6
p1604
sg14
V2061183
p1605
sa(dp1606
g9
Vdate
p1607
sg11
Vhttps://movie.douban.com/subject/1759752/
p1608
sg3
V\u4ed6\u65e5\u518d\u76f8\u9022 / \u3044\u3064\u304b\u307e\u305f\u9022\u3048\u308b
p1609
sg14
V1759752
p1610
sa(dp1611
g9
Vdate
p1612
sg11
Vhttps://movie.douban.com/subject/3024610/
p1613
sg3
V\u5ec9\u653f\u8ffd\u7f09\u4ee4 / \u5ec9\u653f\u8ffd\u7ddd\u4ee4
p1614
sg14
V3024610
p1615
sa(dp1616
g9
Vdate
p1617
sg11
Vhttps://movie.douban.com/subject/2276935/
p1618
sg3
V\u7231\u7684\u548c\u5f26 / \u30cf\u30eb\u30e2\u30cb\u30a2 \u3053\u306e\u7231\u306e\u6daf\u3066
p1619
sg14
V2276935
p1620
sa(dp1621
g9
Vdate
p1622
sg11
Vhttps://movie.douban.com/subject/1397182/
p1623
sg3
V\u5947\u8ff9\u9910\u5385 / \u738b\u69d8\u306e\u30ec\u30b9\u30c8\u30e9\u30f3
p1624
sg14
V1397182
p1625
sa(dp1626
g9
Vdate
p1627
sg11
Vhttps://movie.douban.com/subject/1997635/
p1628
sg3
V\u70ed\u70c8\u7684\u4e2d\u534e\u996d\u5e97 / \u71b1\u70c8\u7684\u4e2d\u83ef\u98ef\u5e97
p1629
sg14
V1997635
p1630
sa(dp1631
g9
Vdate
p1632
sg11
Vhttps://movie.douban.com/subject/1309070/
p1633
sg3
V\u98de\u884c\u5bb6 / The Aviator
p1634
sg14
V1309070
p1635
sa(dp1636
g9
Vdate
p1637
sg11
Vhttps://movie.douban.com/subject/1315316/
p1638
sg3
V\u65e0\u95f4\u9053\u98ce\u4e91 / The Departed
p1639
sg14
V1315316
p1640
sa(dp1641
g9
Vdate
p1642
sg11
Vhttps://movie.douban.com/subject/1301617/
p1643
sg3
V\u4e0d\u4e00\u6837\u7684\u5929\u7a7a / What's Eating Gilbert Grape
p1644
sg14
V1301617
p1645
sa(dp1646
g9
Vdate
p1647
sg11
Vhttps://movie.douban.com/subject/2148680/
p1648
sg3
V\u521b\u4e16\u7eaa1\uff1a\u5730\u4ea7\u98ce\u4e91 / \u5275\u4e16\u7d001\uff1a\u5730\u7522\u98a8\u4e91
p1649
sg14
V2148680
p1650
sa(dp1651
g9
Vdate
p1652
sg11
Vhttps://movie.douban.com/subject/3546595/
p1653
sg3
V\u5706\u6708\u5f2f\u5200 / \u5713\u6708\u5f4e\u5200
p1654
sg14
V3546595
p1655
sa(dp1656
g9
Vdate
p1657
sg11
Vhttps://movie.douban.com/subject/3178798/
p1658
sg3
V\u5927\u523a\u5ba2
p1659
sg14
V3178798
p1660
sa(dp1661
g9
Vdate
p1662
sg11
Vhttps://movie.douban.com/subject/1307368/
p1663
sg3
V\u8c6a\u60c5
p1664
sg14
V1307368
p1665
sa(dp1666
g9
Vdate
p1667
sg11
Vhttps://movie.douban.com/subject/1304282/
p1668
sg3
V\u767e\u5e74\u597d\u5408
p1669
sg14
V1304282
p1670
sa(dp1671
g9
Vdate
p1672
sg11
Vhttps://movie.douban.com/subject/1863947/
p1673
sg3
V\u795e\u96d5\u4fa0\u4fa3 / \u795e\u96d5\u4fe0\u4fb6
p1674
sg14
V1863947
p1675
sa(dp1676
g9
Vdate
p1677
sg11
Vhttps://movie.douban.com/subject/1859036/
p1678
sg3
V\u5b9d\u8d1d\u8ba1\u5212 / \u5bf6\u8c9d\u8a08\u5283
p1679
sg14
V1859036
p1680
sa(dp1681
g9
Vdate
p1682
sg11
Vhttps://movie.douban.com/subject/1295158/
p1683
sg3
V\u6781\u5ea6\u91cd\u72af / \u6975\u5ea6\u91cd\u72af
p1684
sg14
V1295158
p1685
sa(dp1686
g9
Vdate
p1687
sg11
Vhttps://movie.douban.com/subject/1302379/
p1688
sg3
V\u574f\u5c0f\u5b50\u7279\u653b / BadBoy\u7279\u653b
p1689
sg14
V1302379
p1690
sa(dp1691
g9
Vdate
p1692
sg11
Vhttps://movie.douban.com/subject/1308743/
p1693
sg3
V\u9b3c\u9a6c\u72c2\u60f3\u66f2
p1694
sg14
V1308743
p1695
sa(dp1696
g9
Vdate
p1697
sg11
Vhttps://movie.douban.com/subject/2229459/
p1698
sg3
V\u70c8\u706b\u96c4\u5fc3
p1699
sg14
V2229459
p1700
sa(dp1701
g9
Vdate
p1702
sg11
Vhttps://movie.douban.com/subject/1302769/
p1703
sg3
V\u5931\u5fc6\u754c\u5973\u738b
p1704
sg14
V1302769
p1705
sa(dp1706
g9
Vdate
p1707
sg11
Vhttps://movie.douban.com/subject/1302812/
p1708
sg3
V\u77e5\u6cd5\u72af\u6cd5
p1709
sg14
V1302812
p1710
sa(dp1711
g9
Vdate
p1712
sg11
Vhttps://movie.douban.com/subject/1308803/
p1713
sg3
V\u5927\u4f6c\u7231\u7f8e\u4e3d
p1714
sg14
V1308803
p1715
sa(dp1716
g9
Vdate
p1717
sg11
Vhttps://movie.douban.com/subject/2209368/
p1718
sg3
V\u65b0\u5bbf\u4e8b\u4ef6
p1719
sg14
V2209368
p1720
sa(dp1721
g9
Vdate
p1722
sg11
Vhttps://movie.douban.com/subject/1307758/
p1723
sg3
V\u91cd\u88c5\u8b66\u5bdf
p1724
sg14
V1307758
p1725
sa(dp1726
g9
Vdate
p1727
sg11
Vhttps://movie.douban.com/subject/1296530/
p1728
sg3
V\u7d2b\u96e8\u98ce\u66b4
p1729
sg14
V1296530
p1730
sa(dp1731
g9
Vdate
p1732
sg11
Vhttps://movie.douban.com/subject/1308040/
p1733
sg3
V\u5996\u591c\u56de\u5eca / \u5996\u591c\u8ff4\u5eca
p1734
sg14
V1308040
p1735
sa(dp1736
g9
Vdate
p1737
sg11
Vhttps://movie.douban.com/subject/1424746/
p1738
sg3
V\u82b1\u9b41\u675c\u5341\u5a18 / Miss\u675c\u5341\u5a18
p1739
sg14
V1424746
p1740
sa(dp1741
g9
Vdate
p1742
sg11
Vhttps://movie.douban.com/subject/1299048/
p1743
sg3
V\u7279\u8b66\u65b0\u4eba\u7c7b
p1744
sg14
V1299048
p1745
sa(dp1746
g9
Vdate
p1747
sg11
Vhttps://movie.douban.com/subject/1779509/
p1748
sg3
V\u56db\u5927\u5929\u738b
p1749
sg14
V1779509
p1750
sa(dp1751
g9
Vdate
p1752
sg11
Vhttps://movie.douban.com/subject/1299256/
p1753
sg3
V\u8f9b\u5df4\u8fbe\u4e03\u6d77\u4f20\u5947 / Sinbad: Legend of the Seven Seas
p1754
sg14
V1299256
p1755
sa(dp1756
g9
Vdate
p1757
sg11
Vhttps://movie.douban.com/subject/1292344/
p1758
sg3
V\u5341\u4e8c\u7f57\u6c49 / Ocean's Twelve
p1759
sg14
V1292344
p1760
sa(dp1761
g9
Vdate
p1762
sg11
Vhttps://movie.douban.com/subject/1498818/
p1763
sg3
V\u901a\u5929\u5854 / Babel
p1764
sg14
V1498818
p1765
sa(dp1766
g9
Vdate
p1767
sg11
Vhttps://movie.douban.com/subject/1471507/
p1768
sg3
V\u5341\u4e09\u7f57\u6c49 / Ocean's Thirteen
p1769
sg14
V1471507
p1770
sa(dp1771
g9
Vdate
p1772
sg11
Vhttps://movie.douban.com/subject/2148796/
p1773
sg3
V\u53ea\u5c5e\u4e8e\u6211\u7684\u5973\u795e / \u50d5\u3060\u3051\u306e\u30de\u30c9\u30f3\u30ca
p1774
sg14
V2148796
p1775
sa(dp1776
g9
Vrating5-t
p1777
sg11
Vhttps://movie.douban.com/subject/2129039/
p1778
sg3
V\u98de\u5c4b\u73af\u6e38\u8bb0 / Up
p1779
sg14
V2129039
p1780
sa(dp1781
g9
Vrating5-t
p1782
sg11
Vhttps://movie.douban.com/subject/1900492/
p1783
sg3
V\u552f\u4e00\u7684\u7231 / \u305f\u3063\u305f\u3072\u3068\u3064\u306e\u604b
p1784
sg14
V1900492
p1785
sa(dp1786
g9
Vdate
p1787
sg11
Vhttps://movie.douban.com/subject/1293146/
p1788
sg3
V\u8c79 / Il gattopardo
p1789
sg14
V1293146
p1790
sa(dp1791
g9
Vdate
p1792
sg11
Vhttps://movie.douban.com/subject/1294169/
p1793
sg3
V\u4f0a\u7538\u56ed\u4e4b\u4e1c / East of Eden
p1794
sg14
V1294169
p1795
sa(dp1796
g9
Vdate
p1797
sg11
Vhttps://movie.douban.com/subject/2002808/
p1798
sg3
V\u62cd\u5356\u4e16\u754c\u7684\u89d2\u843d / \u62cd\u8ce3\u4e16\u754c\u7684\u89d2\u843d
p1799
sg14
V2002808
p1800
sa(dp1801
g9
Vdate
p1802
sg11
Vhttps://movie.douban.com/subject/1291866/
p1803
sg3
V\u4f50\u7f57 / Zorro
p1804
sg14
V1291866
p1805
sa(dp1806
g9
Vdate
p1807
sg11
Vhttps://movie.douban.com/subject/2990072/
p1808
sg3
V\u5929\u5730\u8c6a\u60c5
p1809
sg14
V2990072
p1810
sa(dp1811
g9
Vdate
p1812
sg11
Vhttps://movie.douban.com/subject/2357355/
p1813
sg3
V\u58f9\u53f7\u7687\u5ead4 / \u58f9\u865f\u7687\u5ead\u2163
p1814
sg14
V2357355
p1815
sa(dp1816
g9
Vdate
p1817
sg11
Vhttps://movie.douban.com/subject/1302137/
p1818
sg3
V\u62e5\u62b1\u671d\u9633
p1819
sg14
V1302137
p1820
sa(dp1821
g9
Vdate
p1822
sg11
Vhttps://movie.douban.com/subject/2156698/
p1823
sg3
V\u6d17\u51a4\u5f55 / \u6d17\u51a4\u9304
p1824
sg14
V2156698
p1825
sa(dp1826
g9
Vdate
p1827
sg11
Vhttps://movie.douban.com/subject/2983389/
p1828
sg3
V\u5bfb\u79e6\u8bb0
p1829
sg14
V2983389
p1830
sa(dp1831
g9
Vdate
p1832
sg11
Vhttps://movie.douban.com/subject/3057470/
p1833
sg3
V\u751f\u547d\u6709\u660e\u5929
p1834
sg14
V3057470
p1835
sa(dp1836
g9
Vdate
p1837
sg11
Vhttps://movie.douban.com/subject/2287747/
p1838
sg3
V\u9a97\u4e2d\u4f20\u5947 / \u9a19\u4e2d\u50b3\u5947
p1839
sg14
V2287747
p1840
sa(dp1841
g9
Vdate
p1842
sg11
Vhttps://movie.douban.com/subject/3022047/
p1843
sg3
V\u68a6\u60f3\u6210\u771f
p1844
sg14
V3022047
p1845
sa(dp1846
g9
Vdate
p1847
sg11
Vhttps://movie.douban.com/subject/3240791/
p1848
sg3
V\u58f9\u53f7\u7687\u5ead5 / \u58f9\u865f\u7687\u5eadV
p1849
sg14
V3240791
p1850
sa(dp1851
g9
Vdate
p1852
sg11
Vhttps://movie.douban.com/subject/1976171/
p1853
sg3
V\u963f\u65fa\u65b0\u4f20 / \u963f\u65fa\u65b0\u50b3
p1854
sg14
V1976171
p1855
sa(dp1856
g9
Vdate
p1857
sg11
Vhttps://movie.douban.com/subject/2365072/
p1858
sg3
V\u8001\u5e08\u65e9\u4e0a\u597d / \u963fSir\u65e9\u6668
p1859
sg14
V2365072
p1860
sa(dp1861
g9
Vdate
p1862
sg11
Vhttps://movie.douban.com/subject/2279832/
p1863
sg3
V\u70fd\u706b\u5947\u9047\u7ed3\u826f\u7f18 / \u70fd\u706b\u5947\u9047\u7d50\u826f\u7de3
p1864
sg14
V2279832
p1865
sa(dp1866
g9
Vdate
p1867
sg11
Vhttps://movie.douban.com/subject/2342578/
p1868
sg3
V900\u91cd\u6848\u8ffd\u51f6
p1869
sg14
V2342578
p1870
sa(dp1871
g9
Vdate
p1872
sg11
Vhttps://movie.douban.com/subject/3039805/
p1873
sg3
V\u5029\u5973\u5e7d\u9b42
p1874
sg14
V3039805
p1875
sa(dp1876
g9
Vdate
p1877
sg11
Vhttps://movie.douban.com/subject/1304694/
p1878
sg3
V\u9a6c\u6c38\u8d1e / \u99ac\u6c38\u8c9e
p1879
sg14
V1304694
p1880
sa(dp1881
g9
Vdate
p1882
sg11
Vhttps://movie.douban.com/subject/2355575/
p1883
sg3
V\u79bb\u5c9b\u7279\u8b66 / \u96e2\u5cf6\u7279\u8b66
p1884
sg14
V2355575
p1885
sa(dp1886
g9
Vdate
p1887
sg11
Vhttps://movie.douban.com/subject/2990316/
p1888
sg3
V\u96f7\u9706\u7b2c\u4e00\u5173
p1889
sg14
V2990316
p1890
sa(dp1891
g9
Vdate
p1892
sg11
Vhttps://movie.douban.com/subject/2148820/
p1893
sg3
V\u5c81\u6708\u98ce\u4e91
p1894
sg14
V2148820
p1895
sa(dp1896
g9
Vdate
p1897
sg11
Vhttps://movie.douban.com/subject/2287748/
p1898
sg3
V\u8001\u5a46\u5927\u4eba
p1899
sg14
V2287748
p1900
sa(dp1901
g9
Vdate
p1902
sg11
Vhttps://movie.douban.com/subject/1475579/
p1903
sg3
V\u96be\u5144\u96be\u5f1f / \u96e3\u5144\u96e3\u5f1f
p1904
sg14
V1475579
p1905
sa(dp1906
g9
Vdate
p1907
sg11
Vhttps://movie.douban.com/subject/2224146/
p1908
sg3
V\u61a8\u592b\u6210\u9f99 / \u6206\u592b\u6210\u9f99
p1909
sg14
V2224146
p1910
sa(dp1911
g9
Vdate
p1912
sg11
Vhttps://movie.douban.com/subject/2282468/
p1913
sg3
V\u5929\u964d\u5947\u7f18 / \u5929\u964d\u5947\u7de3
p1914
sg14
V2282468
p1915
sa(dp1916
g9
Vdate
p1917
sg11
Vhttps://movie.douban.com/subject/1298114/
p1918
sg3
V\u5c0f\u4eb2\u4eb2 / \u5c0f\u89aa\u89aa
p1919
sg14
V1298114
p1920
sa(dp1921
g9
Vdate
p1922
sg11
Vhttps://movie.douban.com/subject/1906453/
p1923
sg3
V\u5929\u5730\u7537\u513f / \u5929\u5730\u7537\u5152
p1924
sg14
V1906453
p1925
sa(dp1926
g9
Vdate
p1927
sg11
Vhttps://movie.douban.com/subject/2224160/
p1928
sg3
V\u5ba0\u7269\u60c5\u7f18 / \u5bf5\u7269\u60c5\u7de3
p1929
sg14
V2224160
p1930
sa(dp1931
g9
Vdate
p1932
sg11
Vhttps://movie.douban.com/subject/3126188/
p1933
sg3
V\u739b\u8389\u7684\u6289\u62e9
p1934
sg14
V3126188
p1935
sa(dp1936
g9
Vdate
p1937
sg11
Vhttps://movie.douban.com/subject/1401915/
p1938
sg3
V\u7ea2\u5708 / Le cercle rouge
p1939
sg14
V1401915
p1940
sa(dp1941
g9
Vdate
p1942
sg11
Vhttps://movie.douban.com/subject/1295416/
p1943
sg3
V\u65e0\u56e0\u7684\u53cd\u53db / Rebel Without a Cause
p1944
sg14
V1295416
p1945
sa(dp1946
g9
Vdate
p1947
sg11
Vhttps://movie.douban.com/subject/1420010/
p1948
sg3
V\u6ca1\u6709\u6211\u7684\u65e5\u5b50 / My Life Without Me
p1949
sg14
V1420010
p1950
sa(dp1951
g9
Vdate
p1952
sg11
Vhttps://movie.douban.com/subject/1302463/
p1953
sg3
V\u5343\u9762\u4f73\u4eba / Penelope
p1954
sg14
V1302463
p1955
sa(dp1956
g9
Vdate
p1957
sg11
Vhttps://movie.douban.com/subject/1309116/
p1958
sg3
V\u6012\u706b\u6551\u63f4 / Man on Fire
p1959
sg14
V1309116
p1960
sa(dp1961
g9
Vdate
p1962
sg11
Vhttps://movie.douban.com/subject/1920796/
p1963
sg3
V\u9644\u6ce8\uff1a\u6211\u7231\u4f60 / P.S. I Love You
p1964
sg14
V1920796
p1965
sa(dp1966
g9
Vdate
p1967
sg11
Vhttps://movie.douban.com/subject/1689787/
p1968
sg3
V\u56de\u5f52 / Volver
p1969
sg14
V1689787
p1970
sa(dp1971
g9
Vdate
p1972
sg11
Vhttps://movie.douban.com/subject/1301726/
p1973
sg3
V\u5175\u4e34\u57ce\u4e0b / Enemy at the Gates
p1974
sg14
V1301726
p1975
sa(dp1976
g9
Vdate
p1977
sg11
Vhttps://movie.douban.com/subject/1292529/
p1978
sg3
V\u673a\u5668\u7ba1\u5bb6 / Bicentennial Man
p1979
sg14
V1292529
p1980
sa(dp1981
g9
Vdate
p1982
sg11
Vhttps://movie.douban.com/subject/1300912/
p1983
sg3
V\u9b42\u65ad\u5a01\u5c3c\u65af / Morte a Venezia
p1984
sg14
V1300912
p1985
sa(dp1986
g9
Vdate
p1987
sg11
Vhttps://movie.douban.com/subject/1307708/
p1988
sg3
V\u9a6c\u8def\u5929\u4f7f
p1989
sg14
V1307708
p1990
sa(dp1991
g9
Vdate
p1992
sg11
Vhttps://movie.douban.com/subject/1306939/
p1993
sg3
V\u63a8\u624b
p1994
sg14
V1306939
p1995
sa(dp1996
g9
Vdate
p1997
sg11
Vhttps://movie.douban.com/subject/1303037/
p1998
sg3
V\u559c\u5bb4
p1999
sg14
V1303037
p2000
sa(dp2001
g9
Vdate
p2002
sg11
Vhttps://movie.douban.com/subject/1304102/
p2003
sg3
V\u8c0d\u5f71\u91cd\u91cd / The Bourne Identity
p2004
sg14
V1304102
p2005
sa(dp2006
g9
Vdate
p2007
sg11
Vhttps://movie.douban.com/subject/1308767/
p2008
sg3
V\u8c0d\u5f71\u91cd\u91cd2 / The Bourne Supremacy
p2009
sg14
V1308767
p2010
sa(dp2011
g9
Vrating5-t
p2012
sg11
Vhttps://movie.douban.com/subject/1578507/
p2013
sg3
V\u8c0d\u5f71\u91cd\u91cd3 / The Bourne Ultimatum
p2014
sg14
V1578507
p2015
sa(dp2016
g9
Vdate
p2017
sg11
Vhttps://movie.douban.com/subject/1485260/
p2018
sg3
V\u672c\u6770\u660e\u5df4\u987f\u5947\u4e8b / The Curious Case of Benjamin Button
p2019
sg14
V1485260
p2020
sa(dp2021
g9
Vdate
p2022
sg11
Vhttps://movie.douban.com/subject/1300966/
p2023
sg3
V\u72ec\u884c\u6740\u624b / Le samoura
p2024
sg14
V1300966
p2025
sa(dp2026
g9
Vdate
p2027
sg11
Vhttps://movie.douban.com/subject/1291818/
p2028
sg3
V\u996e\u98df\u7537\u5973 / \u98f2\u98df\u7537\u5973
p2029
sg14
V1291818
p2030
sa(dp2031
g9
Vrating5-t
p2032
sg11
Vhttps://movie.douban.com/subject/1303418/
p2033
sg3
V\u4f60\u9003\u6211\u4e5f\u9003 / To Be or Not to Be
p2034
sg14
V1303418
p2035
sa(dp2036
g9
Vdate
p2037
sg11
Vhttps://movie.douban.com/subject/3692611/
p2038
sg3
V\u8001\u5927 / BOSS
p2039
sg14
V3692611
p2040
sa(dp2041
g9
Vcomment
p2042
sg11
Vhttps://movie.douban.com/subject/1308635/
p2043
sg3
V\u6625\u7434\u6284 / Shunkinsho
p2044
sg14
V1308635
p2045
sa(dp2046
g9
Vdate
p2047
sg11
Vhttps://movie.douban.com/subject/1299889/
p2048
sg3
V\u6697\u604b\u6843\u82b1\u6e90 / \u6697\u6200\u6843\u82b1\u6e90
p2049
sg14
V1299889
p2050
sa(dp2051
g9
Vdate
p2052
sg11
Vhttps://movie.douban.com/subject/1291874/
p2053
sg3
V\u4e5e\u529b\u9a6c\u624e\u7f57\u7684\u96ea / The Snows of Kilimanjaro
p2054
sg14
V1291874
p2055
sa(dp2056
g9
Vdate
p2057
sg11
Vhttps://movie.douban.com/subject/1295086/
p2058
sg3
V\u6c89\u7761\u8005 / Sleepers
p2059
sg14
V1295086
p2060
sa(dp2061
g9
Vdate
p2062
sg11
Vhttps://movie.douban.com/subject/3609025/
p2063
sg3
V\u4e16\u754c\u5947\u5999\u7269\u8bed 2009\u6625\u4e4b\u7279\u522b\u7bc7 / \u4e16\u306b\u3082\u5947\u5999\u306a\u7269\u8a9e \u8c6a\u83ef\u30ad\u30e3\u30b9\u30c8\u3067\u8d08\u308b 09\u6625\u306e\u7279\u5225\u7de8
p2064
sg14
V3609025
p2065
sa(dp2066
g9
Vdate
p2067
sg11
Vhttps://movie.douban.com/subject/3027015/
p2068
sg3
V\u4e16\u754c\u5947\u5999\u7269\u8bed 2008\u6625\u4e4b\u7279\u522b\u7bc7 / \u4e16\u306b\u3082\u5947\u5999\u306a\u7269\u8a9e 08\u6625\u306e\u7279\u5225\u7de8
p2069
sg14
V3027015
p2070
sa(dp2071
g9
Vdate
p2072
sg11
Vhttps://movie.douban.com/subject/1426842/
p2073
sg3
V\u604b\u60c5\u544a\u6025 / \u6200\u60c5\u544a\u6025
p2074
sg14
V1426842
p2075
sa(dp2076
g9
Vdate
p2077
sg11
Vhttps://movie.douban.com/subject/1308345/
p2078
sg3
V\u91ce\u517d\u4e4b\u77b3
p2079
sg14
V1308345
p2080
sa(dp2081
g9
Vrating5-t
p2082
sg11
Vhttps://movie.douban.com/subject/2190931/
p2083
sg3
V\u5211\u4e8b\u4fa6\u7f09\u6863\u68484 / \u5211\u4e8b\u5075\u7ddd\u6a94\u6848\u2163
p2084
sg14
V2190931
p2085
sa(dp2086
g9
Vdate
p2087
sg11
Vhttps://movie.douban.com/subject/1305265/
p2088
sg3
V\u6cb3\u4e1c\u72ee\u543c / \u6211\u5bb6\u6709\u4e00\u96bb\u6cb3\u6771\u7345
p2089
sg14
V1305265
p2090
sa(dp2091
g9
Vdate
p2092
sg11
Vhttps://movie.douban.com/subject/2359431/
p2093
sg3
V\u4fdd\u6301\u901a\u8bdd
p2094
sg14
V2359431
p2095
sa(dp2096
g9
Vcomment
p2097
sg11
Vhttps://movie.douban.com/subject/3412882/
p2098
sg3
V\u7a83\u542c\u98ce\u4e91 / \u7aca\u807d\u98a8\u96f2
p2099
sg14
V3412882
p2100
sa(dp2101
g9
Vrating5-t
p2102
sg11
Vhttps://movie.douban.com/subject/1296217/
p2103
sg3
V\u4e00\u7ea7\u6050\u60e7 / Primal Fear
p2104
sg14
V1296217
p2105
sa(dp2106
g9
Vdate
p2107
sg11
Vhttps://movie.douban.com/subject/1776117/
p2108
sg3
V\u751c\u5fc3\u7a7a\u59d0 / \u30a2\u30c6\u30f3\u30b7\u30e7\u30f3\u30d7\u30ea\u30fc\u30ba
p2109
sg14
V1776117
p2110
sa(dp2111
g9
Vrating5-t
p2112
sg11
Vhttps://movie.douban.com/subject/3730636/
p2113
sg3
V\u8111\u795e\u63a2 / MR. BRAIN
p2114
sg14
V3730636
p2115
sa(dp2116
g9
Vcomment
p2117
sg11
Vhttps://movie.douban.com/subject/3305873/
p2118
sg3
V\u7231\u7684\u53d1\u58f0\u7ec3\u4e60 / \u611b\u7684\u767c\u8072\u7df4\u7fd2
p2119
sg14
V3305873
p2120
sa(dp2121
g9
Vdate
p2122
sg11
Vhttps://movie.douban.com/subject/1292780/
p2123
sg3
V\u65f6\u5149\u5012\u6d41\u4e03\u5341\u5e74 / Somewhere in Time
p2124
sg14
V1292780
p2125
sa(dp2126
g9
Vrating5-t
p2127
sg11
Vhttps://movie.douban.com/subject/2037012/
p2128
sg3
V\u9769\u547d\u4e4b\u8def / Revolutionary Road
p2129
sg14
V2037012
p2130
sa(dp2131
g9
Vdate
p2132
sg11
Vhttps://movie.douban.com/subject/1981242/
p2133
sg3
V\u5348\u591c\u5df4\u585e\u7f57\u90a3 / Vicky Cristina Barcelona
p2134
sg14
V1981242
p2135
sa(dp2136
g9
Vdate
p2137
sg11
Vhttps://movie.douban.com/subject/1441238/
p2138
sg3
V\u9762\u7eb1 / The Painted Veil
p2139
sg14
V1441238
p2140
sa(dp2141
g9
Vdate
p2142
sg11
Vhttps://movie.douban.com/subject/2135981/
p2143
sg3
V\u753b\u76ae / \u756b\u76ae
p2144
sg14
V2135981
p2145
sa(dp2146
g9
Vdate
p2147
sg11
Vhttps://movie.douban.com/subject/1293555/
p2148
sg3
V\u7535\u5b50\u60c5\u4e66 / You've Got Mail
p2149
sg14
V1293555
p2150
sa(dp2151
g9
Vdate
p2152
sg11
Vhttps://movie.douban.com/subject/3158990/
p2153
sg3
V\u6d77\u89d2\u4e03\u53f7 / \u6d77\u89d2\u4e03\u865f
p2154
sg14
V3158990
p2155
sa(dp2156
g9
Vdate
p2157
sg11
Vhttps://movie.douban.com/subject/1418070/
p2158
sg3
V\u5982\u679c\u7231
p2159
sg14
V1418070
p2160
sa(dp2161
g9
Vrating5-t
p2162
sg11
Vhttps://movie.douban.com/subject/2146991/
p2163
sg3
V\u53d8\u5f62\u91d1\u521a2 / Transformers: Revenge of the Fallen
p2164
sg14
V2146991
p2165
sa(dp2166
g9
Vdate
p2167
sg11
Vhttps://movie.douban.com/subject/2326215/
p2168
sg3
V\u6c89\u7761\u7684\u9752\u6625 / \u6c88\u7761\u7684\u9752\u6625
p2169
sg14
V2326215
p2170
sa(dp2171
g9
Vdate
p2172
sg11
Vhttps://movie.douban.com/subject/1427947/
p2173
sg3
V\u7532\u8d3a\u5fcd\u6cd5\u5e16 / SHINOBI
p2174
sg14
V1427947
p2175
sa(dp2176
g9
Vrating4-t
p2177
sg11
Vhttps://movie.douban.com/subject/1295045/
p2178
sg3
V\u5929\u624d\u745e\u666e\u5229 / The Talented Mr. Ripley
p2179
sg14
V1295045
p2180
sa(dp2181
g9
Vrating5-t
p2182
sg11
Vhttps://movie.douban.com/subject/1293374/
p2183
sg3
V\u70ed\u5929\u5348\u540e / Dog Day Afternoon
p2184
sg14
V1293374
p2185
sa(dp2186
g9
Vdate
p2187
sg11
Vhttps://movie.douban.com/subject/1299054/
p2188
sg3
V\u9999\u8349\u7684\u5929\u7a7a / Vanilla Sky
p2189
sg14
V1299054
p2190
sa(dp2191
g9
Vdate
p2192
sg11
Vhttps://movie.douban.com/subject/1295078/
p2193
sg3
V\u5077\u542c\u5973\u4eba\u5fc3 / What Women Want
p2194
sg14
V1295078
p2195
sa(dp2196
g9
Vrating2-t
p2197
sg11
Vhttps://movie.douban.com/subject/1887829/
p2198
sg3
V\u866b\u5e08 / \u87f2\u5e2b
p2199
sg14
V1887829
p2200
sa(dp2201
g9
Vcomment
p2202
sg11
Vhttps://movie.douban.com/subject/1299166/
p2203
sg3
V\u8857\u89d2\u7684\u5546\u5e97 / The Shop Around the Corner
p2204
sg14
V1299166
p2205
sa(dp2206
g9
Vdate
p2207
sg11
Vhttps://movie.douban.com/subject/2281659/
p2208
sg3
V\u4e16\u754c\u5947\u5999\u7269\u8bed  99\u79cb\u4e4b\u7279\u522b\u7bc7 / \u4e16\u306b\u3082\u5947\u5999\u306a\u7269\u8a9e  99\u79cb\u306e\u7279\u5225\u7de8
p2209
sg14
V2281659
p2210
sa(dp2211
g9
Vcomment
p2212
sg11
Vhttps://movie.douban.com/subject/2272208/
p2213
sg3
V\u4e16\u754c\u5947\u5999\u7269\u8bed 2007\u79cb\u4e4b\u7279\u522b\u7bc7 / \u4e16\u306b\u3082\u5947\u5999\u306a\u7269\u8a9e 2007\u79cb\u306e\u7279\u5225\u7de8
p2214
sg14
V2272208
p2215
sa(dp2216
g9
Vdate
p2217
sg11
Vhttps://movie.douban.com/subject/2272257/
p2218
sg3
V\u4e16\u754c\u5947\u5999\u7269\u8bed 2007\u6625\u4e4b\u7279\u522b\u7bc7 / \u4e16\u306b\u3082\u5947\u5999\u306a\u7269\u8a9e 2007\u6625\u306e\u7279\u5225\u7de8
p2219
sg14
V2272257
p2220
sa(dp2221
g9
Vcomment
p2222
sg11
Vhttps://movie.douban.com/subject/2277409/
p2223
sg3
V\u4e16\u754c\u5947\u5999\u7269\u8bed 06\u79cb\u4e4b\u7279\u522b\u7bc7 / \u4e16\u306b\u3082\u5947\u5999\u306a\u7269\u8a9e '06\u79cb\u306e\u7279\u5225\u7de8
p2224
sg14
V2277409
p2225
sa(dp2226
g9
Vdate
p2227
sg11
Vhttps://movie.douban.com/subject/4300609/
p2228
sg3
V\u4e16\u754c\u5947\u5999\u7269\u8bed 04\u79cb\u4e4b\u7279\u522b\u7bc7 / \u4e16\u306b\u3082\u5947\u5999\u306a\u7269\u8a9e '04\u79cb\u306e\u7279\u5225\u7de8
p2229
sg14
V4300609
p2230
sa(dp2231
g9
Vrating5-t
p2232
sg11
Vhttps://movie.douban.com/subject/2279871/
p2233
sg3
V\u4e16\u754c\u5947\u5999\u7269\u8bed 15\u5468\u5e74\u7279\u522b\u7bc7 / \u4e16\u306b\u3082\u5947\u5999\u306a\u7269\u8a9e 15\u5468\u5e74\u306e\u7279\u5225\u7de8
p2234
sg14
V2279871
p2235
sa(dp2236
g9
Vrating5-t
p2237
sg11
Vhttps://movie.douban.com/subject/3201843/
p2238
sg3
V\u4e16\u754c\u5947\u5999\u7269\u8bed 2008\u79cb\u4e4b\u7279\u522b\u7bc7 / \u4e16\u306b\u3082\u5947\u5999\u306a\u7269\u8a9e 2008\u79cb\u306e\u7279\u5225\u7de8
p2239
sg14
V3201843
p2240
sa(dp2241
g9
Vrating5-t
p2242
sg11
Vhttps://movie.douban.com/subject/1305388/
p2243
sg3
V\u4e16\u754c\u5947\u5999\u7269\u8bed \u7535\u5f71\u7279\u522b\u7bc7 / \u4e16\u306b\u3082\u5947\u5999\u306a\u7269\u8a9e \u6620\u753b\u306e\u7279\u5225\u7de8
p2244
sg14
V1305388
p2245
sa(dp2246
g9
Vcomment
p2247
sg11
Vhttps://movie.douban.com/subject/2124449/
p2248
sg3
V\u4e16\u754c\u5947\u5999\u7269\u8bed 05\u6625\u4e4b\u7279\u522b\u7bc7 / \u4e16\u306b\u3082\u5947\u5999\u306a\u7269\u8a9e '05\u6625\u306e\u7279\u5225\u7de8
p2249
sg14
V2124449
p2250
sa(dp2251
g9
Vdate
p2252
sg11
Vhttps://movie.douban.com/subject/1298345/
p2253
sg3
V\u8fea\u5179\u5148\u751f\u8fdb\u57ce / Mr. Deeds Goes to Town
p2254
sg14
V1298345
p2255
sa(dp2256
g9
Vdate
p2257
sg11
Vhttps://movie.douban.com/subject/1291992/
p2258
sg3
V\u672b\u8def\u72c2\u82b1 / Thelma & Louise
p2259
sg14
V1291992
p2260
sa(dp2261
g9
Vdate
p2262
sg11
Vhttps://movie.douban.com/subject/1292625/
p2263
sg3
V\u7eff\u91ce\u4ed9\u8e2a / The Wizard of Oz
p2264
sg14
V1292625
p2265
sa(dp2266
g9
Vrating4-t
p2267
sg11
Vhttps://movie.douban.com/subject/1292465/
p2268
sg3
V\u6124\u6012\u7684\u8461\u8404 / The Grapes of Wrath
p2269
sg14
V1292465
p2270
sa(dp2271
g9
Vrating3-t
p2272
sg11
Vhttps://movie.douban.com/subject/1292840/
p2273
sg3
V\u8d39\u57ce\u6545\u4e8b / The Philadelphia Story
p2274
sg14
V1292840
p2275
sa(dp2276
g9
Vrating5-t
p2277
sg11
Vhttps://movie.douban.com/subject/1293688/
p2278
sg3
V\u731c\u731c\u8c01\u6765\u5403\u665a\u9910 / Guess Who's Coming to Dinner
p2279
sg14
V1293688
p2280
sa(dp2281
g9
Vrating4-t
p2282
sg11
Vhttps://movie.douban.com/subject/1299231/
p2283
sg3
V\u5973\u53cb\u793c\u62dc\u4e94 / His Girl Friday
p2284
sg14
V1299231
p2285
sa(dp2286
g9
Vrating5-t
p2287
sg11
Vhttps://movie.douban.com/subject/1293320/
p2288
sg3
V\u91d1\u7389\u76df / An Affair to Remember
p2289
sg14
V1293320
p2290
sa(dp2291
g9
Vrating3-t
p2292
sg11
Vhttps://movie.douban.com/subject/1297657/
p2293
sg3
V\u80b2\u5a74\u5947\u8c2d / Bringing Up Baby
p2294
sg14
V1297657
p2295
sa(dp2296
g9
Vrating5-t
p2297
sg11
Vhttps://movie.douban.com/subject/1293749/
p2298
sg3
V\u751f\u6d3b\u591a\u7f8e\u597d / It's a Wonderful Life
p2299
sg14
V1293749
p2300
sa(dp2301
g9
Vcomment
p2302
sg11
Vhttps://movie.douban.com/subject/1297127/
p2303
sg3
V\u53f2\u5bc6\u65af\u5148\u751f\u5230\u534e\u76db\u987f / Mr. Smith Goes to Washington
p2304
sg14
V1297127
p2305
sa(dp2306
g9
Vdate
p2307
sg11
Vhttps://movie.douban.com/subject/1297441/
p2308
sg3
V\u6211\u7684\u670b\u53cb\u53eb\u54c8\u7ef4 / Harvey
p2309
sg14
V1297441
p2310
sa(dp2311
g9
Vrating5-t
p2312
sg11
Vhttps://movie.douban.com/subject/2281647/
p2313
sg3
V\u4e16\u754c\u5947\u5999\u7269\u8bed SMAP\u7279\u5225\u7bc7 / \u4e16\u306b\u3082\u5947\u5999\u306a\u7269\u8a9e SMAP\u306e\u7279\u5225\u7de8
p2314
sg14
V2281647
p2315
sa(dp2316
g9
Vdate
p2317
sg11
Vhttps://movie.douban.com/subject/2281660/
p2318
sg3
V\u4e16\u754c\u5947\u5999\u7269\u8bed 99\u6625\u4e4b\u7279\u522b\u7bc7 / \u4e16\u306b\u3082\u5947\u5999\u306a\u7269\u8a9e 99\u6625\u306e\u7279\u5225\u7de8
p2319
sg14
V2281660
p2320
sa(dp2321
g9
Vrating5-t
p2322
sg11
Vhttps://movie.douban.com/subject/1295480/
p2323
sg3
V\u708e\u70ed\u7684\u591c\u665a / In the Heat of the Night
p2324
sg14
V1295480
p2325
sa(dp2326
g9
Vrating3-t
p2327
sg11
Vhttps://movie.douban.com/subject/1867408/
p2328
sg3
V\u4f24\u57ce
p2329
sg14
V1867408
p2330
sa(dp2331
g9
Vrating4-t
p2332
sg11
Vhttps://movie.douban.com/subject/2300618/
p2333
sg3
V\u5973\u738b\u7684\u6559\u5ba4\u7279\u522b\u7bc7 / \u5973\u738b\u306e\u6559\u5ba4\u30b9\u30da\u30b7\u30e3\u30eb \u30a8\u30d4\u30bd\u30fc\u30c91\u301c\u5815\u5929\u4f7f\u301c
p2334
sg14
V2300618
p2335
sa(dp2336
g9
Vdate
p2337
sg11
Vhttps://movie.douban.com/subject/1828115/
p2338
sg3
V\u8272\uff0c\u6212
p2339
sg14
V1828115
p2340
sa(dp2341
g9
Vrating4-t
p2342
sg11
Vhttps://movie.douban.com/subject/1292521/
p2343
sg3
V\u7801\u5934\u98ce\u4e91 / On the Waterfront
p2344
sg14
V1292521
p2345
sa(dp2346
g9
Vdate
p2347
sg11
Vhttps://movie.douban.com/subject/1309172/
p2348
sg3
V\u521d\u604b50\u6b21 / 50 First Dates
p2349
sg14
V1309172
p2350
sa(dp2351
g9
Vdate
p2352
sg11
Vhttps://movie.douban.com/subject/1307052/
p2353
sg3
V\u6258\u65af\u5361\u7eb3\u8273\u9633\u4e0b / Under the Tuscan Sun
p2354
sg14
V1307052
p2355
sa(dp2356
g9
Vrating1-t
p2357
sg11
Vhttps://movie.douban.com/subject/1926007/
p2358
sg3
V\u5929\u5802\u53e3
p2359
sg14
V1926007
p2360
sa(dp2361
g9
Vdate
p2362
sg11
Vhttps://movie.douban.com/subject/1294564/
p2363
sg3
V\u767d\u53d1\u9b54\u59732 / \u767d\u9aee\u9b54\u59732
p2364
sg14
V1294564
p2365
sa(dp2366
g9
Vdate
p2367
sg11
Vhttps://movie.douban.com/subject/1307702/
p2368
sg3
V\u548c\u4f60\u5728\u4e00\u8d77
p2369
sg14
V1307702
p2370
sa(dp2371
g9
Vdate
p2372
sg11
Vhttps://movie.douban.com/subject/1293285/
p2373
sg3
V\u5370\u5ea6\u652f\u90a3 / Indochine
p2374
sg14
V1293285
p2375
sa(dp2376
g9
Vdate
p2377
sg11
Vhttps://movie.douban.com/subject/1295344/
p2378
sg3
V\u558b\u8840\u8857\u5934 / \u558b\u8840\u8857\u982d
p2379
sg14
V1295344
p2380
sa(dp2381
g9
Vdate
p2382
sg11
Vhttps://movie.douban.com/subject/1302303/
p2383
sg3
V\u539f\u7f6a / Original Sin
p2384
sg14
V1302303
p2385
sa(dp2386
g9
Vrating5-t
p2387
sg11
Vhttps://movie.douban.com/subject/1465654/
p2388
sg3
V\u5973\u738b\u7684\u6559\u5ba4 / \u5973\u738b\u306e\u6559\u5ba4
p2389
sg14
V1465654
p2390
sa(dp2391
g9
Vdate
p2392
sg11
Vhttps://movie.douban.com/subject/1309059/
p2393
sg3
V\u827a\u4f0e\u56de\u5fc6\u5f55 / Memoirs of a Geisha
p2394
sg14
V1309059
p2395
sa(dp2396
g9
Vdate
p2397
sg11
Vhttps://movie.douban.com/subject/1890784/
p2398
sg3
V\u95e8\u5f92 / \u9580\u5f92
p2399
sg14
V1890784
p2400
sa(dp2401
g9
Vdate
p2402
sg11
Vhttps://movie.douban.com/subject/1364764/
p2403
sg3
V\u7cbe\u6b66\u5bb6\u5ead
p2404
sg14
V1364764
p2405
sa(dp2406
g9
Vdate
p2407
sg11
Vhttps://movie.douban.com/subject/1299035/
p2408
sg3
V\u7edd\u4e16\u5b9d\u8d1d / \u7d55\u4e16\u597dBABY
p2409
sg14
V1299035
p2410
sa(dp2411
g9
Vdate
p2412
sg11
Vhttps://movie.douban.com/subject/1303674/
p2413
sg3
V\u5e72\u67f4\u70c8\u706b / \u4e7e\u67f4\u70c8\u706b
p2414
sg14
V1303674
p2415
sa(dp2416
g9
Vrating5-t
p2417
sg11
Vhttps://movie.douban.com/subject/1308655/
p2418
sg3
V\u65b0\u624e\u5e08\u59b9
p2419
sg14
V1308655
p2420
sa(dp2421
g9
Vdate
p2422
sg11
Vhttps://movie.douban.com/subject/1302705/
p2423
sg3
V\u5929\u5730\u82f1\u96c4
p2424
sg14
V1302705
p2425
sa(dp2426
g9
Vrating5-t
p2427
sg11
Vhttps://movie.douban.com/subject/2142535/
p2428
sg3
V\u7236\u5973\u4e03\u65e5\u53d8 / \u30d1\u30d1\u3068\u30e0\u30b9\u30e1\u306e7\u65e5\u9593
p2429
sg14
V2142535
p2430
sa(dp2431
g9
Vdate
p2432
sg11
Vhttps://movie.douban.com/subject/1419969/
p2433
sg3
V\u65e0\u6781
p2434
sg14
V1419969
p2435
sa(dp2436
g9
Vdate
p2437
sg11
Vhttps://movie.douban.com/subject/1308520/
p2438
sg3
V\u604b\u4e0a\u4f60\u7684\u5e8a
p2439
sg14
V1308520
p2440
sa(dp2441
g9
Vrating4-t
p2442
sg11
Vhttps://movie.douban.com/subject/1308232/
p2443
sg3
V\u65b0\u624e\u5e08\u59b92 / \u65b0\u7d2e\u5e2b\u59b92
p2444
sg14
V1308232
p2445
sa(dp2446
g9
Vdate
p2447
sg11
Vhttps://movie.douban.com/subject/1295469/
p2448
sg3
V\u98ce\u4e91\u96c4\u9738\u5929\u4e0b / \u98a8\u96f2\u96c4\u9738\u5929\u4e0b
p2449
sg14
V1295469
p2450
sa(dp2451
g9
Vdate
p2452
sg11
Vhttps://movie.douban.com/subject/1294671/
p2453
sg3
V\u4e2d\u534e\u82f1\u96c4 / \u4e2d\u83ef\u82f1\u96c4
p2454
sg14
V1294671
p2455
sa(dp2456
g9
Vdate
p2457
sg11
Vhttps://movie.douban.com/subject/1308811/
p2458
sg3
V\u5343\u673a\u53d8\u2161\u82b1\u90fd\u5927\u6218
p2459
sg14
V1308811
p2460
sa(dp2461
g9
Vrating4-t
p2462
sg11
Vhttps://movie.douban.com/subject/2276934/
p2463
sg3
V\u91d1\u7530\u4e00\u5c11\u5e74\u4e8b\u4ef6\u7c3f1 / \u91d1\u7530\u4e00\u5c11\u5e74\u306e\u4e8b\u4ef6\u7c3f \u7b2c1\u30b7\u30ea\u30fc\u30ba
p2464
sg14
V2276934
p2465
sa(dp2466
g9
Vdate
p2467
sg11
Vhttps://movie.douban.com/subject/2333693/
p2468
sg3
V\u5feb\u9012\u9ad8\u624b / \u30ae\u30d5\u30c8
p2469
sg14
V2333693
p2470
sa(dp2471
g9
Vrating5-t
p2472
sg11
Vhttps://movie.douban.com/subject/1483808/
p2473
sg3
V\u6b66\u58eb\u7684\u4e00\u5206 / \u6b66\u58eb\u306e\u4e00\u5206
p2474
sg14
V1483808
p2475
sa(dp2476
g9
Vdate
p2477
sg11
Vhttps://movie.douban.com/subject/1307043/
p2478
sg3
V\u4e1c\u4eac\u653b\u7565 / \u6771\u4eac\u653b\u7565
p2479
sg14
V1307043
p2480
sa(dp2481
g9
Vrating3-t
p2482
sg11
Vhttps://movie.douban.com/subject/2274935/
p2483
sg3
V\u9065\u63a7\u5211\u8b66 / \u30ea\u30e2\u30fc\u30c8
p2484
sg14
V2274935
p2485
sa(dp2486
g9
Vrating4-t
p2487
sg11
Vhttps://movie.douban.com/subject/1301230/
p2488
sg3
V\u593a\u9b42\u7d22 / Rope
p2489
sg14
V1301230
p2490
sa(dp2491
g9
Vdate
p2492
sg11
Vhttps://movie.douban.com/subject/1292760/
p2493
sg3
V\u8d35\u5987\u5931\u8e2a\u8bb0 / The Lady Vanishes
p2494
sg14
V1292760
p2495
sa(dp2496
g9
Vdate
p2497
sg11
Vhttps://movie.douban.com/subject/1304641/
p2498
sg3
V\u7ea2\u78e8\u574a / Moulin Rouge!
p2499
sg14
V1304641
p2500
sa(dp2501
g9
Vrating5-t
p2502
sg11
Vhttps://movie.douban.com/subject/1300766/
p2503
sg3
V\u7f8e\u4eba\u8ba1 / Notorious
p2504
sg14
V1300766
p2505
sa(dp2506
g9
Vdate
p2507
sg11
Vhttps://movie.douban.com/subject/2044102/
p2508
sg3
V\u5bfc\u706b\u7ebf / \u5c0e\u706b\u7dda
p2509
sg14
V2044102
p2510
sa(dp2511
g9
Vrating4-t
p2512
sg11
Vhttps://movie.douban.com/subject/1297965/
p2513
sg3
V\u7a88\u7a95\u6dd1\u5973 / My Fair Lady
p2514
sg14
V1297965
p2515
sa(dp2516
g9
Vdate
p2517
sg11
Vhttps://movie.douban.com/subject/1296242/
p2518
sg3
V\u5df4\u9ece\u5723\u6bcd\u9662 / Notre Dame de Paris
p2519
sg14
V1296242
p2520
sa(dp2521
g9
Vrating4-t
p2522
sg11
Vhttps://movie.douban.com/subject/1947114/
p2523
sg3
V\u8ddf\u8e2a / \u8ddf\u8e64
p2524
sg14
V1947114
p2525
sa(dp2526
g9
Vdate
p2527
sg11
Vhttps://movie.douban.com/subject/1401205/
p2528
sg3
V\u4e03\u5251
p2529
sg14
V1401205
p2530
sa(dp2531
g9
Vrating5-t
p2532
sg11
Vhttps://movie.douban.com/subject/1303173/
p2533
sg3
V\u7532\u65b9\u4e59\u65b9
p2534
sg14
V1303173
p2535
sa(dp2536
g9
Vrating4-t
p2537
sg11
Vhttps://movie.douban.com/subject/1307740/
p2538
sg3
V\u5343\u673a\u53d8
p2539
sg14
V1307740
p2540
sa(dp2541
g9
Vrating3-t
p2542
sg11
Vhttps://movie.douban.com/subject/1298525/
p2543
sg3
V\u789f\u4e2d\u8c0d2 / Mission: Impossible II
p2544
sg14
V1298525
p2545
sa(dp2546
g9
Vrating5-t
p2547
sg11
Vhttps://movie.douban.com/subject/1763308/
p2548
sg3
VSMAPxSMAP
p2549
sg14
V1763308
p2550
sa(dp2551
g9
Vrating5-t
p2552
sg11
Vhttps://movie.douban.com/subject/1779915/
p2553
sg3
V\u5fe0\u81e3\u85cf1/47 / \u5fe0\u81e3\u85351/47
p2554
sg14
V1779915
p2555
sa(dp2556
g9
Vrating4-t
p2557
sg11
Vhttps://movie.douban.com/subject/2121813/
p2558
sg3
V\u8d2b\u7a77\u8d35\u516c\u5b50 / \u5c71\u7530\u592a\u90ce\u3082\u306e\u304c\u305f\u308a
p2559
sg14
V2121813
p2560
sa(dp2561
g9
Vdate
p2562
sg11
Vhttps://movie.douban.com/subject/2032952/
p2563
sg3
V\u591c\u738b / \u591c\u738b\uff5eYAOH\uff5e
p2564
sg14
V2032952
p2565
sa(dp2566
g9
Vrating3-t
p2567
sg11
Vhttps://movie.douban.com/subject/3218596/
p2568
sg3
V\u4f3d\u5229\u7565\u7279\u522b\u7bc7 / \u30ac\u30ea\u30ec\u30aa\u03a6
p2569
sg14
V3218596
p2570
sa(dp2571
g9
Vrating4-t
p2572
sg11
Vhttps://movie.douban.com/subject/3268241/
p2573
sg3
V\u6d41\u661f\u4e4b\u7eca / \u6d41\u661f\u306e\u7d46
p2574
sg14
V3268241
p2575
sa(dp2576
g9
Vrating3-t
p2577
sg11
Vhttps://movie.douban.com/subject/10558405/
p2578
sg3
V\u53e4\u7551\u4efb\u4e09\u90ce \u91cd\u751f\u4e4b\u6b7b / \u53e4\u7551\u4efb\u4e09\u90ce\u30d5\u30a1\u30a4\u30ca\u30eb \u4eca\u3001\u7526\u308b\u6b7b
p2579
sg14
V10558405
p2580
sa(dp2581
g9
Vrating4-t
p2582
sg11
Vhttps://movie.douban.com/subject/3006302/
p2583
sg3
V\u4ea4\u54cd\u60c5\u4eba\u68a6\u4e4b\u6b27\u6d32\u7279\u522b\u7bc7 / \u306e\u3060\u3081\u30ab\u30f3\u30bf\u30fc\u30d3\u30ec in \u30e8\u30fc\u30ed\u30c3\u30d1
p2584
sg14
V3006302
p2585
sa(dp2586
g9
Vrating5-t
p2587
sg11
Vhttps://movie.douban.com/subject/2018131/
p2588
sg3
V\u6c42\u5a5a\u5927\u4f5c\u6218 / \u30d7\u30ed\u30dd\u30fc\u30ba\u5927\u4f5c\u6226
p2589
sg14
V2018131
p2590
sa(dp2591
g9
Vdate
p2592
sg11
Vhttps://movie.douban.com/subject/1825679/
p2593
sg3
V\u6b3a\u8bc8\u5e08\u730e\u4eba / \u30af\u30ed\u30b5\u30ae
p2594
sg14
V1825679
p2595
sa(dp2596
g9
Vrating4-t
p2597
sg11
Vhttps://movie.douban.com/subject/1997685/
p2598
sg3
V\u4ea4\u54cd\u60c5\u4eba\u68a6 / \u306e\u3060\u3081\u30ab\u30f3\u30bf\u30fc\u30d3\u30ec
p2599
sg14
V1997685
p2600
sa(dp2601
g9
Vdate
p2602
sg11
Vhttps://movie.douban.com/subject/2377585/
p2603
sg3
V\u6ca1\u6709\u73ab\u7470\u7684\u82b1\u5e97 / \u8594\u8587\u306e\u306a\u3044\u82b1\u5c4b
p2604
sg14
V2377585
p2605
sa(dp2606
g9
Vdate
p2607
sg11
Vhttps://movie.douban.com/subject/1438759/
p2608
sg3
V\u604b\u7231\u4e16\u7eaa / \u30e9\u30d6 \u30b8\u30a7\u30cd\u30ec\u30fc\u30b7\u30e7\u30f3
p2609
sg14
V1438759
p2610
sa(dp2611
g9
Vdate
p2612
sg11
Vhttps://movie.douban.com/subject/2031438/
p2613
sg3
V\u767d\u591c\u884c
p2614
sg14
V2031438
p2615
sa(dp2616
g9
Vdate
p2617
sg11
Vhttps://movie.douban.com/subject/2270422/
p2618
sg3
V\u533b\u9f992 / \u533b\u9f8d2\uff5eTeam Medical Dragon\uff5e
p2619
sg14
V2270422
p2620
sa(dp2621
g9
Vdate
p2622
sg11
Vhttps://movie.douban.com/subject/2173108/
p2623
sg3
V\u533b\u9f99 / \u533b\u9f8d\uff5eTeam Medical Dragon\uff5e
p2624
sg14
V2173108
p2625
sa(dp2626
g9
Vdate
p2627
sg11
Vhttps://movie.douban.com/subject/3168993/
p2628
sg3
V\u6c42\u5a5a\u5927\u4f5c\u6218\u7279\u522b\u7bc7 / \u30d7\u30ed\u30dd\u30fc\u30ba\u5927\u4f5c\u6226\u30b9\u30da\u30b7\u30e3\u30eb
p2629
sg14
V3168993
p2630
sa(dp2631
g9
Vdate
p2632
sg11
Vhttps://movie.douban.com/subject/2270390/
p2633
sg3
V\u795e\u63a2\u4f3d\u5229\u7565 / \u30ac\u30ea\u30ec\u30aa
p2634
sg14
V2270390
p2635
sa(dp2636
g9
Vrating5-t
p2637
sg11
Vhttps://movie.douban.com/subject/1915312/
p2638
sg3
V\u9f99\u6a31 / \u30c9\u30e9\u30b4\u30f3\u685c
p2639
sg14
V1915312
p2640
sa(dp2641
g9
Vcomment
p2642
sg11
Vhttps://movie.douban.com/subject/1998969/
p2643
sg3
V\u9082\u9005 / \u3081\u3050\u308a\u9022\u3044
p2644
sg14
V1998969
p2645
sa(dp2646
g9
Vdate
p2647
sg11
Vhttps://movie.douban.com/subject/1440974/
p2648
sg3
V\u7ec5\u58eb\u5211\u8b663 / \u8b66\u90e8\u88dc\u53e4\u7551\u4efb\u4e09\u90ce 3rd season
p2649
sg14
V1440974
p2650
sa(dp2651
g9
Vdate
p2652
sg11
Vhttps://movie.douban.com/subject/1465088/
p2653
sg3
V\u6f02\u6d41\u6559\u5ba4 / \u30ed\u30f3\u30b0\u30fb\u30e9\u30d6\u30ec\u30bf\u30fc\u301c\u6f02\u6d41\u6559\u5ba4\u301c
p2654
sg14
V1465088
p2655
sa(dp2656
g9
Vdate
p2657
sg11
Vhttps://movie.douban.com/subject/1440973/
p2658
sg3
V\u7ec5\u58eb\u5211\u8b662 / \u53e4\u7551\u4efb\u4e09\u90ce 2nd Season
p2659
sg14
V1440973
p2660
sa(dp2661
g9
Vdate
p2662
sg11
Vhttps://movie.douban.com/subject/1760078/
p2663
sg3
V\u5929\u4f7f\u4e4b\u7231 / \u30d4\u30e5\u30a2
p2664
sg14
V1760078
p2665
sa(dp2666
g9
Vdate
p2667
sg11
Vhttps://movie.douban.com/subject/1639380/
p2668
sg3
V\u767d\u663c\u4e4b\u6708 / \u771f\u663c\u306e\u6708
p2669
sg14
V1639380
p2670
sa(dp2671
g9
Vdate
p2672
sg11
Vhttps://movie.douban.com/subject/1919552/
p2673
sg3
V\u5728\u7231\u7684\u540d\u4e49\u4e0b / \u611b\u3068\u3044\u3046\u540d\u306e\u3082\u3068\u306b
p2674
sg14
V1919552
p2675
sa(dp2676
g9
Vdate
p2677
sg11
Vhttps://movie.douban.com/subject/1440971/
p2678
sg3
V\u7ec5\u58eb\u5211\u8b661 / \u8b66\u90e8\u88dc\u53e4\u7551\u4efb\u4e09\u90ce 1st season
p2679
sg14
V1440971
p2680
sa(dp2681
g9
Vdate
p2682
sg11
Vhttps://movie.douban.com/subject/1441094/
p2683
sg3
V\u56de\u9996\u53c8\u89c1\u4ed6 / \u632f\u308a\u8fd4\u308c\u3070\u5974\u304c\u3044\u308b
p2684
sg14
V1441094
p2685
sa(dp2686
g9
Vdate
p2687
sg11
Vhttps://movie.douban.com/subject/1465300/
p2688
sg3
V101\u6b21\u6c42\u5a5a / 101\u56de\u76ee\u306e\u30d7\u30ed\u30dd\u30fc\u30ba
p2689
sg14
V1465300
p2690
sa(dp2691
g9
Vdate
p2692
sg11
Vhttps://movie.douban.com/subject/1465787/
p2693
sg3
V\u540c\u4e00\u5c4b\u6a90\u4e0b2 / \u3072\u3068\u3064\u5c4b\u6839\u306e\u4e0b2
p2694
sg14
V1465787
p2695
sa(dp2696
g9
Vdate
p2697
sg11
Vhttps://movie.douban.com/subject/1464841/
p2698
sg3
V\u901a\u5411\u5a5a\u7eb1\u4e4b\u8def / \u30d0\u30fc\u30b8\u30f3\u30ed\u30fc\u30c9
p2699
sg14
V1464841
p2700
sa(dp2701
g9
Vrating5-t
p2702
sg11
Vhttps://movie.douban.com/subject/1464834/
p2703
sg3
V\u86cb\u7cd5\u4e0a\u7684\u8349\u8393 / \u30b9\u30c8\u30ed\u30d9\u30ea\u30fc\u30fb\u30aa\u30f3\u30b6\u30fb\u30b7\u30e7\u30fc\u30c8\u30b1\u30fc\u30ad
p2704
sg14
V1464834
p2705
sa(dp2706
g9
Vdate
p2707
sg11
Vhttps://movie.douban.com/subject/1465325/
p2708
sg3
V\u4e1c\u4eac\u4ed9\u5c65\u5947\u7f18 / \u59b9\u3088
p2709
sg14
V1465325
p2710
sa(dp2711
g9
Vrating5-t
p2712
sg11
Vhttps://movie.douban.com/subject/1482286/
p2713
sg3
V\u51b0\u4e0a\u604b\u4eba / \u30d7\u30e9\u30a4\u30c9
p2714
sg14
V1482286
p2715
sa(dp2716
g9
Vdate
p2717
sg11
Vhttps://movie.douban.com/subject/1465790/
p2718
sg3
V\u540c\u4e00\u5c4b\u6a90\u4e0b / \u3072\u3068\u3064\u5c4b\u6839\u306e\u4e0b
p2719
sg14
V1465790
p2720
sa(dp2721
g9
Vdate
p2722
sg11
Vhttps://movie.douban.com/subject/1471928/
p2723
sg3
V\u897f\u6d0b\u53e4\u8463\u6d0b\u679c\u5b50\u5e97 / \u30a2\u30f3\u30c6\u30a3\u30fc\u30af \u301c\u897f\u6d0b\u9aa8\u8463\u6d0b\u83d3\u5b50\u5e97\u301c
p2724
sg14
V1471928
p2725
sa(dp2726
g9
Vdate
p2727
sg11
Vhttps://movie.douban.com/subject/1465091/
p2728
sg3
V\u661f\u4e4b\u91d1\u5e01 / \u661f\u306e\u91d1\u8ca8
p2729
sg14
V1465091
p2730
sa(dp2731
g9
Vrating5-t
p2732
sg11
Vhttps://movie.douban.com/subject/2150220/
p2733
sg3
V\u767d\u8272\u5de8\u5854 / \u767d\u3044\u5de8\u5854
p2734
sg14
V2150220
p2735
sa(dp2736
g9
Vdate
p2737
sg11
Vhttps://movie.douban.com/subject/1464837/
p2738
sg3
V\u9b54\u5973\u7684\u6761\u4ef6 / \u9b54\u5973\u306e\u6761\u4ef6
p2739
sg14
V1464837
p2740
sa(dp2741
g9
Vdate
p2742
sg11
Vhttps://movie.douban.com/subject/1464838/
p2743
sg3
V\u9ebb\u8fa3\u6559\u5e08 / GTO: Great Teacher Onizuka
p2744
sg14
V1464838
p2745
sa(dp2746
g9
Vcomment
p2747
sg11
Vhttps://movie.douban.com/subject/1484469/
p2748
sg3
V\u65b0\u95fb\u5973\u90ce / \u30cb\u30e5\u30fc\u30b9\u306e\u5973
p2749
sg14
V1484469
p2750
sa(dp2751
g9
Vrating4-t
p2752
sg11
Vhttps://movie.douban.com/subject/1951141/
p2753
sg3
V\u6025\u901f\u5f15\u64ce / \u30a8\u30f3\u30b8\u30f3
p2754
sg14
V1951141
p2755
sa(dp2756
g9
Vrating5-t
p2757
sg11
Vhttps://movie.douban.com/subject/2074564/
p2758
sg3
V\u534e\u4e3d\u4e00\u65cf / \u83ef\u9e97\u306a\u308b\u4e00\u65cf
p2759
sg14
V2074564
p2760
sa(dp2761
g9
Vrating5-t
p2762
sg11
Vhttps://movie.douban.com/subject/2299436/
p2763
sg3
V\u5f8b\u653f\u82f1\u96c4 \u7279\u522b\u7bc7 / HERO \u7279\u5225\u7de8
p2764
sg14
V2299436
p2765
sa(dp2766
g9
Vrating5-t
p2767
sg11
Vhttps://movie.douban.com/subject/2042181/
p2768
sg3
V\u5f8b\u653f\u82f1\u96c4 / HERO
p2769
sg14
V2042181
p2770
sa(dp2771
g9
Vrating5-t
p2772
sg11
Vhttps://movie.douban.com/subject/1465021/
p2773
sg3
V\u7f8e\u4e3d\u4eba\u751f / \u30d3\u30e5\u30fc\u30c6\u30a3\u30d5\u30eb\u30e9\u30a4\u30d5
p2774
sg14
V1465021
p2775
sa(dp2776
g9
Vrating5-t
p2777
sg11
Vhttps://movie.douban.com/subject/1471438/
p2778
sg3
V\u7a7a\u4e2d\u60c5\u7f18 / Good luck!!
p2779
sg14
V1471438
p2780
sa(dp2781
g9
Vrating5-t
p2782
sg11
Vhttps://movie.douban.com/subject/1441060/
p2783
sg3
V\u5f8b\u653f\u82f1\u96c4 / HERO
p2784
sg14
V1441060
p2785
sa(dp2786
g9
Vrating5-t
p2787
sg11
Vhttps://movie.douban.com/subject/1436674/
p2788
sg3
V\u60a0\u957f\u5047\u671f / \u30ed\u30f3\u30b0\u30d0\u30b1\u30fc\u30b7\u30e7\u30f3
p2789
sg14
V1436674
p2790
sa(dp2791
g9
Vrating5-t
p2792
sg11
Vhttps://movie.douban.com/subject/1466387/
p2793
sg3
V\u4ece\u5929\u800c\u964d\u7684\u4e00\u4ebf\u9897\u661f\u661f / \u7a7a\u304b\u3089\u964d\u308b\u4e00\u5104\u306e\u661f
p2794
sg14
V1466387
p2795
sa(dp2796
g9
Vrating3-t
p2797
sg11
Vhttps://movie.douban.com/subject/1394324/
p2798
sg3
V\u4e1c\u65b9\u4e0d\u8d25\u98ce\u4e91\u518d\u8d77 / \u6771\u65b9\u4e0d\u6557\u4e4b\u98a8\u96f2\u518d\u8d77
p2799
sg14
V1394324
p2800
sa(dp2801
g9
Vrating5-t
p2802
sg11
Vhttps://movie.douban.com/subject/3130233/
p2803
sg3
V\u53d8\u9769 / CHANGE
p2804
sg14
V3130233
p2805
sa(dp2806
g9
Vdate
p2807
sg11
Vhttps://movie.douban.com/subject/1294136/
p2808
sg3
V\u5929\u9e45\u7ed2\u91d1\u77ff / Velvet Goldmine
p2809
sg14
V1294136
p2810
sa(dp2811
g9
Vdate
p2812
sg11
Vhttps://movie.douban.com/subject/1308338/
p2813
sg3
V\u8700\u5c71\u4f20
p2814
sg14
V1308338
p2815
sa(dp2816
g9
Vdate
p2817
sg11
Vhttps://movie.douban.com/subject/1433232/
p2818
sg3
V\u518d\u8bf4\u4e00\u6b21\u6211\u7231\u4f60
p2819
sg14
V1433232
p2820
sa(dp2821
g9
Vdate
p2822
sg11
Vhttps://movie.douban.com/subject/1949811/
p2823
sg3
V\u4e91\u6c34\u8c23
p2824
sg14
V1949811
p2825
sa(dp2826
g9
Vdate
p2827
sg11
Vhttps://movie.douban.com/subject/1439890/
p2828
sg3
V\u60c5\u766b\u5927\u5723
p2829
sg14
V1439890
p2830
sa(dp2831
g9
Vdate
p2832
sg11
Vhttps://movie.douban.com/subject/1308699/
p2833
sg3
V\u7eff\u8336
p2834
sg14
V1308699
p2835
sa(dp2836
g9
Vdate
p2837
sg11
Vhttps://movie.douban.com/subject/1308288/
p2838
sg3
V\u6211\u7231\u4f60
p2839
sg14
V1308288
p2840
sa(dp2841
g9
Vdate
p2842
sg11
Vhttps://movie.douban.com/subject/1299795/
p2843
sg3
V\u975e\u5e38\u516c\u5bd3 / L'appartement
p2844
sg14
V1299795
p2845
sa(dp2846
g9
Vdate
p2847
sg11
Vhttps://movie.douban.com/subject/1296436/
p2848
sg3
V\u6709\u8bdd\u597d\u597d\u8bf4
p2849
sg14
V1296436
p2850
sa(dp2851
g9
Vdate
p2852
sg11
Vhttps://movie.douban.com/subject/1296253/
p2853
sg3
V\u6ca1\u5b8c\u6ca1\u4e86
p2854
sg14
V1296253
p2855
sa(dp2856
g9
Vdate
p2857
sg11
Vhttps://movie.douban.com/subject/1484760/
p2858
sg3
V\u9ed1\u793e\u4f1a2\uff1a\u4ee5\u548c\u4e3a\u8d35 / \u9ed1\u793e\u6703\u4ee5\u548c\u70ba\u8cb4
p2859
sg14
V1484760
p2860
sa(dp2861
g9
Vdate
p2862
sg11
Vhttps://movie.douban.com/subject/1296339/
p2863
sg3
V\u7231\u5728\u9ece\u660e\u7834\u6653\u524d / Before Sunrise
p2864
sg14
V1296339
p2865
sa(dp2866
g9
Vdate
p2867
sg11
Vhttps://movie.douban.com/subject/1329962/
p2868
sg3
V\u65e9\u719f
p2869
sg14
V1329962
p2870
sa(dp2871
g9
Vdate
p2872
sg11
Vhttps://movie.douban.com/subject/1297447/
p2873
sg3
V\u5029\u5973\u5e7d\u9b42
p2874
sg14
V1297447
p2875
sa(dp2876
g9
Vdate
p2877
sg11
Vhttps://movie.douban.com/subject/1301679/
p2878
sg3
V\u5c4b\u9876\u4e0a\u7684\u8f7b\u9a91\u5175 / Le hussard sur le toit
p2879
sg14
V1301679
p2880
sa(dp2881
g9
Vdate
p2882
sg11
Vhttps://movie.douban.com/subject/1291990/
p2883
sg3
V\u7231\u5728\u65e5\u843d\u9ec4\u660f\u65f6 / Before Sunset
p2884
sg14
V1291990
p2885
sa(dp2886
g9
Vrating5-t
p2887
sg11
Vhttps://movie.douban.com/subject/1292484/
p2888
sg3
V\u789f\u4e2d\u8c0d / Mission: Impossible
p2889
sg14
V1292484
p2890
sa(dp2891
g9
Vdate
p2892
sg11
Vhttps://movie.douban.com/subject/1296078/
p2893
sg3
V\u65ad\u5934\u8c37 / Sleepy Hollow
p2894
sg14
V1296078
p2895
sa(dp2896
g9
Vdate
p2897
sg11
Vhttps://movie.douban.com/subject/1303010/
p2898
sg3
V\u8499\u5a1c\u4e3d\u838e\u7684\u5fae\u7b11 / Mona Lisa Smile
p2899
sg14
V1303010
p2900
sa(dp2901
g9
Vdate
p2902
sg11
Vhttps://movie.douban.com/subject/1300945/
p2903
sg3
V\u4e91\u4e2d\u6f2b\u6b65 / A Walk in the Clouds
p2904
sg14
V1300945
p2905
sa(dp2906
g9
Vdate
p2907
sg11
Vhttps://movie.douban.com/subject/1418605/
p2908
sg3
V\u591c\u5bb4
p2909
sg14
V1418605
p2910
sa(dp2911
g9
Vdate
p2912
sg11
Vhttps://movie.douban.com/subject/1304708/
p2913
sg3
V\u6e38\u56ed\u60ca\u68a6 / \u904a\u5712\u9a5a\u5922
p2914
sg14
V1304708
p2915
sa(dp2916
g9
Vdate
p2917
sg11
Vhttps://movie.douban.com/subject/1310185/
p2918
sg3
V\u4e09\u5c94\u53e3
p2919
sg14
V1310185
p2920
sa(dp2921
g9
Vdate
p2922
sg11
Vhttps://movie.douban.com/subject/1309220/
p2923
sg3
V\u9ed1\u793e\u4f1a / \u9ed1\u793e\u6703
p2924
sg14
V1309220
p2925
sa(dp2926
g9
Vdate
p2927
sg11
Vhttps://movie.douban.com/subject/1300741/
p2928
sg3
V\u67aa\u706b / \u9397\u706b
p2929
sg14
V1300741
p2930
sa(dp2931
g9
Vdate
p2932
sg11
Vhttps://movie.douban.com/subject/1293147/
p2933
sg3
V\u8fa3\u624b\u795e\u63a2
p2934
sg14
V1293147
p2935
sa(dp2936
g9
Vdate
p2937
sg11
Vhttps://movie.douban.com/subject/1307914/
p2938
sg3
V\u65e0\u95f4\u9053 / \u7121\u9593\u9053
p2939
sg14
V1307914
p2940
sa(dp2941
g9
Vrating5-t
p2942
sg11
Vhttps://movie.douban.com/subject/1296519/
p2943
sg3
V\u558b\u8840\u53cc\u96c4
p2944
sg14
V1296519
p2945
sa(dp2946
g9
Vdate
p2947
sg11
Vhttps://movie.douban.com/subject/1293142/
p2948
sg3
V\u65b0\u4e0a\u6d77\u6ee9 / \u65b0\u4e0a\u6d77\u7058
p2949
sg14
V1293142
p2950
sa(dp2951
g9
Vrating5-t
p2952
sg11
Vhttps://movie.douban.com/subject/1297304/
p2953
sg3
V\u7b11\u50b2\u6c5f\u6e56
p2954
sg14
V1297304
p2955
sa(dp2956
g9
Vdate
p2957
sg11
Vhttps://movie.douban.com/subject/1298040/
p2958
sg3
V\u5029\u5973\u5e7d\u9b423\uff1a\u9053\u9053\u9053 / \u5029\u5973\u5e7d\u9b42\u2162 \u9053\u9053\u9053
p2959
sg14
V1298040
p2960
sa(dp2961
g9
Vdate
p2962
sg11
Vhttps://movie.douban.com/subject/1296629/
p2963
sg3
V\u5029\u5973\u5e7d\u9b422\uff1a\u4eba\u95f4\u9053 / \u5029\u5973\u5e7d\u9b42II \u4eba\u9593\u9053
p2964
sg14
V1296629
p2965
sa(dp2966
g9
Vdate
p2967
sg11
Vhttps://movie.douban.com/subject/1293867/
p2968
sg3
V\u548c\u5e73\u996d\u5e97
p2969
sg14
V1293867
p2970
sa(dp2971
g9
Vdate
p2972
sg11
Vhttps://movie.douban.com/subject/1401477/
p2973
sg3
V\u5b7d\u5b50
p2974
sg14
V1401477
p2975
sa(dp2976
g9
Vrating2-t
p2977
sg11
Vhttps://movie.douban.com/subject/1292339/
p2978
sg3
V\u5341\u4e03\u5c81\u7684\u5929\u7a7a / 17\u6b72\u7684\u5929\u7a7a
p2979
sg14
V1292339
p2980
sa(dp2981
g9
Vrating5-t
p2982
sg11
Vhttps://movie.douban.com/subject/1306505/
p2983
sg3
V\u7ea2\u9ad8\u7cb1
p2984
sg14
V1306505
p2985
sa(dp2986
g9
Vdate
p2987
sg11
Vhttps://movie.douban.com/subject/1306317/
p2988
sg3
V\u7f8e\u5c11\u5e74\u4e4b\u604b
p2989
sg14
V1306317
p2990
sa(dp2991
g9
Vdate
p2992
sg11
Vhttps://movie.douban.com/subject/1914831/
p2993
sg3
V\u76db\u590f\u5149\u5e74
p2994
sg14
V1914831
p2995
sa(dp2996
g9
Vdate
p2997
sg11
Vhttps://movie.douban.com/subject/1422952/
p2998
sg3
V\u5343\u91cc\u8d70\u5355\u9a91
p2999
sg14
V1422952
p3000
sa(dp3001
g9
Vdate
p3002
sg11
Vhttps://movie.douban.com/subject/1292365/
p3003
sg3
V\u6d3b\u7740
p3004
sg14
V1292365
p3005
sa(dp3006
g9
Vdate
p3007
sg11
Vhttps://movie.douban.com/subject/1292220/
p3008
sg3
V\u60c5\u4e66 / Love Letter
p3009
sg14
V1292220
p3010
sa(dp3011
g9
Vdate
p3012
sg11
Vhttps://movie.douban.com/subject/1291546/
p3013
sg3
V\u9738\u738b\u522b\u59ec
p3014
sg14
V1291546
p3015
sa(dp3016
g9
Vdate
p3017
sg11
Vhttps://movie.douban.com/subject/1780330/
p3018
sg3
V\u81f4\u547d\u9b54\u672f / The Prestige
p3019
sg14
V1780330
p3020
sa(dp3021
g9
Vdate
p3022
sg11
Vhttps://movie.douban.com/subject/1298443/
p3023
sg3
V\u9ec4\u98de\u9e3f / \u9ec3\u98db\u9d3b
p3024
sg14
V1298443
p3025
sa(dp3026
g9
Vdate
p3027
sg11
Vhttps://movie.douban.com/subject/1292704/
p3028
sg3
V\u9ec4\u98de\u9e3f\u4e4b\u4e09\uff1a\u72ee\u738b\u4e89\u9738 / \u9ec3\u98db\u9d3b\u4e4b\u4e09\u7345\u738b\u722d\u9738
p3029
sg14
V1292704
p3030
sa(dp3031
g9
Vdate
p3032
sg11
Vhttps://movie.douban.com/subject/1293475/
p3033
sg3
V\u9ec4\u98de\u9e3f\u4e4b\u4e8c\uff1a\u7537\u513f\u5f53\u81ea\u5f3a / \u9ec3\u98db\u9d3b\u4e4b\u4e8c\u7537\u5152\u7576\u81ea\u5f37
p3034
sg14
V1293475
p3035
sa(dp3036
g9
Vrating5-t
p3037
sg11
Vhttps://movie.douban.com/subject/1292343/
p3038
sg3
V\u8774\u8776\u6548\u5e94 / The Butterfly Effect
p3039
sg14
V1292343
p3040
sa(dp3041
g9
Vdate
p3042
sg11
Vhttps://movie.douban.com/subject/1329562/
p3043
sg3
V\u5934\u6587\u5b57D / \u982d\u6587\u5b57D
p3044
sg14
V1329562
p3045
sa(dp3046
g9
Vrating3-t
p3047
sg11
Vhttps://movie.douban.com/subject/1951318/
p3048
sg3
V\u751f\u65e5\u5feb\u4e50
p3049
sg14
V1951318
p3050
sa(dp3051
g9
Vdate
p3052
sg11
Vhttps://movie.douban.com/subject/1292212/
p3053
sg3
V\u5929\u4f7f\u4e4b\u57ce / City of Angels
p3054
sg14
V1292212
p3055
sa(dp3056
g9
Vdate
p3057
sg11
Vhttps://movie.douban.com/subject/1292402/
p3058
sg3
V\u897f\u897f\u91cc\u7684\u7f8e\u4e3d\u4f20\u8bf4 / Malna
p3059
sg14
V1292402
p3060
sa(dp3061
g9
Vdate
p3062
sg11
Vhttps://movie.douban.com/subject/1295485/
p3063
sg3
V\u65b9\u4e16\u7389\u7eed\u96c6
p3064
sg14
V1295485
p3065
sa(dp3066
g9
Vdate
p3067
sg11
Vhttps://movie.douban.com/subject/1499008/
p3068
sg3
V\u6ee1\u57ce\u5c3d\u5e26\u9ec4\u91d1\u7532
p3069
sg14
V1499008
p3070
sa(dp3071
g9
Vdate
p3072
sg11
Vhttps://movie.douban.com/subject/1298038/
p3073
sg3
V\u8bfa\u4e01\u5c71 / Notting Hill
p3074
sg14
V1298038
p3075
sa(dp3076
g9
Vdate
p3077
sg11
Vhttps://movie.douban.com/subject/1292286/
p3078
sg3
V\u6211\u7684\u91ce\u86ee\u5973\u53cb / \uc5fd\uae30\uc801\uc778 \uadf8\ub140
p3079
sg14
V1292286
p3080
sa(dp3081
g9
Vdate
p3082
sg11
Vhttps://movie.douban.com/subject/1299398/
p3083
sg3
V\u5927\u8bdd\u897f\u6e38\u4e4b\u6708\u5149\u5b9d\u76d2 / \u897f\u904a\u8a18\u7b2c\u58f9\u4f70\u96f6\u58f9\u56de\u4e4b\u6708\u5149\u5bf6\u76d2
p3084
sg14
V1299398
p3085
sa(dp3086
g9
Vdate
p3087
sg11
Vhttps://movie.douban.com/subject/1297991/
p3088
sg3
V\u6740\u6b7b\u4e00\u53ea\u77e5\u66f4\u9e1f / To Kill a Mockingbird
p3089
sg14
V1297991
p3090
sa(dp3091
g9
Vdate
p3092
sg11
Vhttps://movie.douban.com/subject/1474180/
p3093
sg3
V\u89e6\u4e0d\u5230\u7684\u604b\u4eba / The Lake House
p3094
sg14
V1474180
p3095
sa(dp3096
g9
Vdate
p3097
sg11
Vhttps://movie.douban.com/subject/1302109/
p3098
sg3
V\u5341\u4e8c\u591c
p3099
sg14
V1302109
p3100
sa(dp3101
g9
Vdate
p3102
sg11
Vhttps://movie.douban.com/subject/1875311/
p3103
sg3
V\u7406\u53d1\u5e08
p3104
sg14
V1875311
p3105
sa(dp3106
g9
Vdate
p3107
sg11
Vhttps://movie.douban.com/subject/1478926/
p3108
sg3
V\u9f99\u864e\u95e8
p3109
sg14
V1478926
p3110
sa(dp3111
g9
Vrating3-t
p3112
sg11
Vhttps://movie.douban.com/subject/1291836/
p3113
sg3
V\u6234\u73cd\u73e0\u8033\u73af\u7684\u5c11\u5973 / Girl with a Pearl Earring
p3114
sg14
V1291836
p3115
sa(dp3116
g9
Vdate
p3117
sg11
Vhttps://movie.douban.com/subject/1304447/
p3118
sg3
V\u8bb0\u5fc6\u788e\u7247 / Memento
p3119
sg14
V1304447
p3120
sa(dp3121
g9
Vrating4-t
p3122
sg11
Vhttps://movie.douban.com/subject/1309101/
p3123
sg3
V\u67e5\u7406\u548c\u5de7\u514b\u529b\u5de5\u5382 / Charlie and the Chocolate Factory
p3124
sg14
V1309101
p3125
sa(dp3126
g9
Vdate
p3127
sg11
Vhttps://movie.douban.com/subject/1297763/
p3128
sg3
V\u65b9\u4e16\u7389
p3129
sg14
V1297763
p3130
sa(dp3131
g9
Vdate
p3132
sg11
Vhttps://movie.douban.com/subject/1307323/
p3133
sg3
V\u5929\u4e0b\u65e0\u53cc
p3134
sg14
V1307323
p3135
sa(dp3136
g9
Vdate
p3137
sg11
Vhttps://movie.douban.com/subject/1308587/
p3138
sg3
V\u5411\u5de6\u8d70\uff0e\u5411\u53f3\u8d70
p3139
sg14
V1308587
p3140
sa(dp3141
g9
Vdate
p3142
sg11
Vhttps://movie.douban.com/subject/1303203/
p3143
sg3
V\u7626\u8eab\u7537\u5973
p3144
sg14
V1303203
p3145
sa(dp3146
g9
Vdate
p3147
sg11
Vhttps://movie.douban.com/subject/1297518/
p3148
sg3
V\u4e5d\u54c1\u829d\u9ebb\u5b98
p3149
sg14
V1297518
p3150
sa(dp3151
g9
Vdate
p3152
sg11
Vhttps://movie.douban.com/subject/1291560/
p3153
sg3
V\u9f99\u732b / \u3068\u306a\u308a\u306e\u30c8\u30c8\u30ed
p3154
sg14
V1291560
p3155
sa(dp3156
g9
Vrating5-t
p3157
sg11
Vhttps://movie.douban.com/subject/1418834/
p3158
sg3
V\u65ad\u80cc\u5c71 / Brokeback Mountain
p3159
sg14
V1418834
p3160
sa(dp3161
g9
Vdate
p3162
sg11
Vhttps://movie.douban.com/subject/1299292/
p3163
sg3
V\u516b\u7f8e\u56fe / 8 femmes
p3164
sg14
V1299292
p3165
sa(dp3166
g9
Vdate
p3167
sg11
Vhttps://movie.douban.com/subject/1306160/
p3168
sg3
V\u65b0\u8b66\u5bdf\u6545\u4e8b
p3169
sg14
V1306160
p3170
sa(dp3171
g9
Vdate
p3172
sg11
Vhttps://movie.douban.com/subject/1301982/
p3173
sg3
V\u5200\u5251\u7b11 / \u5200\u528d\u7b11
p3174
sg14
V1301982
p3175
sa(dp3176
g9
Vdate
p3177
sg11
Vhttps://movie.douban.com/subject/1300265/
p3178
sg3
V\u516d\u6307\u7434\u9b54
p3179
sg14
V1300265
p3180
sa(dp3181
g9
Vrating5-t
p3182
sg11
Vhttps://movie.douban.com/subject/1291875/
p3183
sg3
V\u9633\u5149\u707f\u70c2\u7684\u65e5\u5b50
p3184
sg14
V1291875
p3185
sa(dp3186
g9
Vdate
p3187
sg11
Vhttps://movie.douban.com/subject/1307372/
p3188
sg3
V\u4e00\u4e2a\u5b57\u5934\u7684\u8bde\u751f / \u4e00\u500b\u5b57\u982d\u7684\u8a95\u751f
p3189
sg14
V1307372
p3190
sa(dp3191
g9
Vdate
p3192
sg11
Vhttps://movie.douban.com/subject/1293351/
p3193
sg3
V\u98df\u795e
p3194
sg14
V1293351
p3195
sa(dp3196
g9
Vdate
p3197
sg11
Vhttps://movie.douban.com/subject/1300618/
p3198
sg3
V\u7a7a\u4e2d\u76d1\u72f1 / Con Air
p3199
sg14
V1300618
p3200
sa(dp3201
g9
Vdate
p3202
sg11
Vhttps://movie.douban.com/subject/1297291/
p3203
sg3
V\u590f\u65e5\u4e48\u4e48\u8336 / \u590f\u65e5\u7684\u5b37\u5b37\u8336
p3204
sg14
V1297291
p3205
sa(dp3206
g9
Vdate
p3207
sg11
Vhttps://movie.douban.com/subject/1300266/
p3208
sg3
V\u9633\u5149\u4e0b\u7684\u7f6a\u6076 / Evil Under the Sun
p3209
sg14
V1300266
p3210
sa(dp3211
g9
Vdate
p3212
sg11
Vhttps://movie.douban.com/subject/1292272/
p3213
sg3
V\u5927\u8c61 / Elephant
p3214
sg14
V1292272
p3215
sa(dp3216
g9
Vrating5-t
p3217
sg11
Vhttps://movie.douban.com/subject/1292699/
p3218
sg3
V\u4e1c\u65b9\u5feb\u8f66\u8c0b\u6740\u6848 / Murder on the Orient Express
p3219
sg14
V1292699
p3220
sa(dp3221
g9
Vdate
p3222
sg11
Vhttps://movie.douban.com/subject/1294927/
p3223
sg3
V\u661f\u613f / \u661f\u9858
p3224
sg14
V1294927
p3225
sa(dp3226
g9
Vdate
p3227
sg11
Vhttps://movie.douban.com/subject/1433577/
p3228
sg3
V\u8d5b\u672b\u70b9 / Match Point
p3229
sg14
V1433577
p3230
sa(dp3231
g9
Vdate
p3232
sg11
Vhttps://movie.douban.com/subject/1308857/
p3233
sg3
V\u53ef\u53ef\u897f\u91cc
p3234
sg14
V1308857
p3235
sa(dp3236
g9
Vdate
p3237
sg11
Vhttps://movie.douban.com/subject/1291550/
p3238
sg3
V\u5929\u4e0b\u65e0\u8d3c
p3239
sg14
V1291550
p3240
sa(dp3241
g9
Vrating5-t
p3242
sg11
Vhttps://movie.douban.com/subject/1291588/
p3243
sg3
V\u5c81\u6708\u7684\u7ae5\u8bdd / \u304a\u3082\u3072\u3067\u307d\u308d\u307d\u308d
p3244
sg14
V1291588
p3245
sa(dp3246
g9
Vdate
p3247
sg11
Vhttps://movie.douban.com/subject/1300685/
p3248
sg3
V\u514b\u83b1\u9ed8\u592b\u5987 / Kramer vs. Kramer
p3249
sg14
V1300685
p3250
sa(dp3251
g9
Vdate
p3252
sg11
Vhttps://movie.douban.com/subject/1305158/
p3253
sg3
V\u51fa\u6c34\u8299\u84c9 / Bathing Beauty
p3254
sg14
V1305158
p3255
sa(dp3256
g9
Vdate
p3257
sg11
Vhttps://movie.douban.com/subject/1307694/
p3258
sg3
V\u65e0\u95f4\u90533\uff1a\u7ec8\u6781\u65e0\u95f4 / \u7121\u9593\u9053III \u7d42\u6975\u7121\u9593
p3259
sg14
V1307694
p3260
sa(dp3261
g9
Vdate
p3262
sg11
Vhttps://movie.douban.com/subject/1294417/
p3263
sg3
V\u7b11\u50b2\u6c5f\u6e562\uff1a\u4e1c\u65b9\u4e0d\u8d25 / \u7b11\u50b2\u6c5f\u6e56II\u6771\u65b9\u4e0d\u6557
p3264
sg14
V1294417
p3265
sa(dp3266
g9
Vdate
p3267
sg11
Vhttps://movie.douban.com/subject/1300069/
p3268
sg3
V\u5077\u5929\u9677\u9631 / Entrapment
p3269
sg14
V1300069
p3270
sa(dp3271
g9
Vdate
p3272
sg11
Vhttps://movie.douban.com/subject/1291585/
p3273
sg3
V\u98ce\u4e4b\u8c37 / \u98a8\u306e\u8c37\u306e\u30ca\u30a6\u30b7\u30ab
p3274
sg14
V1291585
p3275
sa(dp3276
g9
Vdate
p3277
sg11
Vhttps://movie.douban.com/subject/1295965/
p3278
sg3
V\u6211\u6700\u597d\u670b\u53cb\u7684\u5a5a\u793c / My Best Friend's Wedding
p3279
sg14
V1295965
p3280
sa(dp3281
g9
Vdate
p3282
sg11
Vhttps://movie.douban.com/subject/1297359/
p3283
sg3
V\u5e7d\u7075\u516c\u4e3b / \u3082\u306e\u306e\u3051\u59eb
p3284
sg14
V1297359
p3285
sa(dp3286
g9
Vdate
p3287
sg11
Vhttps://movie.douban.com/subject/1306951/
p3288
sg3
V\u9e7f\u9f0e\u8bb02\uff1a\u795e\u9f99\u6559 / \u9e7f\u9f0e\u8a18II \u795e\u9f8d\u6559
p3289
sg14
V1306951
p3290
sa(dp3291
g9
Vdate
p3292
sg11
Vhttps://movie.douban.com/subject/1291583/
p3293
sg3
V\u5929\u7a7a\u4e4b\u57ce / \u5929\u7a7a\u306e\u57ce\u30e9\u30d4\u30e5\u30bf
p3294
sg14
V1291583
p3295
sa(dp3296
g9
Vdate
p3297
sg11
Vhttps://movie.douban.com/subject/1297223/
p3298
sg3
V\u9e7f\u9f0e\u8bb0 / \u9e7f\u9f0e\u8a18
p3299
sg14
V1297223
p3300
sa(dp3301
g9
Vdate
p3302
sg11
Vhttps://movie.douban.com/subject/1307014/
p3303
sg3
V\u4e0d\u89c1\u4e0d\u6563
p3304
sg14
V1307014
p3305
sa(dp3306
g9
Vdate
p3307
sg11
Vhttps://movie.douban.com/subject/1297574/
p3308
sg3
V\u82f1\u96c4\u672c\u8272
p3309
sg14
V1297574
p3310
sa(dp3311
g9
Vdate
p3312
sg11
Vhttps://movie.douban.com/subject/1304022/
p3313
sg3
V\u5927\u8155
p3314
sg14
V1304022
p3315
sa(dp3316
g9
Vdate
p3317
sg11
Vhttps://movie.douban.com/subject/1302425/
p3318
sg3
V\u559c\u5267\u4e4b\u738b / \u559c\u5287\u4e4b\u738b
p3319
sg14
V1302425
p3320
sa(dp3321
g9
Vdate
p3322
sg11
Vhttps://movie.douban.com/subject/1308747/
p3323
sg3
V\u624b\u673a
p3324
sg14
V1308747
p3325
sa(dp3326
g9
Vdate
p3327
sg11
Vhttps://movie.douban.com/subject/1316510/
p3328
sg3
V\u5c04\u96d5\u82f1\u96c4\u4f20\u4e4b\u4e1c\u6210\u897f\u5c31 / \u5c04\u9d70\u82f1\u96c4\u50b3\u4e4b\u6771\u6210\u897f\u5c31
p3329
sg14
V1316510
p3330
sa(dp3331
g9
Vdate
p3332
sg11
Vhttps://movie.douban.com/subject/1295038/
p3333
sg3
V\u54c8\u5229\u6ce2\u7279\u4e0e\u9b54\u6cd5\u77f3 / Harry Potter and the Sorcerer's Stone
p3334
sg14
V1295038
p3335
sa(dp3336
g9
Vdate
p3337
sg11
Vhttps://movie.douban.com/subject/1304056/
p3338
sg3
V\u831c\u831c\u516c\u4e3b / Sissi
p3339
sg14
V1304056
p3340
sa(dp3341
g9
Vdate
p3342
sg11
Vhttps://movie.douban.com/subject/1306161/
p3343
sg3
V\u5e74\u8f7b\u7684\u4e9a\u5f53 / Young Adam
p3344
sg14
V1306161
p3345
sa(dp3346
g9
Vdate
p3347
sg11
Vhttps://movie.douban.com/subject/1306123/
p3348
sg3
V\u82f1\u96c4
p3349
sg14
V1306123
p3350
sa(dp3351
g9
Vdate
p3352
sg11
Vhttps://movie.douban.com/subject/1307811/
p3353
sg3
V\u9b54\u5973\u5b85\u6025\u4fbf / \u9b54\u5973\u306e\u5b85\u6025\u4fbf
p3354
sg14
V1307811
p3355
sa(dp3356
g9
Vdate
p3357
sg11
Vhttps://movie.douban.com/subject/1299624/
p3358
sg3
V\u534a\u751f\u7f18 / \u534a\u751f\u7de3
p3359
sg14
V1299624
p3360
sa(dp3361
g9
Vdate
p3362
sg11
Vhttps://movie.douban.com/subject/1293318/
p3363
sg3
V\u8424\u706b\u866b\u4e4b\u5893 / \u706b\u5782\u308b\u306e\u5893
p3364
sg14
V1293318
p3365
sa(dp3366
g9
Vdate
p3367
sg11
Vhttps://movie.douban.com/subject/1291558/
p3368
sg3
V\u4e91\u4e0a\u7684\u65e5\u5b50 / Al di l delle nuvole
p3369
sg14
V1291558
p3370
sa(dp3371
g9
Vdate
p3372
sg11
Vhttps://movie.douban.com/subject/1301168/
p3373
sg3
V\u5367\u864e\u85cf\u9f99 / \u81e5\u864e\u85cf\u9f8d
p3374
sg14
V1301168
p3375
sa(dp3376
g9
Vrating5-t
p3377
sg11
Vhttps://movie.douban.com/subject/1307106/
p3378
sg3
V\u65e0\u95f4\u90532 / \u7121\u9593\u9053II
p3379
sg14
V1307106
p3380
sa(dp3381
g9
Vdate
p3382
sg11
Vhttps://movie.douban.com/subject/1438760/
p3383
sg3
V\u4e1c\u4eac\u7231\u60c5\u6545\u4e8b / \u6771\u4eac\u30e9\u30d6\u30b9\u30c8\u30fc\u30ea\u30fc
p3384
sg14
V1438760
p3385
sa(dp3386
g9
Vdate
p3387
sg11
Vhttps://movie.douban.com/subject/1292262/
p3388
sg3
V\u7f8e\u56fd\u5f80\u4e8b / Once Upon a Time in America
p3389
sg14
V1292262
p3390
sa(dp3391
g9
Vdate
p3392
sg11
Vhttps://movie.douban.com/subject/1299131/
p3393
sg3
V\u6559\u72362 / The Godfather: Part \u2161
p3394
sg14
V1299131
p3395
sa(dp3396
g9
Vdate
p3397
sg11
Vhttps://movie.douban.com/subject/1291552/
p3398
sg3
V\u6307\u73af\u738b3\uff1a\u738b\u8005\u65e0\u654c / The Lord of the Rings: The Return of the King
p3399
sg14
V1291552
p3400
sa(dp3401
g9
Vdate
p3402
sg11
Vhttps://movie.douban.com/subject/1306612/
p3403
sg3
V\u8718\u86db\u4fa0 / Spider-Man
p3404
sg14
V1306612
p3405
sa(dp3406
g9
Vdate
p3407
sg11
Vhttps://movie.douban.com/subject/1298586/
p3408
sg3
V\u6728\u4e43\u4f0a\u5f52\u6765 / The Mummy Returns
p3409
sg14
V1298586
p3410
sa(dp3411
g9
Vdate
p3412
sg11
Vhttps://movie.douban.com/subject/1309060/
p3413
sg3
V\u50f5\u5c38\u65b0\u5a18 / Corpse Bride
p3414
sg14
V1309060
p3415
sa(dp3416
g9
Vdate
p3417
sg11
Vhttps://movie.douban.com/subject/1293167/
p3418
sg3
V\u751f\u6b7b\u65f6\u901f / Speed
p3419
sg14
V1293167
p3420
sa(dp3421
g9
Vrating4-t
p3422
sg11
Vhttps://movie.douban.com/subject/1300056/
p3423
sg3
V\u56db\u767e\u51fb / Les quatre cents coups
p3424
sg14
V1300056
p3425
sa(dp3426
g9
Vrating5-t
p3427
sg11
Vhttps://movie.douban.com/subject/1292504/
p3428
sg3
V\u67cf\u6797\u82cd\u7a79\u4e0b / Der Himmel ber Berlin
p3429
sg14
V1292504
p3430
sa(dp3431
g9
Vcomment
p3432
sg11
Vhttps://movie.douban.com/subject/1293765/
p3433
sg3
V\u767d\u53d1\u9b54\u5973\u4f20 / \u767d\u9aee\u9b54\u5973\u50b3
p3434
sg14
V1293765
p3435
sa(dp3436
g9
Vrating4-t
p3437
sg11
Vhttps://movie.douban.com/subject/1296334/
p3438
sg3
V\u6eda\u6eda\u7ea2\u5c18
p3439
sg14
V1296334
p3440
sa(dp3441
g9
Vrating5-t
p3442
sg11
Vhttps://movie.douban.com/subject/1292219/
p3443
sg3
V\u5173\u4e8e\u8389\u8389\u5468\u7684\u4e00\u5207 / \u30ea\u30ea\u30a4\u30b7\u30e5\u30b7\u30e5\u306e\u3059\u3079\u3066
p3444
sg14
V1292219
p3445
sa(dp3446
g9
Vrating4-t
p3447
sg11
Vhttps://movie.douban.com/subject/1302050/
p3448
sg3
V\u5e7f\u5c9b\u4e4b\u604b / Hiroshima mon amour
p3449
sg14
V1302050
p3450
sa(dp3451
g9
Vrating4-t
p3452
sg11
Vhttps://movie.douban.com/subject/1292049/
p3453
sg3
V\u84dd\u767d\u7ea2\u4e09\u90e8\u66f2\u4e4b\u767d / Trois couleurs: Blanc
p3454
sg14
V1292049
p3455
sa(dp3456
g9
Vrating4-t
p3457
sg11
Vhttps://movie.douban.com/subject/1303376/
p3458
sg3
V\u91d1\u679d\u7389\u53f6 / \u91d1\u679d\u7389\u8449
p3459
sg14
V1303376
p3460
sa(dp3461
g9
Vrating4-t
p3462
sg11
Vhttps://movie.douban.com/subject/1304826/
p3463
sg3
V\u591c\u534a\u6b4c\u58f0 / \u591c\u534a\u6b4c\u8072
p3464
sg14
V1304826
p3465
sa(dp3466
g9
Vrating5-t
p3467
sg11
Vhttps://movie.douban.com/subject/1308807/
p3468
sg3
V\u54c8\u5c14\u7684\u79fb\u52a8\u57ce\u5821 / \u30cf\u30a6\u30eb\u306e\u52d5\u304f\u57ce
p3469
sg14
V1308807
p3470
sa(dp3471
g9
Vrating5-t
p3472
sg11
Vhttps://movie.douban.com/subject/1292950/
p3473
sg3
V\u65b0\u4e0d\u4e86\u60c5
p3474
sg14
V1292950
p3475
sa(dp3476
g9
Vcomment
p3477
sg11
Vhttps://movie.douban.com/subject/1306154/
p3478
sg3
V\u7f57\u5bc6\u6b27\u4e0e\u6731\u4e3d\u53f6 / Romeo + Juliet
p3479
sg14
V1306154
p3480
sa(dp3481
g9
Vrating4-t
p3482
sg11
Vhttps://movie.douban.com/subject/1421809/
p3483
sg3
V\u6700\u597d\u7684\u65f6\u5149 / \u6700\u597d\u7684\u6642\u5149
p3484
sg14
V1421809
p3485
sa(dp3486
g9
Vrating3-t
p3487
sg11
Vhttps://movie.douban.com/subject/1300186/
p3488
sg3
V\u6625\u901d / \ubd04\ub0a0\uc740\uac04\ub2e4
p3489
sg14
V1300186
p3490
sa(dp3491
g9
Vrating4-t
p3492
sg11
Vhttps://movie.douban.com/subject/1303590/
p3493
sg3
V\u73bb\u7483\u4e4b\u57ce
p3494
sg14
V1303590
p3495
sa(dp3496
g9
Vrating4-t
p3497
sg11
Vhttps://movie.douban.com/subject/1291868/
p3498
sg3
V\u60c5\u4eba / L'amant
p3499
sg14
V1291868
p3500
sa(dp3501
g9
Vrating4-t
p3502
sg11
Vhttps://movie.douban.com/subject/1305164/
p3503
sg3
V\u751c\u871c\u871c
p3504
sg14
V1305164
p3505
sa(dp3506
g9
Vrating5-t
p3507
sg11
Vhttps://movie.douban.com/subject/1298128/
p3508
sg3
V\u897f\u96c5\u56fe\u672a\u7720\u591c / Sleepless in Seattle
p3509
sg14
V1298128
p3510
sa(dp3511
g9
Vrating4-t
p3512
sg11
Vhttps://movie.douban.com/subject/1296390/
p3513
sg3
V\u738b\u5b50\u590d\u4ec7\u8bb0 / Hamlet
p3514
sg14
V1296390
p3515
sa(dp3516
g9
Vrating3-t
p3517
sg11
Vhttps://movie.douban.com/subject/1293004/
p3518
sg3
V\u544a\u522b\u6709\u60c5\u5929 / The Remains of the Day
p3519
sg14
V1293004
p3520
sa(dp3521
g9
Vrating5-t
p3522
sg11
Vhttps://movie.douban.com/subject/1302100/
p3523
sg3
V\u5c3c\u7f57\u6cb3\u4e0a\u7684\u60e8\u6848 / Death on the Nile
p3524
sg14
V1302100
p3525
sa(dp3526
g9
Vcomment
p3527
sg11
Vhttps://movie.douban.com/subject/1292213/
p3528
sg3
V\u5927\u8bdd\u897f\u6e38\u4e4b\u5927\u5723\u5a36\u4eb2 / \u897f\u904a\u8a18\u5927\u7d50\u5c40\u4e4b\u4ed9\u5c65\u5947\u7de3
p3529
sg14
V1292213
p3530
sa(dp3531
g9
Vrating5-t
p3532
sg11
Vhttps://movie.douban.com/subject/1292275/
p3533
sg3
V\u7f57\u62c9\u5feb\u8dd1 / Lola rennt
p3534
sg14
V1292275
p3535
sa(dp3536
g9
Vrating3-t
p3537
sg11
Vhttps://movie.douban.com/subject/1293976/
p3538
sg3
V\u6740\u4eba\u4e09\u6b65\u66f2 / Desperado
p3539
sg14
V1293976
p3540
sa(dp3541
g9
Vrating3-t
p3542
sg11
Vhttps://movie.douban.com/subject/1293899/
p3543
sg3
V\u4e00\u4e2a\u5934\u4e24\u4e2a\u5927 / Me, Myself & Irene
p3544
sg14
V1293899
p3545
sa(dp3546
g9
Vrating4-t
p3547
sg11
Vhttps://movie.douban.com/subject/1292943/
p3548
sg3
V\u5149\u8f89\u5c81\u6708 / Remember the Titans
p3549
sg14
V1292943
p3550
sa(dp3551
g9
Vrating3-t
p3552
sg11
Vhttps://movie.douban.com/subject/1307187/
p3553
sg3
V\u60c5\u5f52\u963f\u62c9\u5df4\u9a6c / Sweet Home Alabama
p3554
sg14
V1307187
p3555
sa(dp3556
g9
Vrating5-t
p3557
sg11
Vhttps://movie.douban.com/subject/1292401/
p3558
sg3
V\u771f\u7231\u81f3\u4e0a / Love Actually
p3559
sg14
V1292401
p3560
sa(dp3561
g9
Vrating4-t
p3562
sg11
Vhttps://movie.douban.com/subject/1295684/
p3563
sg3
V\u4e00\u591c\u98ce\u6d41 / It Happened One Night
p3564
sg14
V1295684
p3565
sa(dp3566
g9
Vrating4-t
p3567
sg11
Vhttps://movie.douban.com/subject/1294950/
p3568
sg3
V\u56db\u4e2a\u5a5a\u793c\u548c\u4e00\u4e2a\u846c\u793c / Four Weddings and a Funeral
p3569
sg14
V1294950
p3570
sa(dp3571
g9
Vcomment
p3572
sg11
Vhttps://movie.douban.com/subject/1294379/
p3573
sg3
V\u4e03\u5e74\u4e4b\u75d2 / The Seven Year Itch
p3574
sg14
V1294379
p3575
sa(dp3576
g9
Vrating4-t
p3577
sg11
Vhttps://movie.douban.com/subject/1293158/
p3578
sg3
V\u751c\u5fc3\u5148\u751f / Jerry Maguire
p3579
sg14
V1293158
p3580
sa(dp3581
g9
Vrating5-t
p3582
sg11
Vhttps://movie.douban.com/subject/1322848/
p3583
sg3
V\u5947\u7231\u535a\u58eb / Dr. Strangelove or: How I Learned to Stop Worrying and Love the Bomb
p3584
sg14
V1322848
p3585
sa(dp3586
g9
Vcomment
p3587
sg11
Vhttps://movie.douban.com/subject/1292874/
p3588
sg3
V\u751f\u4e8e\u4e03\u6708\u56db\u65e5 / Born on the Fourth of July
p3589
sg14
V1292874
p3590
sa(dp3591
g9
Vrating2-t
p3592
sg11
Vhttps://movie.douban.com/subject/1309011/
p3593
sg3
V\u673a\u5668\u4eba\u5386\u9669\u8bb0 / Robots
p3594
sg14
V1309011
p3595
sa(dp3596
g9
Vcomment
p3597
sg11
Vhttps://movie.douban.com/subject/1299923/
p3598
sg3
V\u559c\u798f\u4f1a / The Joy Luck Club
p3599
sg14
V1299923
p3600
sa(dp3601
g9
Vrating5-t
p3602
sg11
Vhttps://movie.douban.com/subject/1293596/
p3603
sg3
V\u79bb\u5f00\u62c9\u65af\u7ef4\u52a0\u65af / Leaving Las Vegas
p3604
sg14
V1293596
p3605
sa(dp3606
g9
Vrating3-t
p3607
sg11
Vhttps://movie.douban.com/subject/1307678/
p3608
sg3
V\u58a8\u897f\u54e5\u5f80\u4e8b / Once Upon a Time in Mexico
p3609
sg14
V1307678
p3610
sa(dp3611
g9
Vrating5-t
p3612
sg11
Vhttps://movie.douban.com/subject/1308819/
p3613
sg3
VBJ\u5355\u8eab\u65e5\u8bb02\uff1a\u7406\u6027\u8fb9\u7f18 / Bridget Jones: The Edge of Reason
p3614
sg14
V1308819
p3615
sa(dp3616
g9
Vrating5-t
p3617
sg11
Vhttps://movie.douban.com/subject/1299193/
p3618
sg3
V\u7406\u667a\u4e0e\u60c5\u611f / Sense and Sensibility
p3619
sg14
V1299193
p3620
sa(dp3621
g9
Vrating4-t
p3622
sg11
Vhttps://movie.douban.com/subject/1293973/
p3623
sg3
V\u7231\u5fb7\u534e\u5927\u592b / Spellbound
p3624
sg14
V1293973
p3625
sa(dp3626
g9
Vrating3-t
p3627
sg11
Vhttps://movie.douban.com/subject/1299769/
p3628
sg3
V\u7b2c\u516d\u611f\u751f\u6b7b\u7f18 / Meet Joe Black
p3629
sg14
V1299769
p3630
sa(dp3631
g9
Vrating4-t
p3632
sg11
Vhttps://movie.douban.com/subject/1297995/
p3633
sg3
V\u7f8e\u5973\u4e0e\u91ce\u517d / Beauty and the Beast
p3634
sg14
V1297995
p3635
sa(dp3636
g9
Vrating2-t
p3637
sg11
Vhttps://movie.douban.com/subject/1309136/
p3638
sg3
V\u8303\u6d77\u8f9b / Van Helsing
p3639
sg14
V1309136
p3640
sa(dp3641
g9
Vcomment
p3642
sg11
Vhttps://movie.douban.com/subject/1304585/
p3643
sg3
VBJ\u5355\u8eab\u65e5\u8bb0 / Bridget Jones's Diary
p3644
sg14
V1304585
p3645
sa(dp3646
g9
Vrating4-t
p3647
sg11
Vhttps://movie.douban.com/subject/1300220/
p3648
sg3
V\u838e\u7fc1\u60c5\u53f2 / Shakespeare in Love
p3649
sg14
V1300220
p3650
sa(dp3651
g9
Vrating4-t
p3652
sg11
Vhttps://movie.douban.com/subject/1293824/
p3653
sg3
V\u8774\u8776\u68a6 / Rebecca
p3654
sg14
V1293824
p3655
sa(dp3656
g9
Vcomment
p3657
sg11
Vhttps://movie.douban.com/subject/1299080/
p3658
sg3
V\u540e\u7a97 / Rear Window
p3659
sg14
V1299080
p3660
sa(dp3661
g9
Vrating4-t
p3662
sg11
Vhttps://movie.douban.com/subject/1293731/
p3663
sg3
V\u5fe0\u5978\u4eba / Donnie Brasco
p3664
sg14
V1293731
p3665
sa(dp3666
g9
Vrating5-t
p3667
sg11
Vhttps://movie.douban.com/subject/1293590/
p3668
sg3
V\u6b32\u671b\u53f7\u8857\u8f66 / A Streetcar Named Desire
p3669
sg14
V1293590
p3670
sa(dp3671
g9
Vrating4-t
p3672
sg11
Vhttps://movie.douban.com/subject/1292268/
p3673
sg3
V\u597d\u5bb6\u4f19 / Goodfellas
p3674
sg14
V1292268
p3675
sa(dp3676
g9
Vrating5-t
p3677
sg11
Vhttps://movie.douban.com/subject/1292001/
p3678
sg3
V\u6d77\u4e0a\u94a2\u7434\u5e08 / La leggenda del pianista sull'oceano
p3679
sg14
V1292001
p3680
sa(dp3681
g9
Vcomment
p3682
sg11
Vhttps://movie.douban.com/subject/1301465/
p3683
sg3
V\u7eaf\u771f\u5e74\u4ee3 / The Age of Innocence
p3684
sg14
V1301465
p3685
sa(dp3686
g9
Vrating5-t
p3687
sg11
Vhttps://movie.douban.com/subject/1298744/
p3688
sg3
V\u5341\u4e8c\u7334\u5b50 / Twelve Monkeys
p3689
sg14
V1298744
p3690
sa(dp3691
g9
Vrating3-t
p3692
sg11
Vhttps://movie.douban.com/subject/1309020/
p3693
sg3
V\u5168\u6c11\u60c5\u654c / Hitch
p3694
sg14
V1309020
p3695
sa(dp3696
g9
Vrating5-t
p3697
sg11
Vhttps://movie.douban.com/subject/1291842/
p3698
sg3
V\u5f53\u54c8\u5229\u9047\u5230\u838e\u8389 / When Harry Met Sally...
p3699
sg14
V1291842
p3700
sa(dp3701
g9
Vrating3-t
p3702
sg11
Vhttps://movie.douban.com/subject/1294621/
p3703
sg3
V\u795e\u79d8\u62fc\u56fe / The Bone Collector
p3704
sg14
V1294621
p3705
sa(dp3706
g9
Vrating4-t
p3707
sg11
Vhttps://movie.douban.com/subject/1308831/
p3708
sg3
V\u5bfb\u627e\u68a6\u5e7b\u5c9b / Finding Neverland
p3709
sg14
V1308831
p3710
sa(dp3711
g9
Vcomment
p3712
sg11
Vhttps://movie.douban.com/subject/1307697/
p3713
sg3
V\u829d\u52a0\u54e5 / Chicago
p3714
sg14
V1307697
p3715
sa(dp3716
g9
Vrating4-t
p3717
sg11
Vhttps://movie.douban.com/subject/1300374/
p3718
sg3
V\u7eff\u91cc\u5947\u8ff9 / The Green Mile
p3719
sg14
V1300374
p3720
sa(dp3721
g9
Vrating5-t
p3722
sg11
Vhttps://movie.douban.com/subject/1293460/
p3723
sg3
V\u96e8\u4e2d\u66f2 / Singin' in the Rain
p3724
sg14
V1293460
p3725
sa(dp3726
g9
Vcomment
p3727
sg11
Vhttps://movie.douban.com/subject/1304485/
p3728
sg3
V\u7a7f\u8d8a\u65f6\u7a7a\u7231\u4e0a\u4f60 / Kate & Leopold
p3729
sg14
V1304485
p3730
sa(dp3731
g9
Vrating4-t
p3732
sg11
Vhttps://movie.douban.com/subject/1295686/
p3733
sg3
V\u76d7\u706b\u7ebf / Heat
p3734
sg14
V1295686
p3735
sa(dp3736
g9
Vrating4-t
p3737
sg11
Vhttps://movie.douban.com/subject/1301890/
p3738
sg3
V\u6d53\u60c5\u5de7\u514b\u529b / Chocolat
p3739
sg14
V1301890
p3740
sa(dp3741
g9
Vrating5-t
p3742
sg11
Vhttps://movie.douban.com/subject/1293145/
p3743
sg3
V\u8d39\u57ce\u6545\u4e8b / Philadelphia
p3744
sg14
V1293145
p3745
sa(dp3746
g9
Vcomment
p3747
sg11
Vhttps://movie.douban.com/subject/1419936/
p3748
sg3
V\u6218\u4e89\u4e4b\u738b / Lord of War
p3749
sg14
V1419936
p3750
sa(dp3751
g9
Vrating5-t
p3752
sg11
Vhttps://movie.douban.com/subject/1301578/
p3753
sg3
V\u5341\u4e00\u7f57\u6c49 / Ocean's Eleven
p3754
sg14
V1301578
p3755
sa(dp3756
g9
Vrating3-t
p3757
sg11
Vhttps://movie.douban.com/subject/1291859/
p3758
sg3
V\u5e03\u62c9\u683c\u4e4b\u604b / The Unbearable Lightness of Being
p3759
sg14
V1291859
p3760
sa(dp3761
g9
Vrating5-t
p3762
sg11
Vhttps://movie.douban.com/subject/1292656/
p3763
sg3
V\u5fc3\u7075\u6355\u624b / Good Will Hunting
p3764
sg14
V1292656
p3765
sa(dp3766
g9
Vcomment
p3767
sg11
Vhttps://movie.douban.com/subject/1305487/
p3768
sg3
V\u732b\u9f20\u6e38\u620f / Catch Me If You Can
p3769
sg14
V1305487
p3770
sa(dp3771
g9
Vrating4-t
p3772
sg11
Vhttps://movie.douban.com/subject/1293124/
p3773
sg3
V\u60ca\u60c5\u56db\u767e\u5e74 / Dracula
p3774
sg14
V1293124
p3775
sa(dp3776
g9
Vrating4-t
p3777
sg11
Vhttps://movie.douban.com/subject/1308751/
p3778
sg3
V\u7279\u6d1b\u4f0a / Troy
p3779
sg14
V1308751
p3780
sa(dp3781
g9
Vrating5-t
p3782
sg11
Vhttps://movie.douban.com/subject/1302467/
p3783
sg3
V\u9ed1\u5ba2\u5e1d\u56fd3\uff1a\u77e9\u9635\u9769\u547d / The Matrix Revolutions
p3784
sg14
V1302467
p3785
sa(dp3786
g9
Vrating4-t
p3787
sg11
Vhttps://movie.douban.com/subject/1294833/
p3788
sg3
V\u82b1\u6728\u5170 / Mulan
p3789
sg14
V1294833
p3790
sa(dp3791
g9
Vrating4-t
p3792
sg11
Vhttps://movie.douban.com/subject/1291579/
p3793
sg3
V\u602a\u517d\u7535\u529b\u516c\u53f8 / Monsters, Inc.
p3794
sg14
V1291579
p3795
sa(dp3796
g9
Vrating3-t
p3797
sg11
Vhttps://movie.douban.com/subject/1305065/
p3798
sg3
V\u516c\u4e3b\u65e5\u8bb0 / The Princess Diaries
p3799
sg14
V1305065
p3800
sa(dp3801
g9
Vcomment
p3802
sg11
Vhttps://movie.douban.com/subject/1291548/
p3803
sg3
V\u6b7b\u4ea1\u8bd7\u793e / Dead Poets Society
p3804
sg14
V1291548
p3805
sa(dp3806
g9
Vdate
p3807
sg11
Vhttps://movie.douban.com/subject/1309027/
p3808
sg3
V\u7f6a\u6076\u4e4b\u57ce / Sin City
p3809
sg14
V1309027
p3810
sa(dp3811
g9
Vrating3-t
p3812
sg11
Vhttps://movie.douban.com/subject/1302987/
p3813
sg3
V\u73cd\u73e0\u6e2f / Pearl Harbor
p3814
sg14
V1302987
p3815
sa(dp3816
g9
Vrating5-t
p3817
sg11
Vhttps://movie.douban.com/subject/1299327/
p3818
sg3
V\u591c\u8bbf\u5438\u8840\u9b3c / Interview with the Vampire: The Vampire Chronicles
p3819
sg14
V1299327
p3820
sa(dp3821
g9
Vrating4-t
p3822
sg11
Vhttps://movie.douban.com/subject/1293964/
p3823
sg3
V\u9b42\u65ad\u84dd\u6865 / Waterloo Bridge
p3824
sg14
V1293964
p3825
sa(dp3826
g9
Vcomment
p3827
sg11
Vhttps://movie.douban.com/subject/1301753/
p3828
sg3
V\u72ee\u5b50\u738b / The Lion King
p3829
sg14
V1301753
p3830
sa(dp3831
g9
Vrating5-t
p3832
sg11
Vhttps://movie.douban.com/subject/1291586/
p3833
sg3
V\u6d77\u5e95\u603b\u52a8\u5458 / Finding Nemo
p3834
sg14
V1291586
p3835
sa(dp3836
g9
Vrating5-t
p3837
sg11
Vhttps://movie.douban.com/subject/1291841/
p3838
sg3
V\u6559\u7236 / The Godfather
p3839
sg14
V1291841
p3840
sa(dp3841
g9
Vrating4-t
p3842
sg11
Vhttps://movie.douban.com/subject/1292064/
p3843
sg3
V\u695a\u95e8\u7684\u4e16\u754c / The Truman Show
p3844
sg14
V1292064
p3845
sa(dp3846
g9
Vrating5-t
p3847
sg11
Vhttps://movie.douban.com/subject/1292370/
p3848
sg3
V\u526a\u5200\u624b\u7231\u5fb7\u534e / Edward Scissorhands
p3849
sg14
V1292370
p3850
sa(dp3851
g9
Vrating3-t
p3852
sg11
Vhttps://movie.douban.com/subject/1294408/
p3853
sg3
V\u97f3\u4e50\u4e4b\u58f0 / The Sound of Music
p3854
sg14
V1294408
p3855
sa(dp3856
g9
Vcomment
p3857
sg11
Vhttps://movie.douban.com/subject/1294639/
p3858
sg3
V\u52c7\u6562\u7684\u5fc3 / Braveheart
p3859
sg14
V1294639
p3860
sa(dp3861
g9
Vrating4-t
p3862
sg11
Vhttps://movie.douban.com/subject/1291870/
p3863
sg3
V\u96e8\u4eba / Rain Man
p3864
sg14
V1291870
p3865
sa(dp3866
g9
Vrating5-t
p3867
sg11
Vhttps://movie.douban.com/subject/1292223/
p3868
sg3
V\u4e03\u5b97\u7f6a / Se7en
p3869
sg14
V1292223
p3870
sa(dp3871
g9
Vcomment
p3872
sg11
Vhttps://movie.douban.com/subject/1292722/
p3873
sg3
V\u6cf0\u5766\u5c3c\u514b\u53f7 / Titanic
p3874
sg14
V1292722
p3875
sa(dp3876
g9
Vrating4-t
p3877
sg11
Vhttps://movie.douban.com/subject/1293839/
p3878
sg3
V\u7f57\u9a6c\u5047\u65e5 / Roman Holiday
p3879
sg14
V1293839
p3880
sa(dp3881
g9
Vrating4-t
p3882
sg11
Vhttps://movie.douban.com/subject/1298070/
p3883
sg3
V\u52a0\u52d2\u6bd4\u6d77\u76d7 / Pirates of the Caribbean: The Curse of the Black Pearl
p3884
sg14
V1298070
p3885
sa(dp3886
g9
Vrating5-t
p3887
sg11
Vhttps://movie.douban.com/subject/1300267/
p3888
sg3
V\u4e71\u4e16\u4f73\u4eba / Gone with the Wind
p3889
sg14
V1300267
p3890
sa(dp3891
g9
Vrating5-t
p3892
sg11
Vhttps://movie.douban.com/subject/1292052/
p3893
sg3
V\u8096\u7533\u514b\u7684\u6551\u8d4e / The Shawshank Redemption
p3894
sg14
V1292052
p3895
sa(dp3896
g9
Vrating5-t
p3897
sg11
Vhttps://movie.douban.com/subject/1292720/
p3898
sg3
V\u963f\u7518\u6b63\u4f20 / Forrest Gump
p3899
sg14
V1292720
p3900
sa(dp3901
g9
Vrating4-t
p3902
sg11
Vhttps://movie.douban.com/subject/1295409/
p3903
sg3
V\u7eb5\u6a2a\u56db\u6d77 / \u7dc3\u6a2a\u56db\u6d77
p3904
sg14
V1295409
p3905
sa(dp3906
g9
Vdate
p3907
sg11
Vhttps://movie.douban.com/subject/1298898/
p3908
sg3
V\u6697\u6218 / \u6697\u6230
p3909
sg14
V1298898
p3910
sa(dp3911
g9
Vrating5-t
p3912
sg11
Vhttps://movie.douban.com/subject/1293530/
p3913
sg3
V\u89d2\u6597\u58eb / Gladiator
p3914
sg14
V1293530
p3915
sa(dp3916
g9
Vdate
p3917
sg11
Vhttps://movie.douban.com/subject/1291843/
p3918
sg3
V\u9ed1\u5ba2\u5e1d\u56fd / The Matrix
p3919
sg14
V1291843
p3920
sa(dp3921
g9
Vdate
p3922
sg11
Vhttps://movie.douban.com/subject/1304141/
p3923
sg3
V\u9ed1\u5ba2\u5e1d\u56fd2\uff1a\u91cd\u88c5\u4e0a\u9635 / The Matrix Reloaded
p3924
sg14
V1304141
p3925
sa(dp3926
g9
Vdate
p3927
sg11
Vhttps://movie.douban.com/subject/1301445/
p3928
sg3
V\u9ed1\u8863\u4eba / Men in Black
p3929
sg14
V1301445
p3930
sa(dp3931
g9
Vdate
p3932
sg11
Vhttps://movie.douban.com/subject/1292659/
p3933
sg3
V\u53d8\u8138 / Face/Off
p3934
sg14
V1292659
p3935
sa(dp3936
g9
Vdate
p3937
sg11
Vhttps://movie.douban.com/subject/1294638/
p3938
sg3
VE.T. \u5916\u661f\u4eba / E.T.: The Extra-Terrestrial
p3939
sg14
V1294638
p3940
sa(dp3941
g9
Vrating5-t
p3942
sg11
Vhttps://movie.douban.com/subject/1292287/
p3943
sg3
V\u65b0\u9f99\u95e8\u5ba2\u6808 / \u65b0\u9f8d\u9580\u5ba2\u68e7
p3944
sg14
V1292287
p3945
sa(dp3946
g9
Vcomment
p3947
sg11
Vhttps://movie.douban.com/subject/1296753/
p3948
sg3
V\u5361\u8428\u5e03\u5170\u5361 / Casablanca
p3949
sg14
V1296753
p3950
sa(dp3951
g9
Vrating4-t
p3952
sg11
Vhttps://movie.douban.com/subject/1292271/
p3953
sg3
V\u6bd5\u4e1a\u751f / The Graduate
p3954
sg14
V1292271
p3955
sa(dp3956
g9
Vdate
p3957
sg11
Vhttps://movie.douban.com/subject/1299288/
p3958
sg3
V\u80ed\u8102\u6263
p3959
sg14
V1299288
p3960
sa(dp3961
g9
Vrating3-t
p3962
sg11
Vhttps://movie.douban.com/subject/1291557/
p3963
sg3
V\u82b1\u6837\u5e74\u534e / \u82b1\u6a23\u5e74\u83ef
p3964
sg14
V1291557
p3965
sa(dp3966
g9
Vrating5-t
p3967
sg11
Vhttps://movie.douban.com/subject/1303394/
p3968
sg3
V\u9752\u86c7
p3969
sg14
V1303394
p3970
sa(dp3971
g9
Vdate
p3972
sg11
Vhttps://movie.douban.com/subject/1292055/
p3973
sg3
V\u518d\u89c1\u5217\u5b81 / Good Bye Lenin!
p3974
sg14
V1292055
p3975
sa(dp3976
g9
Vdate
p3977
sg11
Vhttps://movie.douban.com/subject/1305690/
p3978
sg3
V\u963f\u98de\u6b63\u4f20 / \u963f\u98db\u6b63\u50b3
p3979
sg14
V1305690
p3980
sa(dp3981
g9
Vrating5-t
p3982
sg11
Vhttps://movie.douban.com/subject/1295865/
p3983
sg3
V\u71c3\u60c5\u5c81\u6708 / Legends of the Fall
p3984
sg14
V1295865
p3985
sa(dp3986
g9
Vrating4-t
p3987
sg11
Vhttps://movie.douban.com/subject/1298624/
p3988
sg3
V\u95fb\u9999\u8bc6\u5973\u4eba / Scent of a Woman
p3989
sg14
V1298624
p3990
sa(dp3991
g9
Vcomment
p3992
sg11
Vhttps://movie.douban.com/subject/1300353/
p3993
sg3
V\u5df4\u9ece\u6700\u540e\u7684\u63a2\u6208 / Ultimo tango a Parigi
p3994
sg14
V1300353
p3995
sa(dp3996
g9
Vrating5-t
p3997
sg11
Vhttps://movie.douban.com/subject/1292063/
p3998
sg3
V\u7f8e\u4e3d\u4eba\u751f / La vita  bella
p3999
sg14
V1292063
p4000
sa(dp4001
g9
Vrating4-t
p4002
sg11
Vhttps://movie.douban.com/subject/1296736/
p4003
sg3
V\u94a2\u7434\u5bb6 / The Pianist
p4004
sg14
V1296736
p4005
sa(dp4006
g9
Vrating5-t
p4007
sg11
Vhttps://movie.douban.com/subject/1291545/
p4008
sg3
V\u5927\u9c7c / Big Fish
p4009
sg14
V1291545
p4010
sa(dp4011
g9
Vrating5-t
p4012
sg11
Vhttps://movie.douban.com/subject/1292222/
p4013
sg3
V\u51fa\u79df\u8f66\u53f8\u673a / Taxi Driver
p4014
sg14
V1292222
p4015
sa(dp4016
g9
Vrating5-t
p4017
sg11
Vhttps://movie.douban.com/subject/1292528/
p4018
sg3
V\u731c\u706b\u8f66 / Trainspotting
p4019
sg14
V1292528
p4020
sa(dp4021
g9
Vrating4-t
p4022
sg11
Vhttps://movie.douban.com/subject/1291562/
p4023
sg3
V\u9ed1\u6697\u4e2d\u7684\u821e\u8005 / Dancer in the Dark
p4024
sg14
V1291562
p4025
sa(dp4026
g9
Vrating4-t
p4027
sg11
Vhttps://movie.douban.com/subject/1292792/
p4028
sg3
V\u6211\u81ea\u5df1\u7684\u7231\u8fbe\u8377 / My Own Private Idaho
p4029
sg14
V1292792
p4030
sa(dp4031
g9
Vrating3-t
p4032
sg11
Vhttps://movie.douban.com/subject/1292328/
p4033
sg3
V\u4e1c\u90aa\u897f\u6bd2 / \u6771\u90aa\u897f\u6bd2
p4034
sg14
V1292328
p4035
sa(dp4036
g9
Vrating5-t
p4037
sg11
Vhttps://movie.douban.com/subject/1292215/
p4038
sg3
V\u5929\u4f7f\u7231\u7f8e\u4e3d / Le fabuleux destin d'Amlie Poulain
p4039
sg14
V1292215
p4040
sa(dp4041
g9
Vrating5-t
p4042
sg11
Vhttps://movie.douban.com/subject/1291828/
p4043
sg3
V\u5929\u5802\u7535\u5f71\u9662 / Nuovo Cinema Paradiso
p4044
sg14
V1291828
p4045
sa(dp4046
g9
Vrating5-t
p4047
sg11
Vhttps://movie.douban.com/subject/1298638/
p4048
sg3
V\u9e1f\u4eba / Birdy
p4049
sg14
V1298638
p4050
sa(dp4051
g9
Vrating5-t
p4052
sg11
Vhttps://movie.douban.com/subject/1295644/
p4053
sg3
V\u8fd9\u4e2a\u6740\u624b\u4e0d\u592a\u51b7 / Lon
p4054
sg14
V1295644
p4055
sa(dp4056
g9
Vrating5-t
p4057
sg11
Vhttps://movie.douban.com/subject/1292000/
p4058
sg3
V\u640f\u51fb\u4ff1\u4e50\u90e8 / Fight Club
p4059
sg14
V1292000
p4060
sasS'num_wish'
p4061
I177
sS'collect_link'
p4062
Vhttps://movie.douban.com/people/1120582/collect
p4063
sS'wish_list'
p4064
(lp4065
(dp4066
g11
Vhttps://movie.douban.com/subject/2027938/
p4067
sg3
V\u795e\u63a2
p4068
sg14
V2027938
p4069
sa(dp4070
g11
Vhttps://movie.douban.com/subject/26265170/
p4071
sg3
V\u6811\u5927\u62db\u98ce / \u6a39\u5927\u62db\u98a8
p4072
sg14
V26265170
p4073
sa(dp4074
g11
Vhttps://movie.douban.com/subject/25964201/
p4075
sg3
V\u7406\u67e5\u4e09\u4e16 / Richard III
p4076
sg14
V25964201
p4077
sa(dp4078
g11
Vhttps://movie.douban.com/subject/5262339/
p4079
sg3
V\u5929\u624d\u6355\u624b / Genius
p4080
sg14
V5262339
p4081
sa(dp4082
g11
Vhttps://movie.douban.com/subject/10581289/
p4083
sg3
V\u6d77\u5973 / \u3042\u307e\u3061\u3083\u3093
p4084
sg14
V10581289
p4085
sa(dp4086
g11
Vhttps://movie.douban.com/subject/1959154/
p4087
sg3
V\u5317\u56fd\u4e4b\u604b / \u5317\u306e\u56fd\u304b\u3089
p4088
sg14
V1959154
p4089
sa(dp4090
g11
Vhttps://movie.douban.com/subject/22623816/
p4091
sg3
V\u6211\u4eec\u7684\u7236\u8f88 / Unsere Mtter, unsere Vter
p4092
sg14
V22623816
p4093
sa(dp4094
g11
Vhttps://movie.douban.com/subject/26725184/
p4095
sg3
V99.9\uff1a\u5211\u4e8b\u4e13\u4e1a\u5f8b\u5e08 / 99.9 \u5211\u4e8b\u5c02\u9580\u5f01\u8b77\u58eb
p4096
sg14
V26725184
p4097
sa(dp4098
g11
Vhttps://movie.douban.com/subject/26387719/
p4099
sg3
V\u6c11\u738b
p4100
sg14
V26387719
p4101
sa(dp4102
g11
Vhttps://movie.douban.com/subject/25777508/
p4103
sg3
V\u6697\u91d1\u4e11\u5c9b\u541b \u7b2c\u4e8c\u5b63 / \u95c7\u91d1\u30a6\u30b7\u30b8\u30de\u304f\u3093 Season2
p4104
sg14
V25777508
p4105
sa(dp4106
g11
Vhttps://movie.douban.com/subject/2270554/
p4107
sg3
V\u7275\u7eca\u7684\u7231 / \u3042\u3044\u304f\u308b\u3057\u3044
p4108
sg14
V2270554
p4109
sa(dp4110
g11
Vhttps://movie.douban.com/subject/26663070/
p4111
sg3
V\u5bb6\u65cf\u7684\u5f62\u5f0f / \u5bb6\u65cf\u30ce\u30ab\u30bf\u30c1
p4112
sg14
V26663070
p4113
sa(dp4114
g11
Vhttps://movie.douban.com/subject/26266666/
p4115
sg3
V\u95ee\u9898\u9910\u5385 / \u554f\u984c\u306e\u3042\u308b\u30ec\u30b9\u30c8\u30e9\u30f3
p4116
sg14
V26266666
p4117
sa(dp4118
g11
Vhttps://movie.douban.com/subject/26698219/
p4119
sg3
V\u5c0f\u8c46\u8c46\u7535\u89c6\u53f0 / \u30c8\u30c3\u30c8\u3066\u308c\u3073
p4120
sg14
V26698219
p4121
sa(dp4122
g11
Vhttps://movie.douban.com/subject/2173112/
p4123
sg3
V\u864e\u4e0e\u9f99 / \u30bf\u30a4\u30ac\u30fc&\u30c9\u30e9\u30b4\u30f3
p4124
sg14
V2173112
p4125
sa(dp4126
g11
Vhttps://movie.douban.com/subject/26602200/
p4127
sg3
V\u5c0f\u5c0f\u98df\u6742\u94fa / \u304a\u304b\u3057\u306e\u5bb6
p4128
sg14
V26602200
p4129
sa(dp4130
g11
Vhttps://movie.douban.com/subject/26724684/
p4131
sg3
V\u5bbd\u677e\u4e16\u4ee3\u53c8\u5982\u4f55 / \u3086\u3068\u308a\u3067\u3059\u304c\u306a\u306b\u304b
p4132
sg14
V26724684
p4133
sa(dp4134
g11
Vhttps://movie.douban.com/subject/4303624/
p4135
sg3
V\u6bcd\u4eb2 / Mother
p4136
sg14
V4303624
p4137
sa(dp4138
g11
Vhttps://movie.douban.com/subject/20366095/
p4139
sg3
V\u9e22 / \u3068\u3093\u3073
p4140
sg14
V20366095
p4141
sa(dp4142
g11
Vhttps://movie.douban.com/subject/1986021/
p4143
sg3
V\u897f\u74dc / \u3059\u3044\u304b
p4144
sg14
V1986021
p4145
sa(dp4146
g11
Vhttps://movie.douban.com/subject/4022138/
p4147
sg3
V\u6d77\u8fb9\u65c5\u5e97 / \u30b7\u30fc\u30b5\u30a4\u30c9\u30e2\u30fc\u30c6\u30eb
p4148
sg14
V4022138
p4149
sa(dp4150
g11
Vhttps://movie.douban.com/subject/5996409/
p4151
sg3
V\u4e1c\u4eac\u5bb6\u65cf / \u6771\u4eac\u5bb6\u65cf
p4152
sg14
V5996409
p4153
sa(dp4154
g11
Vhttps://movie.douban.com/subject/1292269/
p4155
sg3
V\u9a97\u4e2d\u9a97 / The Sting
p4156
sg14
V1292269
p4157
sa(dp4158
g11
Vhttps://movie.douban.com/subject/1292218/
p4159
sg3
V\u4e2d\u592e\u8f66\u7ad9 / Central do Brasil
p4160
sg14
V1292218
p4161
sa(dp4162
g11
Vhttps://movie.douban.com/subject/3993559/
p4163
sg3
V\u8d5b\u5fb7\u514b\u5df4\u83b1 / \u8cfd\u5fb7\u514b\u5df4\u840a
p4164
sg14
V3993559
p4165
sa(dp4166
g11
Vhttps://movie.douban.com/subject/1294252/
p4167
sg3
V\u96fe\u4e2d\u98ce\u666f / \u03a4\u03bf\u03c0\u03af\u03bf \u03c3\u03c4\u03b7\u03bd \u03bf\u03bc\u03af\u03c7\u03bb\u03b7
p4168
sg14
V1294252
p4169
sa(dp4170
g11
Vhttps://movie.douban.com/subject/1303067/
p4171
sg3
V\u5f71\u5b50\u6b66\u58eb / \u5f71\u6b66\u8005
p4172
sg14
V1303067
p4173
sa(dp4174
g11
Vhttps://movie.douban.com/subject/1297009/
p4175
sg3
V\u56e0\u7236\u4e4b\u540d / In the Name of the Father
p4176
sg14
V1297009
p4177
sa(dp4178
g11
Vhttps://movie.douban.com/subject/1296141/
p4179
sg3
V\u63a7\u65b9\u8bc1\u4eba / Witness for the Prosecution
p4180
sg14
V1296141
p4181
sa(dp4182
g11
Vhttps://movie.douban.com/subject/2263024/
p4183
sg3
V\u5973\u4eba\u662f\u6076\u9b54 / Diaboliquement vtre
p4184
sg14
V2263024
p4185
sa(dp4186
g11
Vhttps://movie.douban.com/subject/6855097/
p4187
sg3
V\u590f\u76ee\u53cb\u4eba\u5e10 \u7b2c\u56db\u5b63 / \u590f\u76ee\u53cb\u4eba\u5e33 \u8086
p4188
sg14
V6855097
p4189
sa(dp4190
g11
Vhttps://movie.douban.com/subject/3284269/
p4191
sg3
V\u590f\u76ee\u53cb\u4eba\u5e10 \u7b2c\u4e8c\u5b63 / \u7d9a \u590f\u76ee\u53cb\u4eba\u5e33
p4192
sg14
V3284269
p4193
sa(dp4194
g11
Vhttps://movie.douban.com/subject/26427106/
p4195
sg3
V\u53ea\u6709\u6211\u4e0d\u5b58\u5728\u7684\u57ce\u5e02 / \u50d5\u3060\u3051\u304c\u3044\u306a\u3044\u8857
p4196
sg14
V26427106
p4197
sa(dp4198
g11
Vhttps://movie.douban.com/subject/6539388/
p4199
sg3
V\u5eb7\u4e43\u99a8 / \u30ab\u30fc\u30cd\u30fc\u30b7\u30e7\u30f3
p4200
sg14
V6539388
p4201
sa(dp4202
g11
Vhttps://movie.douban.com/subject/5964764/
p4203
sg3
V\u94c3\u6728\u8001\u5e08 / \u9234\u6728\u5148\u751f
p4204
sg14
V5964764
p4205
sa(dp4206
g11
Vhttps://movie.douban.com/subject/25843131/
p4207
sg3
V55\u5c81\u5f00\u59cb\u7684Hello Life / 55\u6b73\u304b\u3089\u306e\u30cf\u30ed\u30fc\u30e9\u30a4\u30d5
p4208
sg14
V25843131
p4209
sa(dp4210
g11
Vhttps://movie.douban.com/subject/21328704/
p4211
sg3
V\u5bb6\u65cf\u6e38\u620f / \u5bb6\u65cf\u30b2\u30fc\u30e0
p4212
sg14
V21328704
p4213
sa(dp4214
g11
Vhttps://movie.douban.com/subject/4917705/
p4215
sg3
VSPEC / SPEC\u301c\u8b66\u8996\u5e81\u516c\u5b89\u90e8\u516c\u5b89\u7b2c\u4e94\u8ab2 \u672a\u8a73\u4e8b\u4ef6\u7279\u5225\u5bfe\u7b56\u4fc2\u4e8b\u4ef6\u7c3f\u301c
p4216
sg14
V4917705
p4217
sa(dp4218
g11
Vhttps://movie.douban.com/subject/25884841/
p4219
sg3
V\u771f\u7530\u4e38
p4220
sg14
V25884841
p4221
sa(dp4222
g11
Vhttps://movie.douban.com/subject/1978709/
p4223
sg3
V\u9ed1\u5929\u9e45 / Black Swan
p4224
sg14
V1978709
p4225
sa(dp4226
g11
Vhttps://movie.douban.com/subject/6874403/
p4227
sg3
V\u518d\u6b21\u51fa\u53d1\u4e4b\u7ebd\u7ea6\u9047\u89c1\u4f60 / Begin Again
p4228
sg14
V6874403
p4229
sa(dp4230
g11
Vhttps://movie.douban.com/subject/3071604/
p4231
sg3
V\u4e39\u9ea6\u5973\u5b69 / The Danish Girl
p4232
sg14
V3071604
p4233
sa(dp4234
g11
Vhttps://movie.douban.com/subject/25954475/
p4235
sg3
V\u805a\u7126 / Spotlight
p4236
sg14
V25954475
p4237
sa(dp4238
g11
Vhttps://movie.douban.com/subject/25800201/
p4239
sg3
V\u5bab\u672c\u6b66\u8535 / \u5bae\u672c\u6b66\u8535
p4240
sg14
V25800201
p4241
sa(dp4242
g11
Vhttps://movie.douban.com/subject/10558401/
p4243
sg3
V\u5973\u5a7f\u662f\u5e02\u957f / \u5e02\u9577\u306f\u30e0\u30b3\u6bbf
p4244
sg14
V10558401
p4245
sa(dp4246
g11
Vhttps://movie.douban.com/subject/2361266/
p4247
sg3
V\u7231\u7684\u66dd\u5149 / \u611b\u306e\u3080\u304d\u3060\u3057
p4248
sg14
V2361266
p4249
sa(dp4250
g11
Vhttps://movie.douban.com/subject/1759781/
p4251
sg3
V\u767e\u5e74\u7269\u8bed / \u767e\u5e74\u306e\u7269\u8a9e
p4252
sg14
V1759781
p4253
sa(dp4254
g11
Vhttps://movie.douban.com/subject/2034114/
p4255
sg3
V\u56fd\u76d7\u7269\u8bed / \u56fd\u76d7\u308a\u7269\u8a9e
p4256
sg14
V2034114
p4257
sa(dp4258
g11
Vhttps://movie.douban.com/subject/2025124/
p4259
sg3
V\u5317\u56fd\u4e4b\u604b\uff1a1992\u81ea\u7acb / \u5317\u306e\u56fd\u304b\u3089 '92\u5de3\u7acb\u3061
p4260
sg14
V2025124
p4261
sa(dp4262
g11
Vhttps://movie.douban.com/subject/26309938/
p4263
sg3
VI'm Home / \u30a2\u30a4\u30e0\u30db\u30fc\u30e0
p4264
sg14
V26309938
p4265
sa(dp4266
g11
Vhttps://movie.douban.com/subject/10543907/
p4267
sg3
V\u4ea8\u5229\u4e94\u4e16 / Henry V
p4268
sg14
V10543907
p4269
sa(dp4270
g11
Vhttps://movie.douban.com/subject/1293456/
p4271
sg3
V\u83ab\u91cc\u65af / Maurice
p4272
sg14
V1293456
p4273
sa(dp4274
g11
Vhttps://movie.douban.com/subject/4023638/
p4275
sg3
V\u56fd\u738b\u7684\u6f14\u8bb2 / The King's Speech
p4276
sg14
V4023638
p4277
sa(dp4278
g11
Vhttps://movie.douban.com/subject/1301715/
p4279
sg3
V\u7f8e\u56fd\u7cbe\u795e\u75c5\u4eba / American Psycho
p4280
sg14
V1301715
p4281
sa(dp4282
g11
Vhttps://movie.douban.com/subject/25926760/
p4283
sg3
V\u70c8\u7130\u5347\u817e\uff1a\u9ed1\u6697\u9a91\u58eb\u4e09\u90e8\u66f2\u8bde\u751f\u53ca\u5f71\u54cd / The Fire Rises: The Creation and Impact of the Dark Knight Trilogy
p4284
sg14
V25926760
p4285
sa(dp4286
g11
Vhttps://movie.douban.com/subject/23708556/
p4287
sg3
V\u7b4b\u75b2\u529b\u5c3d / Beat
p4288
sg14
V23708556
p4289
sa(dp4290
g11
Vhttps://movie.douban.com/subject/2133337/
p4291
sg3
V\u65af\u56fe\u5c14\u7279\uff1a\u5012\u5e26\u4eba\u751f / Stuart: A Life Backwards
p4292
sg14
V2133337
p4293
sa(dp4294
g11
Vhttps://movie.douban.com/subject/10543906/
p4295
sg3
V\u4ea8\u5229\u56db\u4e16\uff1a\u7b2c\u4e8c\u90e8\u5206 / Henry IV, Part 2
p4296
sg14
V10543906
p4297
sa(dp4298
g11
Vhttps://movie.douban.com/subject/10441064/
p4299
sg3
V\u4ea8\u5229\u56db\u4e16\uff1a\u7b2c\u4e00\u90e8\u5206 / Henry IV, Part 1
p4300
sg14
V10441064
p4301
sa(dp4302
g11
Vhttps://movie.douban.com/subject/6753589/
p4303
sg3
V\u7406\u67e5\u4e8c\u4e16 / Richard II
p4304
sg14
V6753589
p4305
sa(dp4306
g11
Vhttps://movie.douban.com/subject/25773932/
p4307
sg3
V\u7206\u88c2\u9f13\u624b / Whiplash
p4308
sg14
V25773932
p4309
sa(dp4310
g11
Vhttps://movie.douban.com/subject/1482022/
p4311
sg3
V\u970d\u91d1\u4f20 / Hawking
p4312
sg14
V1482022
p4313
sa(dp4314
g11
Vhttps://movie.douban.com/subject/1303001/
p4315
sg3
V\u897f\u4f2f\u5229\u4e9a\u7684\u7406\u53d1\u5e08 / \u0421\u0438\u0431\u0438\u0440\u0441\u043a\u0438\u0439 \u0446\u0438\u0440\u044e\u043b\u044c\u043d\u0438\u043a
p4316
sg14
V1303001
p4317
sa(dp4318
g11
Vhttps://movie.douban.com/subject/1293455/
p4319
sg3
V\u6c38\u6052\u548c\u4e00\u65e5 / \u039c\u03b9\u03b1 \u03b1\u03b9\u03c9\u03bd\u03b9\u03cc\u03c4\u03b7\u03c4\u03b1 \u03ba\u03b1\u03b9 \u03bc\u03b9\u03b1 \u03bc\u03b5\u03c1\u03b1
p4320
sg14
V1293455
p4321
sa(dp4322
g11
Vhttps://movie.douban.com/subject/1300992/
p4323
sg3
V\u5b8c\u7f8e\u7684\u4e16\u754c / A Perfect World
p4324
sg14
V1300992
p4325
sa(dp4326
g11
Vhttps://movie.douban.com/subject/1305813/
p4327
sg3
V\u7f8e\u4e3d\u4e16\u754c / It's a Wonderful World
p4328
sg14
V1305813
p4329
sa(dp4330
g11
Vhttps://movie.douban.com/subject/1299412/
p4331
sg3
V\u6bd2\u836f\u4e0e\u8001\u5987 / Arsenic and Old Lace
p4332
sg14
V1299412
p4333
sa(dp4334
g11
Vhttps://movie.douban.com/subject/1439487/
p4335
sg3
V\u5357\u65b9\u4e0e\u5317\u65b9 / North & South
p4336
sg14
V1439487
p4337
sa(dp4338
g11
Vhttps://movie.douban.com/subject/20470074/
p4339
sg3
V\u8a00\u53f6\u4e4b\u5ead / \u8a00\u306e\u8449\u306e\u5ead
p4340
sg14
V20470074
p4341
sa(dp4342
g11
Vhttps://movie.douban.com/subject/1291831/
p4343
sg3
V\u707f\u70c2\u4eba\u751f / La meglio giovent
p4344
sg14
V1291831
p4345
sa(dp4346
g11
Vhttps://movie.douban.com/subject/5322596/
p4347
sg3
V\u8d85\u8131 / Detachment
p4348
sg14
V5322596
p4349
sa(dp4350
g11
Vhttps://movie.douban.com/subject/1293182/
p4351
sg3
V\u5341\u4e8c\u6012\u6c49 / 12 Angry Men
p4352
sg14
V1293182
p4353
sa(dp4354
g11
Vhttps://movie.douban.com/subject/6786002/
p4355
sg3
V\u89e6\u4e0d\u53ef\u53ca / Intouchables
p4356
sg14
V6786002
p4357
sa(dp4358
g11
Vhttps://movie.douban.com/subject/2131459/
p4359
sg3
V\u673a\u5668\u4eba\u603b\u52a8\u5458 / WALLE
p4360
sg14
V2131459
p4361
sa(dp4362
g11
Vhttps://movie.douban.com/subject/2213597/
p4363
sg3
V\u6717\u8bfb\u8005 / The Reader
p4364
sg14
V2213597
p4365
sa(dp4366
g11
Vhttps://movie.douban.com/subject/3319755/
p4367
sg3
V\u6026\u7136\u5fc3\u52a8 / Flipped
p4368
sg14
V3319755
p4369
sa(dp4370
g11
Vhttps://movie.douban.com/subject/2300586/
p4371
sg3
V\u8fd9\u4e2a\u7537\u4eba\u6765\u81ea\u5730\u7403 / The Man from Earth
p4372
sg14
V2300586
p4373
sa(dp4374
g11
Vhttps://movie.douban.com/subject/1309046/
p4375
sg3
VV\u5b57\u4ec7\u6740\u961f / V for Vendetta
p4376
sg14
V1309046
p4377
sa(dp4378
g11
Vhttps://movie.douban.com/subject/3155477/
p4379
sg3
V\u7231\u6709\u6765\u751f
p4380
sg14
V3155477
p4381
sa(dp4382
g11
Vhttps://movie.douban.com/subject/1885124/
p4383
sg3
V\u65f6\u95f4\u65c5\u884c\u8005\u7684\u59bb\u5b50 / The Time Traveler's Wife
p4384
sg14
V1885124
p4385
sa(dp4386
g11
Vhttps://movie.douban.com/subject/10808442/
p4387
sg3
V\u7231\u5728\u5348\u591c\u964d\u4e34\u524d / Before Midnight
p4388
sg14
V10808442
p4389
sa(dp4390
g11
Vhttps://movie.douban.com/subject/4920523/
p4391
sg3
V\u517d\u533b\u675c\u7acb\u5fb7 / \u7363\u533b\u30c9\u30ea\u30c8\u30eb
p4392
sg14
V4920523
p4393
sa(dp4394
g11
Vhttps://movie.douban.com/subject/3903715/
p4395
sg3
V\u7ea2\u7ebf / Redline
p4396
sg14
V3903715
p4397
sa(dp4398
g11
Vhttps://movie.douban.com/subject/1397546/
p4399
sg3
V\u8ffd\u968f / Following
p4400
sg14
V1397546
p4401
sa(dp4402
g11
Vhttps://movie.douban.com/subject/2567647/
p4403
sg3
V\u798f\u97f3\u6218\u58eb\u65b0\u5267\u573a\u7248\uff1aQ / \u30f1\u30f4\u30a1\u30f3\u30b2\u30ea\u30f2\u30f3\u65b0\u5287\u5834\u7248\uff1aQ
p4404
sg14
V2567647
p4405
sa(dp4406
g11
Vhttps://movie.douban.com/subject/1292585/
p4407
sg3
V\u8fb9\u7f18\u65e5\u8bb0 / The Basketball Diaries
p4408
sg14
V1292585
p4409
sa(dp4410
g11
Vhttps://movie.douban.com/subject/2334904/
p4411
sg3
V\u7981\u95ed\u5c9b / Shutter Island
p4412
sg14
V2334904
p4413
sa(dp4414
g11
Vhttps://movie.douban.com/subject/1299436/
p4415
sg3
V\u98ce\u67dc\u6765\u7684\u4eba / \u98a8\u6ac3\u4f86\u7684\u4eba
p4416
sg14
V1299436
p4417
sa(dp4418
g11
Vhttps://movie.douban.com/subject/3792799/
p4419
sg3
V\u5c81\u6708\u795e\u5077 / \u6b72\u6708\u795e\u5077
p4420
sg14
V3792799
p4421
sa(dp4422
g11
Vhttps://movie.douban.com/subject/4122194/
p4423
sg3
V\u94f6\u9b42\u5267\u573a\u7248\uff1a\u65b0\u8bd1\u7ea2\u6a31\u7bc7 / \u5287\u5834\u7248 \u9280\u9b42 \u65b0\u8a33\u7d05\u685c\u7bc7
p4424
sg14
V4122194
p4425
sa(dp4426
g11
Vhttps://movie.douban.com/subject/4268598/
p4427
sg3
V\u544a\u767d
p4428
sg14
V4268598
p4429
sa(dp4430
g11
Vhttps://movie.douban.com/subject/1963990/
p4431
sg3
V\u4e07\u6709\u5f15\u529b / \u30b0\u30e9\u30d3\u30c6\u30fc\u30b7\u30e7\u30f3
p4432
sg14
V1963990
p4433
sa(dp4434
g11
Vhttps://movie.douban.com/subject/1827339/
p4435
sg3
V\u6697\u4e4b\u672b\u88d4 / \u95c7\u306e\u672b\u88d4
p4436
sg14
V1827339
p4437
sa(dp4438
g11
Vhttps://movie.douban.com/subject/1916936/
p4439
sg3
V\u6b7b\u4ea1\u7b14\u8bb0 / \u30c7\u30b9\u30ce\u30fc\u30c8
p4440
sg14
V1916936
p4441
sa(dp4442
g11
Vhttps://movie.douban.com/subject/4233625/
p4443
sg3
V\u65b0\u719f\u5973\u65f6\u4ee3 / \u5973\u305f\u3061\u306f\u4e8c\u5ea6\u904a\u3076
p4444
sg14
V4233625
p4445
sa(dp4446
g11
Vhttps://movie.douban.com/subject/1858711/
p4447
sg3
V\u73a9\u5177\u603b\u52a8\u54583 / Toy Story 3
p4448
sg14
V1858711
p4449
sa(dp4450
g11
Vhttps://movie.douban.com/subject/4290704/
p4451
sg3
V\u6708\u4ee3\u5934\u5e03\u4e01 / \u3061\u3087\u3093\u307e\u3052\u3077\u308a\u3093
p4452
sg14
V4290704
p4453
sa(dp4454
g11
Vhttps://movie.douban.com/subject/1382621/
p4455
sg3
V\u65e5\u51fa\u524d\u5411\u9752\u6625\u544a\u522b / \u304d\u3087\u3046\u306e\u3067\u304d\u3054\u3068
p4456
sg14
V1382621
p4457
sa(dp4458
g11
Vhttps://movie.douban.com/subject/1432701/
p4459
sg3
VON YOUR MARK Ghibli\u5b9e\u9a8c\u5267\u573a / On Your Mark \u30b8\u30d6\u30ea\u5b9f\u9a13\u5267\u573a
p4460
sg14
V1432701
p4461
sa(dp4462
g11
Vhttps://movie.douban.com/subject/1301948/
p4463
sg3
V\u68a6\u65c5\u4eba / PicNic
p4464
sg14
V1301948
p4465
sa(dp4466
g11
Vhttps://movie.douban.com/subject/2149806/
p4467
sg3
V\u5165\u6b93\u5e08 / \u304a\u304f\u308a\u3073\u3068
p4468
sg14
V2149806
p4469
sa(dp4470
g11
Vhttps://movie.douban.com/subject/1389915/
p4471
sg3
V\u4e00\u6c5f\u6625\u6c34\u5411\u4e1c\u6d41
p4472
sg14
V1389915
p4473
sa(dp4474
g11
Vhttps://movie.douban.com/subject/1305294/
p4475
sg3
V\u5e78\u798f\u7684\u9ec4\u624b\u5e15 / \u5e78\u798f\u306e\u9ec4\u8272\u3044\u30cf\u30f3\u30ab\u30c1
p4476
sg14
V1305294
p4477
sa(dp4478
g11
Vhttps://movie.douban.com/subject/1302642/
p4479
sg3
V\u82b1\u706b / HANA-BI
p4480
sg14
V1302642
p4481
sa(dp4482
g11
Vhttps://movie.douban.com/subject/1307176/
p4483
sg3
VGO!\u5927\u66b4\u8d70 / Go
p4484
sg14
V1307176
p4485
sa(dp4486
g11
Vhttps://movie.douban.com/subject/1300712/
p4487
sg3
V\u5929\u4f7f\u4e4b\u7ffc / Only Angels Have Wings
p4488
sg14
V1300712
p4489
sa(dp4490
g11
Vhttps://movie.douban.com/subject/1293181/
p4491
sg3
V\u60ca\u9b42\u8bb0 / Psycho
p4492
sg14
V1293181
p4493
sa(dp4494
g11
Vhttps://movie.douban.com/subject/1291861/
p4495
sg3
V\u4eba\u8bc1 / \u4eba\u9593\u306e\u8a3c\u660e
p4496
sg14
V1291861
p4497
sa(dp4498
g11
Vhttps://movie.douban.com/subject/2000741/
p4499
sg3
V\u6bcd\u4eb2 / \u6bcd\u3079\u3048
p4500
sg14
V2000741
p4501
sa(dp4502
g11
Vhttps://movie.douban.com/subject/1308841/
p4503
sg3
V\u6740\u59bb\u603b\u52a8\u5458 / Survive Style 5+
p4504
sg14
V1308841
p4505
sa(dp4506
g11
Vhttps://movie.douban.com/subject/1299607/
p4507
sg3
V\u4e1c\u4eac\u65e5\u548c / \u6771\u4eac\u65e5\u548c
p4508
sg14
V1299607
p4509
sa(dp4510
g11
Vhttps://movie.douban.com/subject/1307755/
p4511
sg3
V\u604b\u7231\u5199\u771f / \u604b\u611b\u5beb\u771e
p4512
sg14
V1307755
p4513
sa(dp4514
g11
Vhttps://movie.douban.com/subject/2042235/
p4515
sg3
V\u7b49\u5f85\uff0c\u53ea\u4e3a\u4e0e\u4f60\u76f8\u9047 / \u305d\u306e\u3068\u304d\u306f\u5f7c\u306b\u3088\u308d\u3057\u304f
p4516
sg14
V2042235
p4517
sa(dp4518
g11
Vhttps://movie.douban.com/subject/1916394/
p4519
sg3
V\u670b\u53cb\u518d\u89c1 / Adieu l'ami
p4520
sg14
V1916394
p4521
sa(dp4522
g11
Vhttps://movie.douban.com/subject/1507306/
p4523
sg3
V\u51b2\u51fb / Le choc
p4524
sg14
V1507306
p4525
sa(dp4526
g11
Vhttps://movie.douban.com/subject/1855170/
p4527
sg3
V\u4e94\u5c9b\u533b\u751f\u8bca\u7597\u6240 / Dr.\u30b3\u30c8\u30fc\u8a3a\u7642\u6240
p4528
sg14
V1855170
p4529
sa(dp4530
g11
Vhttps://movie.douban.com/subject/2033317/
p4531
sg3
V\u7f8e\u5973\u6216\u91ce\u517d / \u7f8e\u5973\u304b\u91ce\u7363
p4532
sg14
V2033317
p4533
sa(dp4534
g11
Vhttps://movie.douban.com/subject/1908564/
p4535
sg3
V\u534a\u4e2a\u533b\u751f / \u30cf\u30f3\u30c9\u30af!!!
p4536
sg14
V1908564
p4537
sa(dp4538
g11
Vhttps://movie.douban.com/subject/1998825/
p4539
sg3
V\u661f\u671f\u4e09\u7684\u60c5\u4e8b / \u6c34\u66dc\u65e5\u306e\u60c5\u4e8b
p4540
sg14
V1998825
p4541
sa(dp4542
g11
Vhttps://movie.douban.com/subject/1394061/
p4543
sg3
V\u518d\u89c1\uff0c\u5c0f\u6d25\u8001\u5e08 / \u3055\u3088\u306a\u3089\u3001\u5c0f\u6d25\u5148\u751f
p4544
sg14
V1394061
p4545
sa(dp4546
g11
Vhttps://movie.douban.com/subject/1483813/
p4547
sg3
V\u5927\u548c\u629a\u5b50 / \u3084\u307e\u3068\u306a\u3067\u3057\u3053
p4548
sg14
V1483813
p4549
sa(dp4550
g11
Vhttps://movie.douban.com/subject/1923737/
p4551
sg3
V\u604b\u7231\u75c7\u5019\u7fa4 / Love Complex
p4552
sg14
V1923737
p4553
sa(dp4554
g11
Vhttps://movie.douban.com/subject/1441055/
p4555
sg3
V\u987d\u56fa\u8001\u7239 / \u30aa\u30e4\u30b8\u3043\u3002
p4556
sg14
V1441055
p4557
sa(dp4558
g11
Vhttps://movie.douban.com/subject/1481065/
p4559
sg3
V\u590f\u4e4b\u96ea / Summer Snow
p4560
sg14
V1481065
p4561
sa(dp4562
g11
Vhttps://movie.douban.com/subject/3011121/
p4563
sg3
V\u592a\u9633\u4e0d\u897f\u6c89 / \u592a\u967d\u306f\u6c88\u307e\u306a\u3044
p4564
sg14
V3011121
p4565
sa(dp4566
g11
Vhttps://movie.douban.com/subject/1465284/
p4567
sg3
V\u6c60\u888b\u897f\u53e3\u516c\u56ed / \u6c60\u888b\u30a6\u30a8\u30b9\u30c8\u30b2\u30fc\u30c8\u30d1\u30fc\u30af
p4568
sg14
V1465284
p4569
sa(dp4570
g11
Vhttps://movie.douban.com/subject/1998318/
p4571
sg3
V\u6697\u604b / to Heart \u604b\u3057\u3066\u6b7b\u306b\u305f\u3044
p4572
sg14
V1998318
p4573
sa(dp4574
g11
Vhttps://movie.douban.com/subject/1533935/
p4575
sg3
V\u7f18\u5206\u7684\u5929\u7a7a / With Love
p4576
sg14
V1533935
p4577
sa(dp4578
g11
Vhttps://movie.douban.com/subject/1957911/
p4579
sg3
V\u6cd5\u533b\u7269\u8bed / \u304d\u3089\u304d\u3089\u3072\u304b\u308b
p4580
sg14
V1957911
p4581
sa(dp4582
g11
Vhttps://movie.douban.com/subject/2153524/
p4583
sg3
V\u6c34\u6676\u4e4b\u604b / \u7406\u60f3\u306e\u7d50\u5a5a
p4584
sg14
V2153524
p4585
sa(dp4586
g11
Vhttps://movie.douban.com/subject/3330126/
p4587
sg3
V35\u5c81\u5815\u5165\u7231\u6cb3 / Age,35\u604b\u3057\u304f\u3066
p4588
sg14
V3330126
p4589
sa(dp4590
g11
Vhttps://movie.douban.com/subject/3330111/
p4591
sg3
V\u6700\u9ad8\u7684\u7247\u60f3 / \u6700\u9ad8\u306e\u7247\u60f3\u3044 WHITE LOVE STORY
p4592
sg14
V3330111
p4593
sa(dp4594
g11
Vhttps://movie.douban.com/subject/1998556/
p4595
sg3
V\u5149\u8f89\u7684\u5b63\u8282 / \u8f1d\u304f\u5b63\u7bc0\u306e\u4e2d\u3067
p4596
sg14
V1998556
p4597
sa(dp4598
g11
Vhttps://movie.douban.com/subject/2173142/
p4599
sg3
V29\u5c81\u7684\u5723\u8bde\u8282 / 29\u6b73\u306e\u30af\u30ea\u30b9\u30de\u30b9
p4600
sg14
V2173142
p4601
sa(dp4602
g11
Vhttps://movie.douban.com/subject/1984851/
p4603
sg3
V\u8df3\u8dc3\u5927\u641c\u67e5\u7ebf / \u8e0a\u308b\u5927\u635c\u67fb\u7dda
p4604
sg14
V1984851
p4605
sa(dp4606
g11
Vhttps://movie.douban.com/subject/1887837/
p4607
sg3
V\u7b97\u662f\u62a5\u6069\u4e86\u5427 / \u5c11\u3057\u306f\u3001\u6069\u8fd4\u3057\u304c\u3067\u304d\u305f\u304b\u306a
p4608
sg14
V1887837
p4609
sa(dp4610
g11
Vhttps://movie.douban.com/subject/2085537/
p4611
sg3
V\u9a6c\u62c9\u677e / \u30de\u30e9\u30bd\u30f3
p4612
sg14
V2085537
p4613
sa(dp4614
g11
Vhttps://movie.douban.com/subject/3542615/
p4615
sg3
V\u6c38\u4e0d\u653e\u5f03 / DOOR TO DOOR\u301c\u50d5\u306f\u8133\u6027\u307e\u3072\u306e\u30c8\u30c3\u30d7\u30bb\u30fc\u30eb\u30b9\u30de\u30f3\u301c
p4616
sg14
V3542615
p4617
sa(dp4618
g11
Vhttps://movie.douban.com/subject/1389924/
p4619
sg3
V\u9752\u4e4b\u708e / \u9752\u306e\u708e
p4620
sg14
V1389924
p4621
sa(dp4622
g11
Vhttps://movie.douban.com/subject/1903286/
p4623
sg3
V\u6e29\u67d4\u65f6\u523b / \u512a\u3057\u3044\u6642\u9593
p4624
sg14
V1903286
p4625
sa(dp4626
g11
Vhttps://movie.douban.com/subject/1507134/
p4627
sg3
V\u751f\u6d3b\u8270\u96be\u4f46\u662f\u5feb\u4e50 / \u30d4\u30ab\u2606\u30f3\u30c1 LIFE IS HARD\u3060\u3051\u3069HAPPY
p4628
sg14
V1507134
p4629
sa(dp4630
g11
Vhttps://movie.douban.com/subject/1959063/
p4631
sg3
V\u656c\u542f\uff0c\u7236\u4eb2\u5927\u4eba / \u62dd\u5553\u3001\u7236\u4e0a\u6a23
p4632
sg14
V1959063
p4633
sa(dp4634
g11
Vhttps://movie.douban.com/subject/1479458/
p4635
sg3
V\u6a59\u8272\u5c81\u6708 / \u30aa\u30ec\u30f3\u30b8\u30c7\u30a4\u30ba
p4636
sg14
V1479458
p4637
sa(dp4638
g11
Vhttps://movie.douban.com/subject/3005496/
p4639
sg3
V\u4e00\u4e2a\u597d\u7238\u7238
p4640
sg14
V3005496
p4641
sa(dp4642
g11
Vhttps://movie.douban.com/subject/1293177/
p4643
sg3
V\u6843\u8272\u8840\u6848 / Anatomy of a Murder
p4644
sg14
V1293177
p4645
sa(dp4646
g11
Vhttps://movie.douban.com/subject/3057351/
p4647
sg3
V\u4eba\u751f\u81f3\u4e0a / \u4eba\u751f\u306f\u4e0a\u3005\u3060
p4648
sg14
V3057351
p4649
sa(dp4650
g11
Vhttps://movie.douban.com/subject/1436900/
p4651
sg3
V1\u516c\u5347\u7684\u6cea / 1\u30ea\u30c3\u30c8\u30eb\u306e\u6d99
p4652
sg14
V1436900
p4653
sa(dp4654
g11
Vhttps://movie.douban.com/subject/3728516/
p4655
sg3
V\u4e0d\u6bdb\u5730\u5e26 / \u4e0d\u6bdb\u5730\u5e2f
p4656
sg14
V3728516
p4657
sa(dp4658
g11
Vhttps://movie.douban.com/subject/1846052/
p4659
sg3
V\u9752\u6625\u65e0\u6094 / \u82e5\u8005\u306e\u3059\u3079\u3066
p4660
sg14
V1846052
p4661
sa(dp4662
g11
Vhttps://movie.douban.com/subject/1940048/
p4663
sg3
V\u592a\u9633\u7684\u5b63\u8282 / \u592a\u9633\u306e\u5b63\u8282
p4664
sg14
V1940048
p4665
sa(dp4666
g11
Vhttps://movie.douban.com/subject/2287760/
p4667
sg3
V\u5949\u5b50\u6210\u5a5a / Parental Guidance
p4668
sg14
V2287760
p4669
sa(dp4670
g11
Vhttps://movie.douban.com/subject/1296384/
p4671
sg3
V\u5fc3\u7406\u6e38\u620f / The Game
p4672
sg14
V1296384
p4673
sa(dp4674
g11
Vhttps://movie.douban.com/subject/1303561/
p4675
sg3
V\u767d\u591c / Le notti bianche
p4676
sg14
V1303561
p4677
sa(dp4678
g11
Vhttps://movie.douban.com/subject/1294376/
p4679
sg3
V\u6731\u95e8\u5de7\u5987 / Cat on a Hot Tin Roof
p4680
sg14
V1294376
p4681
sa(dp4682
g11
Vhttps://movie.douban.com/subject/1395080/
p4683
sg3
V\u501f\u7740\u96e8\u70b9\u8bf4\u7231\u4f60 / \u3044\u307e\u3001\u4f1a\u3044\u306b\u3086\u304d\u307e\u3059
p4684
sg14
V1395080
p4685
sa(dp4686
g11
Vhttps://movie.douban.com/subject/1788402/
p4687
sg3
V\u4e4c\u51ac / Udon
p4688
sg14
V1788402
p4689
sa(dp4690
g11
Vhttps://movie.douban.com/subject/1295688/
p4691
sg3
V\u8363\u5f52 / Coming Home
p4692
sg14
V1295688
p4693
sa(dp4694
g11
Vhttps://movie.douban.com/subject/1300321/
p4695
sg3
V\u5fe0\u52c7\u4e4b\u5bb6 / Mrs. Miniver
p4696
sg14
V1300321
p4697
sa(dp4698
g11
Vhttps://movie.douban.com/subject/1296596/
p4699
sg3
V\u66fe\u7ecf\u6ca7\u6d77\u96be\u4e3a\u6c34 / Alice Doesn't Live Here Anymore
p4700
sg14
V1296596
p4701
sa(dp4702
g11
Vhttps://movie.douban.com/subject/1301233/
p4703
sg3
V\u64d2\u51f6\u8bb0 / The Man Who Knew Too Much
p4704
sg14
V1301233
p4705
sa(dp4706
g11
Vhttps://movie.douban.com/subject/1298442/
p4707
sg3
V\u8273\u8d3c / Marnie
p4708
sg14
V1298442
p4709
sa(dp4710
g11
Vhttps://movie.douban.com/subject/1301231/
p4711
sg3
V\u7535\u8bdd\u8c0b\u6740\u6848 / Dial M for Murder
p4712
sg14
V1301231
p4713
sa(dp4714
g11
Vhttps://movie.douban.com/subject/1303186/
p4715
sg3
V\u610f\u5927\u5229\u5f0f\u79bb\u5a5a / Divorzio all'italiana
p4716
sg14
V1303186
p4717
sa(dp4718
g11
Vhttps://movie.douban.com/subject/1296284/
p4719
sg3
V\u60c5\u5b9a\u65e5\u843d\u6865 / A Little Romance
p4720
sg14
V1296284
p4721
sa(dp4722
g11
Vhttps://movie.douban.com/subject/2173157/
p4723
sg3
V\u975e\u5173\u6b63\u4e49 / \u30a2\u30f3\u30d5\u30a7\u30a2
p4724
sg14
V2173157
p4725
sa(dp4726
g11
Vhttps://movie.douban.com/subject/2053515/
p4727
sg3
V\u66fe\u7ecf / Once
p4728
sg14
V2053515
p4729
sa(dp4730
g11
Vhttps://movie.douban.com/subject/1300636/
p4731
sg3
V\u6d6e\u751f\u82e5\u68a6 / You Can't Take It with You
p4732
sg14
V1300636
p4733
sa(dp4734
g11
Vhttps://movie.douban.com/subject/1294100/
p4735
sg3
V\u9ec4\u91d1\u65f6\u4ee3 / The Best Years of Our Lives
p4736
sg14
V1294100
p4737
sa(dp4738
g11
Vhttps://movie.douban.com/subject/1293767/
p4739
sg3
V\u91d1\u8272\u6c60\u5858 / On Golden Pond
p4740
sg14
V1293767
p4741
sa(dp4742
g11
Vhttps://movie.douban.com/subject/1295622/
p4743
sg3
V\u6349\u8d3c\u8bb0 / To Catch a Thief
p4744
sg14
V1295622
p4745
sa(dp4746
g11
Vhttps://movie.douban.com/subject/1292214/
p4747
sg3
V\u975e\u5e38\u5acc\u7591\u72af / The Usual Suspects
p4748
sg14
V1292214
p4749
sa(dp4750
g11
Vhttps://movie.douban.com/subject/1484486/
p4751
sg3
V\u7231\u60c5\u767d\u76ae\u4e66 / \u3042\u3059\u306a\u308d\u767d\u66f8
p4752
sg14
V1484486
p4753
sa(dp4754
g11
Vhttps://movie.douban.com/subject/1466390/
p4755
sg3
V\u6c89\u7761\u7684\u68ee\u6797 / \u7720\u308c\u308b\u68ee
p4756
sg14
V1466390
p4757
sa(dp4758
g11
Vhttps://movie.douban.com/subject/1301098/
p4759
sg3
V\u9ed1\u6697\u4e4b\u5149
p4760
sg14
V1301098
p4761
sa(dp4762
g11
Vhttps://movie.douban.com/subject/1293683/
p4763
sg3
V\u827e\u5fb7\u4f0d\u5fb7 / Ed Wood
p4764
sg14
V1293683
p4765
sa(dp4766
g11
Vhttps://movie.douban.com/subject/1305509/
p4767
sg3
V\u597d\u83b1\u575e\u7ed3\u5c40 / Hollywood Ending
p4768
sg14
V1305509
p4769
sa(dp4770
g11
Vhttps://movie.douban.com/subject/1294300/
p4771
sg3
V\u66fc\u54c8\u987f / Manhattan
p4772
sg14
V1294300
p4773
sas.